---
triple:          'arm64-apple-darwin'
binary-path:     '/Users/user/cdev/highuvlith/target/debug/deps/lib_native.dylib'
relocations:
  - { offsetInCU: 0x1E, offset: 0x1E, size: 0x8, addend: 0x0, symName: __ZN4pyo310conversion15IntoPyObjectExt17into_bound_py_any17h7ee27e38a7e5a989E, symObjAddr: 0x0, symBinAddr: 0x11B8, symSize: 0xE4 }
  - { offsetInCU: 0x86B, offset: 0x86B, size: 0x8, addend: 0x0, symName: '__ZN50_$LT$T$u20$as$u20$core..convert..Into$LT$U$GT$$GT$4into17h2bf57c285f3b6306E', symObjAddr: 0x288, symBinAddr: 0x1440, symSize: 0x14 }
  - { offsetInCU: 0x8AC, offset: 0x8AC, size: 0x8, addend: 0x0, symName: '__ZN50_$LT$T$u20$as$u20$core..convert..Into$LT$U$GT$$GT$4into17h99bd277546e02aa2E', symObjAddr: 0x29C, symBinAddr: 0x1454, symSize: 0x14 }
  - { offsetInCU: 0x176F, offset: 0x176F, size: 0x8, addend: 0x0, symName: __ZN4pyo310conversion15IntoPyObjectExt17into_bound_py_any17h7ee27e38a7e5a989E, symObjAddr: 0x0, symBinAddr: 0x11B8, symSize: 0xE4 }
  - { offsetInCU: 0x17FC, offset: 0x17FC, size: 0x8, addend: 0x0, symName: __ZN4pyo310conversion15IntoPyObjectExt17into_bound_py_any17ha46a3d9744d92d0aE, symObjAddr: 0xE4, symBinAddr: 0x129C, symSize: 0xE4 }
  - { offsetInCU: 0x1895, offset: 0x1895, size: 0x8, addend: 0x0, symName: __ZN4pyo311type_object10PyTypeInfo10is_type_of17hac8368e4f28a14e7E, symObjAddr: 0x1C8, symBinAddr: 0x1380, symSize: 0x50 }
  - { offsetInCU: 0x18CA, offset: 0x18CA, size: 0x8, addend: 0x0, symName: __ZN4pyo311type_object10PyTypeInfo10is_type_of17haf36f1f1402ff849E, symObjAddr: 0x218, symBinAddr: 0x13D0, symSize: 0x50 }
  - { offsetInCU: 0x1905, offset: 0x1905, size: 0x8, addend: 0x0, symName: '__ZN52_$LT$T$u20$as$u20$pyo3..type_object..PyTypeCheck$GT$10type_check17h2ce35c4ce6f822e9E', symObjAddr: 0x2B0, symBinAddr: 0x1468, symSize: 0x24 }
  - { offsetInCU: 0x193A, offset: 0x193A, size: 0x8, addend: 0x0, symName: '__ZN52_$LT$T$u20$as$u20$pyo3..type_object..PyTypeCheck$GT$10type_check17h5f0ced27ee653a28E', symObjAddr: 0x2D4, symBinAddr: 0x148C, symSize: 0x24 }
  - { offsetInCU: 0x1980, offset: 0x1980, size: 0x8, addend: 0x0, symName: __ZN4pyo35impl_7pyclass11PyClassImpl11dict_offset17hcba185c880c8f51bE, symObjAddr: 0x268, symBinAddr: 0x1420, symSize: 0x8 }
  - { offsetInCU: 0x19A7, offset: 0x19A7, size: 0x8, addend: 0x0, symName: __ZN4pyo35impl_7pyclass11PyClassImpl11dict_offset17he06cd618220101d0E, symObjAddr: 0x270, symBinAddr: 0x1428, symSize: 0x8 }
  - { offsetInCU: 0x19CE, offset: 0x19CE, size: 0x8, addend: 0x0, symName: __ZN4pyo35impl_7pyclass11PyClassImpl15weaklist_offset17h579c581d3bdca1fdE, symObjAddr: 0x278, symBinAddr: 0x1430, symSize: 0x8 }
  - { offsetInCU: 0x19F5, offset: 0x19F5, size: 0x8, addend: 0x0, symName: __ZN4pyo35impl_7pyclass11PyClassImpl15weaklist_offset17hbe7b2d1b1085c517E, symObjAddr: 0x280, symBinAddr: 0x1438, symSize: 0x8 }
  - { offsetInCU: 0x1E7F, offset: 0x1E7F, size: 0x8, addend: 0x0, symName: '__ZN7_native10py_results19PyAerialImageResult13cross_section28_$u7b$$u7b$closure$u7d$$u7d$17h96a7fe057497401aE', symObjAddr: 0x2F8, symBinAddr: 0x14B0, symSize: 0x54 }
  - { offsetInCU: 0x1ECF, offset: 0x1ECF, size: 0x8, addend: 0x0, symName: '__ZN7_native10py_results19PyAerialImageResult13cross_section28_$u7b$$u7b$closure$u7d$$u7d$17hbde9cef4bd2dd5c3E', symObjAddr: 0x34C, symBinAddr: 0x1504, symSize: 0x3C }
  - { offsetInCU: 0x1F25, offset: 0x1F25, size: 0x8, addend: 0x0, symName: '__ZN7_native10py_results19PyAerialImageResult4nils28_$u7b$$u7b$closure$u7d$$u7d$17h7da57ae23a3681f5E', symObjAddr: 0x3B8, symBinAddr: 0x1570, symSize: 0x3C }
  - { offsetInCU: 0x1F75, offset: 0x1F75, size: 0x8, addend: 0x0, symName: '__ZN7_native10py_results19PyAerialImageResult4nils28_$u7b$$u7b$closure$u7d$$u7d$17h900cd438c31b16f6E', symObjAddr: 0x3F4, symBinAddr: 0x15AC, symSize: 0x54 }
  - { offsetInCU: 0x1FCB, offset: 0x1FCB, size: 0x8, addend: 0x0, symName: '__ZN7_native10py_results19PyAerialImageResult4x_nm28_$u7b$$u7b$closure$u7d$$u7d$17h2f232f9cd18ea47eE', symObjAddr: 0x448, symBinAddr: 0x1600, symSize: 0x3C }
  - { offsetInCU: 0x2021, offset: 0x2021, size: 0x8, addend: 0x0, symName: '__ZN7_native10py_results19PyAerialImageResult4y_nm28_$u7b$$u7b$closure$u7d$$u7d$17h4afe57be67b3f2bdE', symObjAddr: 0x484, symBinAddr: 0x163C, symSize: 0x3C }
  - { offsetInCU: 0x207D, offset: 0x207D, size: 0x8, addend: 0x0, symName: '__ZN7_native10py_results19PyAerialImageResult17__pymethod_nils__28_$u7b$$u7b$closure$u7d$$u7d$17hb07a363633a8c131E', symObjAddr: 0x388, symBinAddr: 0x1540, symSize: 0x1C }
  - { offsetInCU: 0x20B2, offset: 0x20B2, size: 0x8, addend: 0x0, symName: '__ZN7_native10py_results19PyAerialImageResult26__pymethod_cross_section__28_$u7b$$u7b$closure$u7d$$u7d$17h01e406c27c6cd226E', symObjAddr: 0x3A4, symBinAddr: 0x155C, symSize: 0x14 }
  - { offsetInCU: 0x20ED, offset: 0x20ED, size: 0x8, addend: 0x0, symName: '__ZN94_$LT$_native..py_results..PyAerialImageResult$u20$as$u20$pyo3..impl_..pyclass..PyClassImpl$GT$3doc28_$u7b$$u7b$closure$u7d$$u7d$17h73a83872bd02752dE', symObjAddr: 0x4C0, symBinAddr: 0x1678, symSize: 0x58 }
  - { offsetInCU: 0x2145, offset: 0x2145, size: 0x8, addend: 0x0, symName: '__ZN96_$LT$_native..py_results..PyResistProfileResult$u20$as$u20$pyo3..impl_..pyclass..PyClassImpl$GT$3doc28_$u7b$$u7b$closure$u7d$$u7d$17h0476788dbac8a65cE', symObjAddr: 0x518, symBinAddr: 0x16D0, symSize: 0x58 }
  - { offsetInCU: 0x1E, offset: 0x2B6D, size: 0x8, addend: 0x0, symName: __ZN4core5slice3raw14from_raw_parts18precondition_check17h2f23993fc98ea4e7E, symObjAddr: 0x0, symBinAddr: 0x1728, symSize: 0x10C }
  - { offsetInCU: 0x104, offset: 0x2C53, size: 0x8, addend: 0x0, symName: __ZN4core5slice3raw14from_raw_parts18precondition_check17h2f23993fc98ea4e7E, symObjAddr: 0x0, symBinAddr: 0x1728, symSize: 0x10C }
  - { offsetInCU: 0x1E, offset: 0x2DE8, size: 0x8, addend: 0x0, symName: '__ZN8nalgebra4base11vec_storage27VecStorage$LT$T$C$R$C$C$GT$3new17hf32dcfd9f3824559E', symObjAddr: 0x0, symBinAddr: 0x1834, symSize: 0x120 }
  - { offsetInCU: 0x293, offset: 0x305D, size: 0x8, addend: 0x0, symName: '__ZN8nalgebra4base11vec_storage27VecStorage$LT$T$C$R$C$C$GT$3new17hf32dcfd9f3824559E', symObjAddr: 0x0, symBinAddr: 0x1834, symSize: 0x120 }
  - { offsetInCU: 0x1E, offset: 0x30D5, size: 0x8, addend: 0x0, symName: '__ZN118_$LT$pyo3..impl_..pyclass..SendablePyClass$LT$T$GT$$u20$as$u20$pyo3..impl_..pyclass..PyClassThreadChecker$LT$T$GT$$GT$3new17h02c7b915d90b0059E', symObjAddr: 0x0, symBinAddr: 0x1954, symSize: 0x4 }
  - { offsetInCU: 0x23FC, offset: 0x54B3, size: 0x8, addend: 0x0, symName: '__ZN118_$LT$pyo3..impl_..pyclass..SendablePyClass$LT$T$GT$$u20$as$u20$pyo3..impl_..pyclass..PyClassThreadChecker$LT$T$GT$$GT$3new17h02c7b915d90b0059E', symObjAddr: 0x0, symBinAddr: 0x1954, symSize: 0x4 }
  - { offsetInCU: 0x2420, offset: 0x54D7, size: 0x8, addend: 0x0, symName: '__ZN118_$LT$pyo3..impl_..pyclass..SendablePyClass$LT$T$GT$$u20$as$u20$pyo3..impl_..pyclass..PyClassThreadChecker$LT$T$GT$$GT$3new17h04eda0d2c35429f5E', symObjAddr: 0x4, symBinAddr: 0x1958, symSize: 0x4 }
  - { offsetInCU: 0x2444, offset: 0x54FB, size: 0x8, addend: 0x0, symName: '__ZN118_$LT$pyo3..impl_..pyclass..SendablePyClass$LT$T$GT$$u20$as$u20$pyo3..impl_..pyclass..PyClassThreadChecker$LT$T$GT$$GT$3new17h4f4ebc28d0005197E', symObjAddr: 0x8, symBinAddr: 0x195C, symSize: 0x4 }
  - { offsetInCU: 0x2468, offset: 0x551F, size: 0x8, addend: 0x0, symName: '__ZN118_$LT$pyo3..impl_..pyclass..SendablePyClass$LT$T$GT$$u20$as$u20$pyo3..impl_..pyclass..PyClassThreadChecker$LT$T$GT$$GT$3new17h5242fa526df04f83E', symObjAddr: 0xC, symBinAddr: 0x1960, symSize: 0x4 }
  - { offsetInCU: 0x248C, offset: 0x5543, size: 0x8, addend: 0x0, symName: '__ZN118_$LT$pyo3..impl_..pyclass..SendablePyClass$LT$T$GT$$u20$as$u20$pyo3..impl_..pyclass..PyClassThreadChecker$LT$T$GT$$GT$3new17h5d5ffcd6a5d2d496E', symObjAddr: 0x10, symBinAddr: 0x1964, symSize: 0x4 }
  - { offsetInCU: 0x24B0, offset: 0x5567, size: 0x8, addend: 0x0, symName: '__ZN118_$LT$pyo3..impl_..pyclass..SendablePyClass$LT$T$GT$$u20$as$u20$pyo3..impl_..pyclass..PyClassThreadChecker$LT$T$GT$$GT$3new17h6835eba475d3dc65E', symObjAddr: 0x14, symBinAddr: 0x1968, symSize: 0x4 }
  - { offsetInCU: 0x24D4, offset: 0x558B, size: 0x8, addend: 0x0, symName: '__ZN118_$LT$pyo3..impl_..pyclass..SendablePyClass$LT$T$GT$$u20$as$u20$pyo3..impl_..pyclass..PyClassThreadChecker$LT$T$GT$$GT$3new17h8d92d05bd55c47dbE', symObjAddr: 0x18, symBinAddr: 0x196C, symSize: 0x4 }
  - { offsetInCU: 0x24F8, offset: 0x55AF, size: 0x8, addend: 0x0, symName: '__ZN118_$LT$pyo3..impl_..pyclass..SendablePyClass$LT$T$GT$$u20$as$u20$pyo3..impl_..pyclass..PyClassThreadChecker$LT$T$GT$$GT$3new17ha7714b9513f4a57dE', symObjAddr: 0x1C, symBinAddr: 0x1970, symSize: 0x4 }
  - { offsetInCU: 0x251C, offset: 0x55D3, size: 0x8, addend: 0x0, symName: '__ZN118_$LT$pyo3..impl_..pyclass..SendablePyClass$LT$T$GT$$u20$as$u20$pyo3..impl_..pyclass..PyClassThreadChecker$LT$T$GT$$GT$3new17hae7be75facae77f1E', symObjAddr: 0x20, symBinAddr: 0x1974, symSize: 0x4 }
  - { offsetInCU: 0x2540, offset: 0x55F7, size: 0x8, addend: 0x0, symName: '__ZN118_$LT$pyo3..impl_..pyclass..SendablePyClass$LT$T$GT$$u20$as$u20$pyo3..impl_..pyclass..PyClassThreadChecker$LT$T$GT$$GT$3new17haf9cfb9fea4df59fE', symObjAddr: 0x24, symBinAddr: 0x1978, symSize: 0x4 }
  - { offsetInCU: 0x2564, offset: 0x561B, size: 0x8, addend: 0x0, symName: '__ZN118_$LT$pyo3..impl_..pyclass..SendablePyClass$LT$T$GT$$u20$as$u20$pyo3..impl_..pyclass..PyClassThreadChecker$LT$T$GT$$GT$3new17hb188e60b090e1aebE', symObjAddr: 0x28, symBinAddr: 0x197C, symSize: 0x4 }
  - { offsetInCU: 0x2588, offset: 0x563F, size: 0x8, addend: 0x0, symName: '__ZN118_$LT$pyo3..impl_..pyclass..SendablePyClass$LT$T$GT$$u20$as$u20$pyo3..impl_..pyclass..PyClassThreadChecker$LT$T$GT$$GT$3new17hd6388fd459e2f442E', symObjAddr: 0x2C, symBinAddr: 0x1980, symSize: 0x4 }
  - { offsetInCU: 0x25AC, offset: 0x5663, size: 0x8, addend: 0x0, symName: '__ZN118_$LT$pyo3..impl_..pyclass..SendablePyClass$LT$T$GT$$u20$as$u20$pyo3..impl_..pyclass..PyClassThreadChecker$LT$T$GT$$GT$6ensure17h0954ee36961b2c00E', symObjAddr: 0x30, symBinAddr: 0x1984, symSize: 0x10 }
  - { offsetInCU: 0x25DF, offset: 0x5696, size: 0x8, addend: 0x0, symName: '__ZN118_$LT$pyo3..impl_..pyclass..SendablePyClass$LT$T$GT$$u20$as$u20$pyo3..impl_..pyclass..PyClassThreadChecker$LT$T$GT$$GT$6ensure17h0d7cf8252718b00eE', symObjAddr: 0x40, symBinAddr: 0x1994, symSize: 0x10 }
  - { offsetInCU: 0x2612, offset: 0x56C9, size: 0x8, addend: 0x0, symName: '__ZN118_$LT$pyo3..impl_..pyclass..SendablePyClass$LT$T$GT$$u20$as$u20$pyo3..impl_..pyclass..PyClassThreadChecker$LT$T$GT$$GT$6ensure17h17d0cc62823478deE', symObjAddr: 0x50, symBinAddr: 0x19A4, symSize: 0x10 }
  - { offsetInCU: 0x2645, offset: 0x56FC, size: 0x8, addend: 0x0, symName: '__ZN118_$LT$pyo3..impl_..pyclass..SendablePyClass$LT$T$GT$$u20$as$u20$pyo3..impl_..pyclass..PyClassThreadChecker$LT$T$GT$$GT$6ensure17h1d6109e4af416a2fE', symObjAddr: 0x60, symBinAddr: 0x19B4, symSize: 0x10 }
  - { offsetInCU: 0x2678, offset: 0x572F, size: 0x8, addend: 0x0, symName: '__ZN118_$LT$pyo3..impl_..pyclass..SendablePyClass$LT$T$GT$$u20$as$u20$pyo3..impl_..pyclass..PyClassThreadChecker$LT$T$GT$$GT$6ensure17h2037b357c971daddE', symObjAddr: 0x70, symBinAddr: 0x19C4, symSize: 0x10 }
  - { offsetInCU: 0x26AB, offset: 0x5762, size: 0x8, addend: 0x0, symName: '__ZN118_$LT$pyo3..impl_..pyclass..SendablePyClass$LT$T$GT$$u20$as$u20$pyo3..impl_..pyclass..PyClassThreadChecker$LT$T$GT$$GT$6ensure17h44e41276c3bfac83E', symObjAddr: 0x80, symBinAddr: 0x19D4, symSize: 0x10 }
  - { offsetInCU: 0x26DE, offset: 0x5795, size: 0x8, addend: 0x0, symName: '__ZN118_$LT$pyo3..impl_..pyclass..SendablePyClass$LT$T$GT$$u20$as$u20$pyo3..impl_..pyclass..PyClassThreadChecker$LT$T$GT$$GT$6ensure17ha4ff4e0d95792ce1E', symObjAddr: 0x90, symBinAddr: 0x19E4, symSize: 0x10 }
  - { offsetInCU: 0x2711, offset: 0x57C8, size: 0x8, addend: 0x0, symName: '__ZN118_$LT$pyo3..impl_..pyclass..SendablePyClass$LT$T$GT$$u20$as$u20$pyo3..impl_..pyclass..PyClassThreadChecker$LT$T$GT$$GT$6ensure17had1b47865323a0efE', symObjAddr: 0xA0, symBinAddr: 0x19F4, symSize: 0x10 }
  - { offsetInCU: 0x2744, offset: 0x57FB, size: 0x8, addend: 0x0, symName: '__ZN118_$LT$pyo3..impl_..pyclass..SendablePyClass$LT$T$GT$$u20$as$u20$pyo3..impl_..pyclass..PyClassThreadChecker$LT$T$GT$$GT$6ensure17hc783a3778bd126beE', symObjAddr: 0xB0, symBinAddr: 0x1A04, symSize: 0x10 }
  - { offsetInCU: 0x2777, offset: 0x582E, size: 0x8, addend: 0x0, symName: '__ZN118_$LT$pyo3..impl_..pyclass..SendablePyClass$LT$T$GT$$u20$as$u20$pyo3..impl_..pyclass..PyClassThreadChecker$LT$T$GT$$GT$6ensure17he03ff5abd129976dE', symObjAddr: 0xC0, symBinAddr: 0x1A14, symSize: 0x10 }
  - { offsetInCU: 0x27AA, offset: 0x5861, size: 0x8, addend: 0x0, symName: '__ZN118_$LT$pyo3..impl_..pyclass..SendablePyClass$LT$T$GT$$u20$as$u20$pyo3..impl_..pyclass..PyClassThreadChecker$LT$T$GT$$GT$6ensure17he83c9955f595a759E', symObjAddr: 0xD0, symBinAddr: 0x1A24, symSize: 0x10 }
  - { offsetInCU: 0x27DD, offset: 0x5894, size: 0x8, addend: 0x0, symName: '__ZN118_$LT$pyo3..impl_..pyclass..SendablePyClass$LT$T$GT$$u20$as$u20$pyo3..impl_..pyclass..PyClassThreadChecker$LT$T$GT$$GT$6ensure17hf954692aef7fdcf8E', symObjAddr: 0xE0, symBinAddr: 0x1A34, symSize: 0x10 }
  - { offsetInCU: 0x2810, offset: 0x58C7, size: 0x8, addend: 0x0, symName: '__ZN118_$LT$pyo3..impl_..pyclass..SendablePyClass$LT$T$GT$$u20$as$u20$pyo3..impl_..pyclass..PyClassThreadChecker$LT$T$GT$$GT$8can_drop17h059f686cbc43085aE', symObjAddr: 0xF0, symBinAddr: 0x1A44, symSize: 0x18 }
  - { offsetInCU: 0x2862, offset: 0x5919, size: 0x8, addend: 0x0, symName: '__ZN118_$LT$pyo3..impl_..pyclass..SendablePyClass$LT$T$GT$$u20$as$u20$pyo3..impl_..pyclass..PyClassThreadChecker$LT$T$GT$$GT$8can_drop17h4127cfe3d0156614E', symObjAddr: 0x108, symBinAddr: 0x1A5C, symSize: 0x18 }
  - { offsetInCU: 0x28B4, offset: 0x596B, size: 0x8, addend: 0x0, symName: '__ZN118_$LT$pyo3..impl_..pyclass..SendablePyClass$LT$T$GT$$u20$as$u20$pyo3..impl_..pyclass..PyClassThreadChecker$LT$T$GT$$GT$8can_drop17h52aedc5f0472af39E', symObjAddr: 0x120, symBinAddr: 0x1A74, symSize: 0x18 }
  - { offsetInCU: 0x2906, offset: 0x59BD, size: 0x8, addend: 0x0, symName: '__ZN118_$LT$pyo3..impl_..pyclass..SendablePyClass$LT$T$GT$$u20$as$u20$pyo3..impl_..pyclass..PyClassThreadChecker$LT$T$GT$$GT$8can_drop17h540e8f424b07fd53E', symObjAddr: 0x138, symBinAddr: 0x1A8C, symSize: 0x18 }
  - { offsetInCU: 0x2958, offset: 0x5A0F, size: 0x8, addend: 0x0, symName: '__ZN118_$LT$pyo3..impl_..pyclass..SendablePyClass$LT$T$GT$$u20$as$u20$pyo3..impl_..pyclass..PyClassThreadChecker$LT$T$GT$$GT$8can_drop17h5d0867433bfb4a91E', symObjAddr: 0x150, symBinAddr: 0x1AA4, symSize: 0x18 }
  - { offsetInCU: 0x29AA, offset: 0x5A61, size: 0x8, addend: 0x0, symName: '__ZN118_$LT$pyo3..impl_..pyclass..SendablePyClass$LT$T$GT$$u20$as$u20$pyo3..impl_..pyclass..PyClassThreadChecker$LT$T$GT$$GT$8can_drop17h702bb7c90d434934E', symObjAddr: 0x168, symBinAddr: 0x1ABC, symSize: 0x18 }
  - { offsetInCU: 0x29FC, offset: 0x5AB3, size: 0x8, addend: 0x0, symName: '__ZN118_$LT$pyo3..impl_..pyclass..SendablePyClass$LT$T$GT$$u20$as$u20$pyo3..impl_..pyclass..PyClassThreadChecker$LT$T$GT$$GT$8can_drop17h74870e52bfdf4865E', symObjAddr: 0x180, symBinAddr: 0x1AD4, symSize: 0x18 }
  - { offsetInCU: 0x2A4E, offset: 0x5B05, size: 0x8, addend: 0x0, symName: '__ZN118_$LT$pyo3..impl_..pyclass..SendablePyClass$LT$T$GT$$u20$as$u20$pyo3..impl_..pyclass..PyClassThreadChecker$LT$T$GT$$GT$8can_drop17h9b3a4ba797a3ac26E', symObjAddr: 0x198, symBinAddr: 0x1AEC, symSize: 0x18 }
  - { offsetInCU: 0x2AA0, offset: 0x5B57, size: 0x8, addend: 0x0, symName: '__ZN118_$LT$pyo3..impl_..pyclass..SendablePyClass$LT$T$GT$$u20$as$u20$pyo3..impl_..pyclass..PyClassThreadChecker$LT$T$GT$$GT$8can_drop17hc47ab70c237972e9E', symObjAddr: 0x1B0, symBinAddr: 0x1B04, symSize: 0x18 }
  - { offsetInCU: 0x2AF2, offset: 0x5BA9, size: 0x8, addend: 0x0, symName: '__ZN118_$LT$pyo3..impl_..pyclass..SendablePyClass$LT$T$GT$$u20$as$u20$pyo3..impl_..pyclass..PyClassThreadChecker$LT$T$GT$$GT$8can_drop17hcd346e2407606a7bE', symObjAddr: 0x1C8, symBinAddr: 0x1B1C, symSize: 0x18 }
  - { offsetInCU: 0x2B44, offset: 0x5BFB, size: 0x8, addend: 0x0, symName: '__ZN118_$LT$pyo3..impl_..pyclass..SendablePyClass$LT$T$GT$$u20$as$u20$pyo3..impl_..pyclass..PyClassThreadChecker$LT$T$GT$$GT$8can_drop17hd2280241437e985bE', symObjAddr: 0x1E0, symBinAddr: 0x1B34, symSize: 0x18 }
  - { offsetInCU: 0x2B96, offset: 0x5C4D, size: 0x8, addend: 0x0, symName: '__ZN118_$LT$pyo3..impl_..pyclass..SendablePyClass$LT$T$GT$$u20$as$u20$pyo3..impl_..pyclass..PyClassThreadChecker$LT$T$GT$$GT$8can_drop17hd759cedb1165f775E', symObjAddr: 0x1F8, symBinAddr: 0x1B4C, symSize: 0x18 }
  - { offsetInCU: 0x2BEE, offset: 0x5CA5, size: 0x8, addend: 0x0, symName: '__ZN130_$LT$$RF$pyo3..impl_..pyclass..PyClassImplCollector$LT$T$GT$$u20$as$u20$pyo3..impl_..pyclass..PyClassNewTextSignature$LT$T$GT$$GT$18new_text_signature17h2f88fccf4b002d4aE', symObjAddr: 0x210, symBinAddr: 0x1B64, symSize: 0x14 }
  - { offsetInCU: 0x2C25, offset: 0x5CDC, size: 0x8, addend: 0x0, symName: '__ZN130_$LT$$RF$pyo3..impl_..pyclass..PyClassImplCollector$LT$T$GT$$u20$as$u20$pyo3..impl_..pyclass..PyClassNewTextSignature$LT$T$GT$$GT$18new_text_signature17h641e35c12b40f2c9E', symObjAddr: 0x224, symBinAddr: 0x1B78, symSize: 0x14 }
  - { offsetInCU: 0x2C5C, offset: 0x5D13, size: 0x8, addend: 0x0, symName: '__ZN130_$LT$$RF$pyo3..impl_..pyclass..PyClassImplCollector$LT$T$GT$$u20$as$u20$pyo3..impl_..pyclass..PyClassNewTextSignature$LT$T$GT$$GT$18new_text_signature17h80b3dc3aa360765dE', symObjAddr: 0x238, symBinAddr: 0x1B8C, symSize: 0x14 }
  - { offsetInCU: 0x2C93, offset: 0x5D4A, size: 0x8, addend: 0x0, symName: '__ZN130_$LT$$RF$pyo3..impl_..pyclass..PyClassImplCollector$LT$T$GT$$u20$as$u20$pyo3..impl_..pyclass..PyClassNewTextSignature$LT$T$GT$$GT$18new_text_signature17hef6894d4365fe8afE', symObjAddr: 0x24C, symBinAddr: 0x1BA0, symSize: 0x14 }
  - { offsetInCU: 0x2CCB, offset: 0x5D82, size: 0x8, addend: 0x0, symName: __ZN4pyo35impl_7pyclass10tp_dealloc17h25af936eb3a48984E, symObjAddr: 0x260, symBinAddr: 0x1BB4, symSize: 0x34 }
  - { offsetInCU: 0x2CFE, offset: 0x5DB5, size: 0x8, addend: 0x0, symName: __ZN4pyo35impl_7pyclass10tp_dealloc17h2b0c9d6c1173a221E, symObjAddr: 0x294, symBinAddr: 0x1BE8, symSize: 0x34 }
  - { offsetInCU: 0x2D31, offset: 0x5DE8, size: 0x8, addend: 0x0, symName: __ZN4pyo35impl_7pyclass10tp_dealloc17h39f03ae8b04fc78bE, symObjAddr: 0x2C8, symBinAddr: 0x1C1C, symSize: 0x34 }
  - { offsetInCU: 0x2D64, offset: 0x5E1B, size: 0x8, addend: 0x0, symName: __ZN4pyo35impl_7pyclass10tp_dealloc17h48134c539f6e57ceE, symObjAddr: 0x2FC, symBinAddr: 0x1C50, symSize: 0x34 }
  - { offsetInCU: 0x2D97, offset: 0x5E4E, size: 0x8, addend: 0x0, symName: __ZN4pyo35impl_7pyclass10tp_dealloc17h792c875c0b35a15dE, symObjAddr: 0x330, symBinAddr: 0x1C84, symSize: 0x34 }
  - { offsetInCU: 0x2DCA, offset: 0x5E81, size: 0x8, addend: 0x0, symName: __ZN4pyo35impl_7pyclass10tp_dealloc17h7dbfc2aab2be74c3E, symObjAddr: 0x364, symBinAddr: 0x1CB8, symSize: 0x34 }
  - { offsetInCU: 0x2DFD, offset: 0x5EB4, size: 0x8, addend: 0x0, symName: __ZN4pyo35impl_7pyclass10tp_dealloc17ha556e5e1129996f4E, symObjAddr: 0x398, symBinAddr: 0x1CEC, symSize: 0x34 }
  - { offsetInCU: 0x2E30, offset: 0x5EE7, size: 0x8, addend: 0x0, symName: __ZN4pyo35impl_7pyclass10tp_dealloc17haae63f60743886e5E, symObjAddr: 0x3CC, symBinAddr: 0x1D20, symSize: 0x34 }
  - { offsetInCU: 0x2E63, offset: 0x5F1A, size: 0x8, addend: 0x0, symName: __ZN4pyo35impl_7pyclass10tp_dealloc17hacaafd282847f96fE, symObjAddr: 0x400, symBinAddr: 0x1D54, symSize: 0x34 }
  - { offsetInCU: 0x2E96, offset: 0x5F4D, size: 0x8, addend: 0x0, symName: __ZN4pyo35impl_7pyclass10tp_dealloc17hbd6e0dc74b7a3bbaE, symObjAddr: 0x434, symBinAddr: 0x1D88, symSize: 0x34 }
  - { offsetInCU: 0x2EC9, offset: 0x5F80, size: 0x8, addend: 0x0, symName: __ZN4pyo35impl_7pyclass10tp_dealloc17hd6e05a2b36044b57E, symObjAddr: 0x468, symBinAddr: 0x1DBC, symSize: 0x34 }
  - { offsetInCU: 0x2EFC, offset: 0x5FB3, size: 0x8, addend: 0x0, symName: __ZN4pyo35impl_7pyclass10tp_dealloc17hf3ab56a06986297bE, symObjAddr: 0x49C, symBinAddr: 0x1DF0, symSize: 0x34 }
  - { offsetInCU: 0x2F2F, offset: 0x5FE6, size: 0x8, addend: 0x0, symName: __ZN4pyo35impl_7pyclass12class_offset17h73248ae47c7fc0bfE, symObjAddr: 0x4D0, symBinAddr: 0x1E24, symSize: 0xC }
  - { offsetInCU: 0x2F57, offset: 0x600E, size: 0x8, addend: 0x0, symName: __ZN4pyo35impl_7pyclass17field_from_object17h3ee47d2dd5b890c4E, symObjAddr: 0x4DC, symBinAddr: 0x1E30, symSize: 0x40 }
  - { offsetInCU: 0x2FC6, offset: 0x607D, size: 0x8, addend: 0x0, symName: __ZN4pyo35impl_7pyclass17field_from_object17hbd86c40e479fe161E, symObjAddr: 0x51C, symBinAddr: 0x1E70, symSize: 0x40 }
  - { offsetInCU: 0x3035, offset: 0x60EC, size: 0x8, addend: 0x0, symName: __ZN4pyo35impl_7pyclass17field_from_object17hf6e17580b0578414E, symObjAddr: 0x55C, symBinAddr: 0x1EB0, symSize: 0x40 }
  - { offsetInCU: 0x30A4, offset: 0x615B, size: 0x8, addend: 0x0, symName: __ZN4pyo35impl_7pyclass18tp_dealloc_with_gc17h0d65db92d3b5ceacE, symObjAddr: 0x59C, symBinAddr: 0x1EF0, symSize: 0x4C }
  - { offsetInCU: 0x30F5, offset: 0x61AC, size: 0x8, addend: 0x0, symName: __ZN4pyo35impl_7pyclass18tp_dealloc_with_gc17h1422f58377c49198E, symObjAddr: 0x5E8, symBinAddr: 0x1F3C, symSize: 0x4C }
  - { offsetInCU: 0x3146, offset: 0x61FD, size: 0x8, addend: 0x0, symName: __ZN4pyo35impl_7pyclass18tp_dealloc_with_gc17h2cd7e4a270eb00d2E, symObjAddr: 0x634, symBinAddr: 0x1F88, symSize: 0x4C }
  - { offsetInCU: 0x3197, offset: 0x624E, size: 0x8, addend: 0x0, symName: __ZN4pyo35impl_7pyclass18tp_dealloc_with_gc17h32ab47c45b6ad8a5E, symObjAddr: 0x680, symBinAddr: 0x1FD4, symSize: 0x4C }
  - { offsetInCU: 0x31E8, offset: 0x629F, size: 0x8, addend: 0x0, symName: __ZN4pyo35impl_7pyclass18tp_dealloc_with_gc17h467fd5bd30112e3cE, symObjAddr: 0x6CC, symBinAddr: 0x2020, symSize: 0x4C }
  - { offsetInCU: 0x3239, offset: 0x62F0, size: 0x8, addend: 0x0, symName: __ZN4pyo35impl_7pyclass18tp_dealloc_with_gc17h4d449e9b743f1c08E, symObjAddr: 0x718, symBinAddr: 0x206C, symSize: 0x4C }
  - { offsetInCU: 0x328A, offset: 0x6341, size: 0x8, addend: 0x0, symName: __ZN4pyo35impl_7pyclass18tp_dealloc_with_gc17h863686ec879ad075E, symObjAddr: 0x764, symBinAddr: 0x20B8, symSize: 0x4C }
  - { offsetInCU: 0x32DB, offset: 0x6392, size: 0x8, addend: 0x0, symName: __ZN4pyo35impl_7pyclass18tp_dealloc_with_gc17h88b61a39c177b23aE, symObjAddr: 0x7B0, symBinAddr: 0x2104, symSize: 0x4C }
  - { offsetInCU: 0x332C, offset: 0x63E3, size: 0x8, addend: 0x0, symName: __ZN4pyo35impl_7pyclass18tp_dealloc_with_gc17h9108b257dd9b70e3E, symObjAddr: 0x7FC, symBinAddr: 0x2150, symSize: 0x4C }
  - { offsetInCU: 0x337D, offset: 0x6434, size: 0x8, addend: 0x0, symName: __ZN4pyo35impl_7pyclass18tp_dealloc_with_gc17ha88f169d28072612E, symObjAddr: 0x848, symBinAddr: 0x219C, symSize: 0x4C }
  - { offsetInCU: 0x33CE, offset: 0x6485, size: 0x8, addend: 0x0, symName: __ZN4pyo35impl_7pyclass18tp_dealloc_with_gc17hb51040d979f5081fE, symObjAddr: 0x894, symBinAddr: 0x21E8, symSize: 0x4C }
  - { offsetInCU: 0x341F, offset: 0x64D6, size: 0x8, addend: 0x0, symName: __ZN4pyo35impl_7pyclass18tp_dealloc_with_gc17hf4aae82a61df83c7E, symObjAddr: 0x8E0, symBinAddr: 0x2234, symSize: 0x4C }
  - { offsetInCU: 0x3470, offset: 0x6527, size: 0x8, addend: 0x0, symName: __ZN4pyo35impl_7pyclass23ensure_no_mutable_alias17hc6af578febb97daeE, symObjAddr: 0x92C, symBinAddr: 0x2280, symSize: 0x3C }
  - { offsetInCU: 0x3726, offset: 0x67DD, size: 0x8, addend: 0x0, symName: __ZN4pyo35impl_7pyclass32pyo3_get_value_into_pyobject_ref17h052f58074cde4333E, symObjAddr: 0x998, symBinAddr: 0x22EC, symSize: 0x1D8 }
  - { offsetInCU: 0x3817, offset: 0x68CE, size: 0x8, addend: 0x0, symName: __ZN4pyo35impl_7pyclass32pyo3_get_value_into_pyobject_ref17h3578cb63e3f63d43E, symObjAddr: 0xB70, symBinAddr: 0x24C4, symSize: 0x1D8 }
  - { offsetInCU: 0x3908, offset: 0x69BF, size: 0x8, addend: 0x0, symName: __ZN4pyo35impl_7pyclass32pyo3_get_value_into_pyobject_ref17hb7530c1ea8f95ddcE, symObjAddr: 0xD48, symBinAddr: 0x269C, symSize: 0x1D8 }
  - { offsetInCU: 0x4D9D, offset: 0x7E54, size: 0x8, addend: 0x0, symName: '__ZN4pyo35impl_7pyclass29PyClassImplCollector$LT$T$GT$3new17h01376eeb3bf5d71cE', symObjAddr: 0x968, symBinAddr: 0x22BC, symSize: 0x4 }
  - { offsetInCU: 0x5285, offset: 0x833C, size: 0x8, addend: 0x0, symName: '__ZN4pyo35impl_7pyclass29PyClassImplCollector$LT$T$GT$3new17h0be5c65d68b4fc52E', symObjAddr: 0x96C, symBinAddr: 0x22C0, symSize: 0x4 }
  - { offsetInCU: 0x52D2, offset: 0x8389, size: 0x8, addend: 0x0, symName: '__ZN4pyo35impl_7pyclass29PyClassImplCollector$LT$T$GT$3new17h0e4ceb1692b28eccE', symObjAddr: 0x970, symBinAddr: 0x22C4, symSize: 0x4 }
  - { offsetInCU: 0x5448, offset: 0x84FF, size: 0x8, addend: 0x0, symName: '__ZN4pyo35impl_7pyclass29PyClassImplCollector$LT$T$GT$3new17h2c6ec00ed91a5b05E', symObjAddr: 0x974, symBinAddr: 0x22C8, symSize: 0x4 }
  - { offsetInCU: 0x5A8F, offset: 0x8B46, size: 0x8, addend: 0x0, symName: '__ZN4pyo35impl_7pyclass29PyClassImplCollector$LT$T$GT$3new17h2f1a09aa13e74f9fE', symObjAddr: 0x978, symBinAddr: 0x22CC, symSize: 0x4 }
  - { offsetInCU: 0x5AAC, offset: 0x8B63, size: 0x8, addend: 0x0, symName: '__ZN4pyo35impl_7pyclass29PyClassImplCollector$LT$T$GT$3new17h355e60700cb24786E', symObjAddr: 0x97C, symBinAddr: 0x22D0, symSize: 0x4 }
  - { offsetInCU: 0x5AC9, offset: 0x8B80, size: 0x8, addend: 0x0, symName: '__ZN4pyo35impl_7pyclass29PyClassImplCollector$LT$T$GT$3new17h363aa0b0d57e384eE', symObjAddr: 0x980, symBinAddr: 0x22D4, symSize: 0x4 }
  - { offsetInCU: 0x5AE6, offset: 0x8B9D, size: 0x8, addend: 0x0, symName: '__ZN4pyo35impl_7pyclass29PyClassImplCollector$LT$T$GT$3new17h50d64bd12586742aE', symObjAddr: 0x984, symBinAddr: 0x22D8, symSize: 0x4 }
  - { offsetInCU: 0x5B03, offset: 0x8BBA, size: 0x8, addend: 0x0, symName: '__ZN4pyo35impl_7pyclass29PyClassImplCollector$LT$T$GT$3new17h777d5f28d2087fb6E', symObjAddr: 0x988, symBinAddr: 0x22DC, symSize: 0x4 }
  - { offsetInCU: 0x5B20, offset: 0x8BD7, size: 0x8, addend: 0x0, symName: '__ZN4pyo35impl_7pyclass29PyClassImplCollector$LT$T$GT$3new17h98dcf588706af6e4E', symObjAddr: 0x98C, symBinAddr: 0x22E0, symSize: 0x4 }
  - { offsetInCU: 0x5B3D, offset: 0x8BF4, size: 0x8, addend: 0x0, symName: '__ZN4pyo35impl_7pyclass29PyClassImplCollector$LT$T$GT$3new17ha56c220e679c8f27E', symObjAddr: 0x990, symBinAddr: 0x22E4, symSize: 0x4 }
  - { offsetInCU: 0x5B5A, offset: 0x8C11, size: 0x8, addend: 0x0, symName: '__ZN4pyo35impl_7pyclass29PyClassImplCollector$LT$T$GT$3new17hd34d0d76be581e8aE', symObjAddr: 0x994, symBinAddr: 0x22E8, symSize: 0x4 }
  - { offsetInCU: 0x5CCC, offset: 0x8D83, size: 0x8, addend: 0x0, symName: '__ZN4pyo35impl_7pyclass66PyClassGetterGenerator$LT$ClassT$C$FieldT$C$Offset$C$_$C$_$C$_$GT$8generate17h2a4eaaf84b85a0e2E', symObjAddr: 0xF20, symBinAddr: 0x2874, symSize: 0x78 }
  - { offsetInCU: 0x5D5E, offset: 0x8E15, size: 0x8, addend: 0x0, symName: '__ZN4pyo35impl_7pyclass66PyClassGetterGenerator$LT$ClassT$C$FieldT$C$Offset$C$_$C$_$C$_$GT$8generate17h48082de0d9cf1c6aE', symObjAddr: 0xF98, symBinAddr: 0x28EC, symSize: 0x78 }
  - { offsetInCU: 0x5DF0, offset: 0x8EA7, size: 0x8, addend: 0x0, symName: '__ZN4pyo35impl_7pyclass66PyClassGetterGenerator$LT$ClassT$C$FieldT$C$Offset$C$_$C$_$C$_$GT$8generate17hc8e5088de75ea435E', symObjAddr: 0x1010, symBinAddr: 0x2964, symSize: 0x78 }
  - { offsetInCU: 0x1E, offset: 0x9032, size: 0x8, addend: 0x0, symName: '__ZN7_native43_$LT$impl$u20$_native.._native..MakeDef$GT$8make_def15__pyo3_pymodule17hffec8799c90f4992E', symObjAddr: 0x0, symBinAddr: 0x29DC, symSize: 0x38 }
  - { offsetInCU: 0x1526, offset: 0xA53A, size: 0x8, addend: 0x0, symName: '__ZN7_native43_$LT$impl$u20$_native.._native..MakeDef$GT$8make_def15__pyo3_pymodule17hffec8799c90f4992E', symObjAddr: 0x0, symBinAddr: 0x29DC, symSize: 0x38 }
  - { offsetInCU: 0x1554, offset: 0xA568, size: 0x8, addend: 0x0, symName: __ZN7_native7_native17hd1a2eb9cf0c38640E, symObjAddr: 0x38, symBinAddr: 0x2A14, symSize: 0x5AC }
  - { offsetInCU: 0x1E, offset: 0xAFEE, size: 0x8, addend: 0x0, symName: __ZN4pyo35types8sequence16extract_sequence17h27b3e82096a74b5bE, symObjAddr: 0x0, symBinAddr: 0x2FC0, symSize: 0x3F8 }
  - { offsetInCU: 0x16C9, offset: 0xC699, size: 0x8, addend: 0x0, symName: __ZN4pyo35types8sequence16extract_sequence17h27b3e82096a74b5bE, symObjAddr: 0x0, symBinAddr: 0x2FC0, symSize: 0x3F8 }
  - { offsetInCU: 0x1E, offset: 0xD21A, size: 0x8, addend: 0x0, symName: '__ZN4core3ptr9const_ptr33_$LT$impl$u20$$BP$const$u20$T$GT$20offset_from_unsigned18precondition_check17h307f81efd259467eE', symObjAddr: 0x0, symBinAddr: 0x33B8, symSize: 0x60 }
  - { offsetInCU: 0x44, offset: 0xD240, size: 0x8, addend: 0x0, symName: '__ZN4core3ptr9const_ptr33_$LT$impl$u20$$BP$const$u20$T$GT$20offset_from_unsigned18precondition_check17h307f81efd259467eE', symObjAddr: 0x0, symBinAddr: 0x33B8, symSize: 0x60 }
  - { offsetInCU: 0x12D, offset: 0xD329, size: 0x8, addend: 0x0, symName: '__ZN4core3ptr9const_ptr33_$LT$impl$u20$$BP$const$u20$T$GT$6offset18precondition_check17hd5de430f5aca7dc8E', symObjAddr: 0x60, symBinAddr: 0x3418, symSize: 0xC4 }
  - { offsetInCU: 0x1E, offset: 0xD710, size: 0x8, addend: 0x0, symName: __ZN5numpy5array14clone_elements17h92c2d41439bd89ffE, symObjAddr: 0x0, symBinAddr: 0x34DC, symSize: 0xB0 }
  - { offsetInCU: 0x13C0, offset: 0xEAB2, size: 0x8, addend: 0x0, symName: __ZN5numpy5array14clone_elements17h92c2d41439bd89ffE, symObjAddr: 0x0, symBinAddr: 0x34DC, symSize: 0xB0 }
  - { offsetInCU: 0x1CED, offset: 0xF3DF, size: 0x8, addend: 0x0, symName: '__ZN5numpy5array20PyArray$LT$T$C$D$GT$10new_uninit17h484f095c7ef9564bE', symObjAddr: 0xB0, symBinAddr: 0x358C, symSize: 0x118 }
  - { offsetInCU: 0x1DE6, offset: 0xF4D8, size: 0x8, addend: 0x0, symName: '__ZN5numpy5array20PyArray$LT$T$C$D$GT$10new_uninit17hcd51ff6a65a2424dE', symObjAddr: 0x1C8, symBinAddr: 0x36A4, symSize: 0x170 }
  - { offsetInCU: 0x1EDD, offset: 0xF5CF, size: 0x8, addend: 0x0, symName: '__ZN5numpy5array20PyArray$LT$T$C$D$GT$3new17h3a9f65e3550cff2dE', symObjAddr: 0x338, symBinAddr: 0x3814, symSize: 0xC8 }
  - { offsetInCU: 0x1F87, offset: 0xF679, size: 0x8, addend: 0x0, symName: '__ZN5numpy5array20PyArray$LT$T$C$D$GT$3new17hf71decaa7b0d38a6E', symObjAddr: 0x400, symBinAddr: 0x38DC, symSize: 0xBC }
  - { offsetInCU: 0x2066, offset: 0xF758, size: 0x8, addend: 0x0, symName: '__ZN5numpy5array81PyArray$LT$T$C$ndarray..dimension..dim..Dim$LT$$u5b$usize$u3b$$u20$1$u5d$$GT$$GT$10from_slice17hbc4518a1ff9bab1aE', symObjAddr: 0x4BC, symBinAddr: 0x3998, symSize: 0x108 }
  - { offsetInCU: 0x1E, offset: 0xF83C, size: 0x8, addend: 0x0, symName: '__ZN81_$LT$nalgebra..base..dimension..Dyn$u20$as$u20$nalgebra..base..dimension..Dim$GT$5value17h912aee8ba0d2310dE', symObjAddr: 0x0, symBinAddr: 0x3AA0, symSize: 0x18 }
  - { offsetInCU: 0x3F, offset: 0xF85D, size: 0x8, addend: 0x0, symName: '__ZN81_$LT$nalgebra..base..dimension..Dyn$u20$as$u20$nalgebra..base..dimension..Dim$GT$5value17h912aee8ba0d2310dE', symObjAddr: 0x0, symBinAddr: 0x3AA0, symSize: 0x18 }
  - { offsetInCU: 0x1E, offset: 0xF8D4, size: 0x8, addend: 0x0, symName: '__ZN106_$LT$pyo3..impl_..extract_argument..NoVarargs$u20$as$u20$pyo3..impl_..extract_argument..VarargsHandler$GT$20handle_varargs_tuple17h37bbee77fc759925E', symObjAddr: 0x0, symBinAddr: 0x3AB8, symSize: 0xA0 }
  - { offsetInCU: 0x1945, offset: 0x111FB, size: 0x8, addend: 0x0, symName: '__ZN106_$LT$pyo3..impl_..extract_argument..NoVarargs$u20$as$u20$pyo3..impl_..extract_argument..VarargsHandler$GT$20handle_varargs_tuple17h37bbee77fc759925E', symObjAddr: 0x0, symBinAddr: 0x3AB8, symSize: 0xA0 }
  - { offsetInCU: 0x19BE, offset: 0x11274, size: 0x8, addend: 0x0, symName: '__ZN106_$LT$pyo3..impl_..extract_argument..NoVarargs$u20$as$u20$pyo3..impl_..extract_argument..VarargsHandler$GT$23handle_varargs_fastcall17h737fc1bd538b923dE', symObjAddr: 0xA0, symBinAddr: 0x3B58, symSize: 0xB4 }
  - { offsetInCU: 0x1A32, offset: 0x112E8, size: 0x8, addend: 0x0, symName: '__ZN114_$LT$pyo3..impl_..extract_argument..NoVarkeywords$u20$as$u20$pyo3..impl_..extract_argument..VarkeywordsHandler$GT$17handle_varkeyword17h8b143696719f6e7fE', symObjAddr: 0x154, symBinAddr: 0x3C0C, symSize: 0x6C }
  - { offsetInCU: 0x1B71, offset: 0x11427, size: 0x8, addend: 0x0, symName: __ZN4pyo35impl_16extract_argument24unwrap_required_argument17h40dc63ec1fb45d5dE, symObjAddr: 0x574, symBinAddr: 0x402C, symSize: 0x58 }
  - { offsetInCU: 0x1EE4, offset: 0x1179A, size: 0x8, addend: 0x0, symName: __ZN4pyo35impl_16extract_argument19FunctionDescription36find_keyword_parameter_in_positional17hd00d314b0588fdc1E, symObjAddr: 0x1C0, symBinAddr: 0x3C78, symSize: 0x5C }
  - { offsetInCU: 0x1F16, offset: 0x117CC, size: 0x8, addend: 0x0, symName: __ZN4pyo35impl_16extract_argument19FunctionDescription38find_keyword_parameter_in_keyword_only17h998698d6f0103f8aE, symObjAddr: 0x21C, symBinAddr: 0x3CD4, symSize: 0x5C }
  - { offsetInCU: 0x2604, offset: 0x11EBA, size: 0x8, addend: 0x0, symName: __ZN4pyo35impl_16extract_argument19FunctionDescription44ensure_no_missing_required_keyword_arguments17haa146df07fdd0ab1E, symObjAddr: 0x278, symBinAddr: 0x3D30, symSize: 0x160 }
  - { offsetInCU: 0x26D0, offset: 0x11F86, size: 0x8, addend: 0x0, symName: __ZN4pyo35impl_16extract_argument19FunctionDescription47ensure_no_missing_required_positional_arguments17heee1a7fa09a58ec1E, symObjAddr: 0x3D8, symBinAddr: 0x3E90, symSize: 0x19C }
  - { offsetInCU: 0x1E, offset: 0x1211B, size: 0x8, addend: 0x0, symName: '__ZN109_$LT$pyo3..types..dict..borrowed_iter..BorrowedDictIter$u20$as$u20$core..iter..traits..iterator..Iterator$GT$4next17h581751f940f38877E', symObjAddr: 0x0, symBinAddr: 0x4084, symSize: 0xE4 }
  - { offsetInCU: 0x1245, offset: 0x13342, size: 0x8, addend: 0x0, symName: '__ZN109_$LT$pyo3..types..dict..borrowed_iter..BorrowedDictIter$u20$as$u20$core..iter..traits..iterator..Iterator$GT$4next17h581751f940f38877E', symObjAddr: 0x0, symBinAddr: 0x4084, symSize: 0xE4 }
  - { offsetInCU: 0x1E, offset: 0x13A5D, size: 0x8, addend: 0x0, symName: __ZN4core3fmt9Arguments17from_str_nonconst17h8a952ec58e8ee206E, symObjAddr: 0x0, symBinAddr: 0x4168, symSize: 0x28 }
  - { offsetInCU: 0x36A, offset: 0x13DA9, size: 0x8, addend: 0x0, symName: __ZN4core3fmt9Arguments17from_str_nonconst17h8a952ec58e8ee206E, symObjAddr: 0x0, symBinAddr: 0x4168, symSize: 0x28 }
  - { offsetInCU: 0x38D, offset: 0x13DCC, size: 0x8, addend: 0x0, symName: __ZN4core3fmt9Arguments8from_str17h3944cad45a19c63eE, symObjAddr: 0x28, symBinAddr: 0x4190, symSize: 0x20 }
  - { offsetInCU: 0x1E, offset: 0x13E0D, size: 0x8, addend: 0x0, symName: '__ZN7ndarray3zip16Zip$LT$P$C$D$GT$13for_each_core17h0a5dff4333ad5aeeE', symObjAddr: 0x0, symBinAddr: 0x41B0, symSize: 0x1B0 }
  - { offsetInCU: 0x2DA, offset: 0x140C9, size: 0x8, addend: 0x0, symName: '__ZN7ndarray3zip30Zip$LT$$LP$P1$C$P2$RP$$C$D$GT$8for_each28_$u7b$$u7b$closure$u7d$$u7d$17h3762f656ff78f844E', symObjAddr: 0x2414, symBinAddr: 0x65C4, symSize: 0x78 }
  - { offsetInCU: 0x377, offset: 0x14166, size: 0x8, addend: 0x0, symName: '__ZN7ndarray3zip30Zip$LT$$LP$P1$C$P2$RP$$C$D$GT$8for_each28_$u7b$$u7b$closure$u7d$$u7d$17ha85c0adf0d7954d5E', symObjAddr: 0x248C, symBinAddr: 0x663C, symSize: 0x4C }
  - { offsetInCU: 0x413, offset: 0x14202, size: 0x8, addend: 0x0, symName: '__ZN7ndarray3zip30Zip$LT$$LP$P1$C$P2$RP$$C$D$GT$8for_each28_$u7b$$u7b$closure$u7d$$u7d$17heef0b4555dffe4f9E', symObjAddr: 0x24D8, symBinAddr: 0x6688, symSize: 0x78 }
  - { offsetInCU: 0xD39, offset: 0x14B28, size: 0x8, addend: 0x0, symName: '__ZN7ndarray3zip16Zip$LT$P$C$D$GT$13for_each_core17h0a5dff4333ad5aeeE', symObjAddr: 0x0, symBinAddr: 0x41B0, symSize: 0x1B0 }
  - { offsetInCU: 0xDF6, offset: 0x14BE5, size: 0x8, addend: 0x0, symName: '__ZN7ndarray3zip16Zip$LT$P$C$D$GT$13for_each_core17h2e7e14cfa0441431E', symObjAddr: 0x1B0, symBinAddr: 0x4360, symSize: 0x1C0 }
  - { offsetInCU: 0xE82, offset: 0x14C71, size: 0x8, addend: 0x0, symName: '__ZN7ndarray3zip16Zip$LT$P$C$D$GT$13for_each_core17h51d2187fbded8941E', symObjAddr: 0x370, symBinAddr: 0x4520, symSize: 0x1C0 }
  - { offsetInCU: 0xF0E, offset: 0x14CFD, size: 0x8, addend: 0x0, symName: '__ZN7ndarray3zip16Zip$LT$P$C$D$GT$21for_each_core_strided17h1c3f725fd8c80719E', symObjAddr: 0x530, symBinAddr: 0x46E0, symSize: 0x134 }
  - { offsetInCU: 0xF89, offset: 0x14D78, size: 0x8, addend: 0x0, symName: '__ZN7ndarray3zip16Zip$LT$P$C$D$GT$21for_each_core_strided17hd3dbe4d954b1ba85E', symObjAddr: 0x664, symBinAddr: 0x4814, symSize: 0x134 }
  - { offsetInCU: 0x1004, offset: 0x14DF3, size: 0x8, addend: 0x0, symName: '__ZN7ndarray3zip16Zip$LT$P$C$D$GT$21for_each_core_strided17hf771510215e86298E', symObjAddr: 0x798, symBinAddr: 0x4948, symSize: 0x134 }
  - { offsetInCU: 0x1103, offset: 0x14EF2, size: 0x8, addend: 0x0, symName: '__ZN7ndarray3zip16Zip$LT$P$C$D$GT$23for_each_core_strided_c17h0a4b31a3cdc643e2E', symObjAddr: 0x8CC, symBinAddr: 0x4A7C, symSize: 0x33C }
  - { offsetInCU: 0x12B0, offset: 0x1509F, size: 0x8, addend: 0x0, symName: '__ZN7ndarray3zip16Zip$LT$P$C$D$GT$23for_each_core_strided_c17h75d93bdcabf95807E', symObjAddr: 0xC08, symBinAddr: 0x4DB8, symSize: 0x33C }
  - { offsetInCU: 0x145D, offset: 0x1524C, size: 0x8, addend: 0x0, symName: '__ZN7ndarray3zip16Zip$LT$P$C$D$GT$23for_each_core_strided_c17hc13f075a2c6a5b9dE', symObjAddr: 0xF44, symBinAddr: 0x50F4, symSize: 0x33C }
  - { offsetInCU: 0x160A, offset: 0x153F9, size: 0x8, addend: 0x0, symName: '__ZN7ndarray3zip16Zip$LT$P$C$D$GT$23for_each_core_strided_f17h08ff20b5e9611287E', symObjAddr: 0x1280, symBinAddr: 0x5430, symSize: 0x248 }
  - { offsetInCU: 0x179F, offset: 0x1558E, size: 0x8, addend: 0x0, symName: '__ZN7ndarray3zip16Zip$LT$P$C$D$GT$23for_each_core_strided_f17h5278a2c2e98a2e5eE', symObjAddr: 0x14C8, symBinAddr: 0x5678, symSize: 0x248 }
  - { offsetInCU: 0x1934, offset: 0x15723, size: 0x8, addend: 0x0, symName: '__ZN7ndarray3zip16Zip$LT$P$C$D$GT$23for_each_core_strided_f17h83cc75fa23014a42E', symObjAddr: 0x1710, symBinAddr: 0x58C0, symSize: 0x248 }
  - { offsetInCU: 0x1AC9, offset: 0x158B8, size: 0x8, addend: 0x0, symName: '__ZN7ndarray3zip16Zip$LT$P$C$D$GT$24for_each_core_contiguous17h072def9666613950E', symObjAddr: 0x1958, symBinAddr: 0x5B08, symSize: 0x13C }
  - { offsetInCU: 0x1BB1, offset: 0x159A0, size: 0x8, addend: 0x0, symName: '__ZN7ndarray3zip16Zip$LT$P$C$D$GT$24for_each_core_contiguous17h375bed9653b050daE', symObjAddr: 0x1A94, symBinAddr: 0x5C44, symSize: 0x13C }
  - { offsetInCU: 0x1C99, offset: 0x15A88, size: 0x8, addend: 0x0, symName: '__ZN7ndarray3zip16Zip$LT$P$C$D$GT$24for_each_core_contiguous17h9338fe3e4b603623E', symObjAddr: 0x1BD0, symBinAddr: 0x5D80, symSize: 0x13C }
  - { offsetInCU: 0x1DE4, offset: 0x15BD3, size: 0x8, addend: 0x0, symName: '__ZN7ndarray3zip16Zip$LT$P$C$D$GT$5inner17h3068c63958a3be32E', symObjAddr: 0x1D0C, symBinAddr: 0x5EBC, symSize: 0x228 }
  - { offsetInCU: 0x1EE0, offset: 0x15CCF, size: 0x8, addend: 0x0, symName: '__ZN7ndarray3zip16Zip$LT$P$C$D$GT$5inner17h6fb0850a8bfea2e9E', symObjAddr: 0x1F34, symBinAddr: 0x60E4, symSize: 0x200 }
  - { offsetInCU: 0x1FCF, offset: 0x15DBE, size: 0x8, addend: 0x0, symName: '__ZN7ndarray3zip16Zip$LT$P$C$D$GT$5inner17hea184657f8755d12E', symObjAddr: 0x2134, symBinAddr: 0x62E4, symSize: 0x228 }
  - { offsetInCU: 0x20B1, offset: 0x15EA0, size: 0x8, addend: 0x0, symName: '__ZN7ndarray3zip30Zip$LT$$LP$P1$C$P2$RP$$C$D$GT$8for_each17h04bf2633073e9c08E', symObjAddr: 0x235C, symBinAddr: 0x650C, symSize: 0x3C }
  - { offsetInCU: 0x2108, offset: 0x15EF7, size: 0x8, addend: 0x0, symName: '__ZN7ndarray3zip30Zip$LT$$LP$P1$C$P2$RP$$C$D$GT$8for_each17h4bc64e9f5aa0738eE', symObjAddr: 0x2398, symBinAddr: 0x6548, symSize: 0x3C }
  - { offsetInCU: 0x215F, offset: 0x15F4E, size: 0x8, addend: 0x0, symName: '__ZN7ndarray3zip30Zip$LT$$LP$P1$C$P2$RP$$C$D$GT$8for_each17h7d654e9c9386a6e5E', symObjAddr: 0x23D4, symBinAddr: 0x6584, symSize: 0x40 }
  - { offsetInCU: 0x1E, offset: 0x15FE8, size: 0x8, addend: 0x0, symName: __ZN4pyo33gil8GILGuard6python17haf949cb69d764dcfE, symObjAddr: 0x0, symBinAddr: 0x6700, symSize: 0x20 }
  - { offsetInCU: 0xCE, offset: 0x16098, size: 0x8, addend: 0x0, symName: __ZN4pyo33gil8GILGuard6python17haf949cb69d764dcfE, symObjAddr: 0x0, symBinAddr: 0x6700, symSize: 0x20 }
  - { offsetInCU: 0x1E, offset: 0x160D8, size: 0x8, addend: 0x0, symName: '__ZN150_$LT$nalgebra..base..default_allocator..DefaultAllocator$u20$as$u20$nalgebra..base..allocator..Allocator$LT$nalgebra..base..dimension..Dyn$C$C$GT$$GT$22allocate_from_iterator17h7bcb0c4a169a6b1cE', symObjAddr: 0x0, symBinAddr: 0x6720, symSize: 0x164 }
  - { offsetInCU: 0x3F, offset: 0x160F9, size: 0x8, addend: 0x0, symName: '__ZN150_$LT$nalgebra..base..default_allocator..DefaultAllocator$u20$as$u20$nalgebra..base..allocator..Allocator$LT$nalgebra..base..dimension..Dyn$C$C$GT$$GT$22allocate_from_iterator17h7bcb0c4a169a6b1cE', symObjAddr: 0x0, symBinAddr: 0x6720, symSize: 0x164 }
  - { offsetInCU: 0x1E, offset: 0x16433, size: 0x8, addend: 0x0, symName: _PyInit__native, symObjAddr: 0x0, symBinAddr: 0x6884, symSize: 0x34 }
  - { offsetInCU: 0x42, offset: 0x16457, size: 0x8, addend: 0x0, symName: __ZN7_native7_native9_PYO3_DEF17hc55d95f1cbaeb1a5E, symObjAddr: 0x90, symBinAddr: 0x7744C8, symSize: 0x0 }
  - { offsetInCU: 0x4F, offset: 0x16464, size: 0x8, addend: 0x0, symName: _PyInit__native, symObjAddr: 0x0, symBinAddr: 0x6884, symSize: 0x34 }
  - { offsetInCU: 0x1E, offset: 0x1849A, size: 0x8, addend: 0x0, symName: '__ZN7_native7_native11__pyo3_init28_$u7b$$u7b$closure$u7d$$u7d$17h422f5143cef6c9e4E', symObjAddr: 0x0, symBinAddr: 0x68B8, symSize: 0x30 }
  - { offsetInCU: 0x1455, offset: 0x198D1, size: 0x8, addend: 0x0, symName: '__ZN7_native7_native11__pyo3_init28_$u7b$$u7b$closure$u7d$$u7d$17h422f5143cef6c9e4E', symObjAddr: 0x0, symBinAddr: 0x68B8, symSize: 0x30 }
  - { offsetInCU: 0x1E, offset: 0x1A1E2, size: 0x8, addend: 0x0, symName: '__ZN87_$LT$T$u20$as$u20$alloc..slice..$LT$impl$u20$$u5b$T$u5d$$GT$..to_vec_in..ConvertVec$GT$6to_vec17h7aeba4531b1088adE', symObjAddr: 0x0, symBinAddr: 0x68E8, symSize: 0xFC }
  - { offsetInCU: 0x290, offset: 0x1A454, size: 0x8, addend: 0x0, symName: '__ZN87_$LT$T$u20$as$u20$alloc..slice..$LT$impl$u20$$u5b$T$u5d$$GT$..to_vec_in..ConvertVec$GT$6to_vec17h7aeba4531b1088adE', symObjAddr: 0x0, symBinAddr: 0x68E8, symSize: 0xFC }
  - { offsetInCU: 0x1E, offset: 0x1AA8D, size: 0x8, addend: 0x0, symName: __ZN4core4sync6atomic11AtomicUsize3new17h2c9763c98875bd31E, symObjAddr: 0x0, symBinAddr: 0x69E4, symSize: 0x18 }
  - { offsetInCU: 0x93, offset: 0x1AB02, size: 0x8, addend: 0x0, symName: __ZN4core4sync6atomic11AtomicUsize3new17h2c9763c98875bd31E, symObjAddr: 0x0, symBinAddr: 0x69E4, symSize: 0x18 }
  - { offsetInCU: 0x1E, offset: 0x1AB43, size: 0x8, addend: 0x0, symName: '__ZN4core3ptr8non_null16NonNull$LT$T$GT$13new_unchecked18precondition_check17h63d58b7a839c98b8E', symObjAddr: 0x0, symBinAddr: 0x69FC, symSize: 0x58 }
  - { offsetInCU: 0x44, offset: 0x1AB69, size: 0x8, addend: 0x0, symName: '__ZN4core3ptr8non_null16NonNull$LT$T$GT$13new_unchecked18precondition_check17h63d58b7a839c98b8E', symObjAddr: 0x0, symBinAddr: 0x69FC, symSize: 0x58 }
  - { offsetInCU: 0x1E, offset: 0x1AC1A, size: 0x8, addend: 0x0, symName: '__ZN4core3ptr7mut_ptr31_$LT$impl$u20$$BP$mut$u20$T$GT$6offset18precondition_check17hb7319e84a51d1b8fE', symObjAddr: 0x0, symBinAddr: 0x6A54, symSize: 0xC4 }
  - { offsetInCU: 0xD4, offset: 0x1ACD0, size: 0x8, addend: 0x0, symName: '__ZN4core3ptr7mut_ptr31_$LT$impl$u20$$BP$mut$u20$T$GT$6offset18precondition_check17hb7319e84a51d1b8fE', symObjAddr: 0x0, symBinAddr: 0x6A54, symSize: 0xC4 }
  - { offsetInCU: 0x1E, offset: 0x1B0C3, size: 0x8, addend: 0x0, symName: __ZN4pyo310conversion15IntoPyObjectExt17into_bound_py_any17heb1d7f5bf61be259E, symObjAddr: 0x0, symBinAddr: 0x6B18, symSize: 0xE4 }
  - { offsetInCU: 0x86B, offset: 0x1B910, size: 0x8, addend: 0x0, symName: '__ZN50_$LT$T$u20$as$u20$core..convert..Into$LT$U$GT$$GT$4into17h80bc4560ff4eed75E', symObjAddr: 0x20C, symBinAddr: 0x6D24, symSize: 0x14 }
  - { offsetInCU: 0x8AC, offset: 0x1B951, size: 0x8, addend: 0x0, symName: '__ZN50_$LT$T$u20$as$u20$core..convert..Into$LT$U$GT$$GT$4into17hfa0633f7277426d3E', symObjAddr: 0x220, symBinAddr: 0x6D38, symSize: 0x14 }
  - { offsetInCU: 0x22A8, offset: 0x1D34D, size: 0x8, addend: 0x0, symName: __ZN4pyo310conversion15IntoPyObjectExt17into_bound_py_any17heb1d7f5bf61be259E, symObjAddr: 0x0, symBinAddr: 0x6B18, symSize: 0xE4 }
  - { offsetInCU: 0x2341, offset: 0x1D3E6, size: 0x8, addend: 0x0, symName: __ZN4pyo311type_object10PyTypeInfo10is_type_of17h0a729623467ced86E, symObjAddr: 0xE4, symBinAddr: 0x6BFC, symSize: 0x50 }
  - { offsetInCU: 0x2376, offset: 0x1D41B, size: 0x8, addend: 0x0, symName: __ZN4pyo311type_object10PyTypeInfo10is_type_of17h10c25a4c05e78596E, symObjAddr: 0x134, symBinAddr: 0x6C4C, symSize: 0x50 }
  - { offsetInCU: 0x23B1, offset: 0x1D456, size: 0x8, addend: 0x0, symName: '__ZN52_$LT$T$u20$as$u20$pyo3..type_object..PyTypeCheck$GT$10type_check17ha5b6c5b46ab3a55fE', symObjAddr: 0x234, symBinAddr: 0x6D4C, symSize: 0x24 }
  - { offsetInCU: 0x23E6, offset: 0x1D48B, size: 0x8, addend: 0x0, symName: '__ZN52_$LT$T$u20$as$u20$pyo3..type_object..PyTypeCheck$GT$10type_check17hcb27586608d3e6cdE', symObjAddr: 0x258, symBinAddr: 0x6D70, symSize: 0x24 }
  - { offsetInCU: 0x2427, offset: 0x1D4CC, size: 0x8, addend: 0x0, symName: '__ZN4pyo312pyclass_init130_$LT$impl$u20$pyo3..impl_..callback..IntoPyCallbackOutput$LT$pyo3..pyclass_init..PyClassInitializer$LT$T$GT$$GT$$u20$for$u20$U$GT$7convert17h4060dc3e3eb1aee4E', symObjAddr: 0x184, symBinAddr: 0x6C9C, symSize: 0x68 }
  - { offsetInCU: 0x25D0, offset: 0x1D675, size: 0x8, addend: 0x0, symName: __ZN4pyo35impl_7pyclass11PyClassImpl11dict_offset17h0d62995ba7f5db3cE, symObjAddr: 0x1EC, symBinAddr: 0x6D04, symSize: 0x8 }
  - { offsetInCU: 0x25F7, offset: 0x1D69C, size: 0x8, addend: 0x0, symName: __ZN4pyo35impl_7pyclass11PyClassImpl11dict_offset17h31e22994d3dc0b7cE, symObjAddr: 0x1F4, symBinAddr: 0x6D0C, symSize: 0x8 }
  - { offsetInCU: 0x261E, offset: 0x1D6C3, size: 0x8, addend: 0x0, symName: __ZN4pyo35impl_7pyclass11PyClassImpl15weaklist_offset17h59422156fb92ce57E, symObjAddr: 0x1FC, symBinAddr: 0x6D14, symSize: 0x8 }
  - { offsetInCU: 0x2645, offset: 0x1D6EA, size: 0x8, addend: 0x0, symName: __ZN4pyo35impl_7pyclass11PyClassImpl15weaklist_offset17hcaee41231214291eE, symObjAddr: 0x204, symBinAddr: 0x6D1C, symSize: 0x8 }
  - { offsetInCU: 0x29BE, offset: 0x1DA63, size: 0x8, addend: 0x0, symName: '__ZN7_native8py_sweep16PyBatchSimulator13batch_defocus28_$u7b$$u7b$closure$u7d$$u7d$17h19089129af1f2172E', symObjAddr: 0x27C, symBinAddr: 0x6D94, symSize: 0x54 }
  - { offsetInCU: 0x29FE, offset: 0x1DAA3, size: 0x8, addend: 0x0, symName: '__ZN7_native8py_sweep16PyBatchSimulator13batch_defocus28_$u7b$$u7b$closure$u7d$$u7d$17h47d28537fea75cf1E', symObjAddr: 0x2D0, symBinAddr: 0x6DE8, symSize: 0x88 }
  - { offsetInCU: 0x2A85, offset: 0x1DB2A, size: 0x8, addend: 0x0, symName: '__ZN7_native8py_sweep16PyBatchSimulator14process_window28_$u7b$$u7b$closure$u7d$$u7d$17ha55153a6166ca992E', symObjAddr: 0x358, symBinAddr: 0x6E70, symSize: 0x90 }
  - { offsetInCU: 0x2B19, offset: 0x1DBBE, size: 0x8, addend: 0x0, symName: '__ZN7_native8py_sweep16PyBatchSimulator3new28_$u7b$$u7b$closure$u7d$$u7d$17h3642d4863e7beec0E', symObjAddr: 0x474, symBinAddr: 0x6F8C, symSize: 0x14 }
  - { offsetInCU: 0x2B4F, offset: 0x1DBF4, size: 0x8, addend: 0x0, symName: '__ZN7_native8py_sweep16PyBatchSimulator3new28_$u7b$$u7b$closure$u7d$$u7d$17h6d8327a2384f7e20E', symObjAddr: 0x488, symBinAddr: 0x6FA0, symSize: 0x6C }
  - { offsetInCU: 0x2BA0, offset: 0x1DC45, size: 0x8, addend: 0x0, symName: '__ZN7_native8py_sweep16PyBatchSimulator20__pymethod___new____28_$u7b$$u7b$closure$u7d$$u7d$17hcf3aced3243581dfE', symObjAddr: 0x3E8, symBinAddr: 0x6F00, symSize: 0x28 }
  - { offsetInCU: 0x2BC8, offset: 0x1DC6D, size: 0x8, addend: 0x0, symName: '__ZN7_native8py_sweep16PyBatchSimulator20__pymethod___new____28_$u7b$$u7b$closure$u7d$$u7d$17hd817710256d68233E', symObjAddr: 0x410, symBinAddr: 0x6F28, symSize: 0x18 }
  - { offsetInCU: 0x2C04, offset: 0x1DCA9, size: 0x8, addend: 0x0, symName: '__ZN7_native8py_sweep16PyBatchSimulator27__pymethod_process_window__28_$u7b$$u7b$closure$u7d$$u7d$17ha7ca05cb4bb44456E', symObjAddr: 0x428, symBinAddr: 0x6F40, symSize: 0x14 }
  - { offsetInCU: 0x2C2C, offset: 0x1DCD1, size: 0x8, addend: 0x0, symName: '__ZN7_native8py_sweep16PyBatchSimulator27__pymethod_process_window__28_$u7b$$u7b$closure$u7d$$u7d$17hd0821882ca55c885E', symObjAddr: 0x43C, symBinAddr: 0x6F54, symSize: 0x1C }
  - { offsetInCU: 0x2C54, offset: 0x1DCF9, size: 0x8, addend: 0x0, symName: '__ZN7_native8py_sweep16PyBatchSimulator27__pymethod_process_window__28_$u7b$$u7b$closure$u7d$$u7d$17hf97ea881a4f85d1aE', symObjAddr: 0x458, symBinAddr: 0x6F70, symSize: 0x1C }
  - { offsetInCU: 0x2C9D, offset: 0x1DD42, size: 0x8, addend: 0x0, symName: '__ZN89_$LT$_native..py_sweep..PyBatchSimulator$u20$as$u20$pyo3..impl_..pyclass..PyClassImpl$GT$3doc28_$u7b$$u7b$closure$u7d$$u7d$17he7b76139588312b0E', symObjAddr: 0x4F4, symBinAddr: 0x700C, symSize: 0x54 }
  - { offsetInCU: 0x2CF5, offset: 0x1DD9A, size: 0x8, addend: 0x0, symName: '__ZN94_$LT$_native..py_sweep..PyProcessWindowResult$u20$as$u20$pyo3..impl_..pyclass..PyClassImpl$GT$3doc28_$u7b$$u7b$closure$u7d$$u7d$17hb5b9a3456c41d4f3E', symObjAddr: 0x548, symBinAddr: 0x7060, symSize: 0x58 }
  - { offsetInCU: 0x1E, offset: 0x1F4CF, size: 0x8, addend: 0x0, symName: __ZN4core3fmt2rt8Argument9new_debug17hb4e273fc7d3caf56E, symObjAddr: 0x0, symBinAddr: 0x70B8, symSize: 0x2C }
  - { offsetInCU: 0x3BC, offset: 0x1F86D, size: 0x8, addend: 0x0, symName: __ZN4core3fmt2rt8Argument9new_debug17hb4e273fc7d3caf56E, symObjAddr: 0x0, symBinAddr: 0x70B8, symSize: 0x2C }
  - { offsetInCU: 0x1E, offset: 0x1F8B6, size: 0x8, addend: 0x0, symName: '__ZN76_$LT$ndarray..ArrayBase$LT$S$C$D$GT$$u20$as$u20$numpy..convert..ArrayExt$GT$11npy_strides17h7b92d23343ba596eE', symObjAddr: 0x0, symBinAddr: 0x70E4, symSize: 0x170 }
  - { offsetInCU: 0x15F9, offset: 0x20E91, size: 0x8, addend: 0x0, symName: '__ZN76_$LT$ndarray..ArrayBase$LT$S$C$D$GT$$u20$as$u20$numpy..convert..ArrayExt$GT$11npy_strides17h7b92d23343ba596eE', symObjAddr: 0x0, symBinAddr: 0x70E4, symSize: 0x170 }
  - { offsetInCU: 0x16AA, offset: 0x20F42, size: 0x8, addend: 0x0, symName: '__ZN76_$LT$ndarray..ArrayBase$LT$S$C$D$GT$$u20$as$u20$numpy..convert..ArrayExt$GT$5order17h4c46f7d8083cc914E', symObjAddr: 0x170, symBinAddr: 0x7254, symSize: 0x11C }
  - { offsetInCU: 0x16F7, offset: 0x20F8F, size: 0x8, addend: 0x0, symName: '__ZN77_$LT$ndarray..ArrayBase$LT$S$C$D$GT$$u20$as$u20$numpy..convert..ToPyArray$GT$10to_pyarray17hae605f9df6f5a220E', symObjAddr: 0x28C, symBinAddr: 0x7370, symSize: 0x3C0 }
  - { offsetInCU: 0x28EA, offset: 0x22182, size: 0x8, addend: 0x0, symName: '__ZN7ndarray12impl_methods49_$LT$impl$u20$ndarray..ArrayBase$LT$S$C$D$GT$$GT$11map_inplace17h4405c2cb975bef13E', symObjAddr: 0x64C, symBinAddr: 0x7730, symSize: 0x170 }
  - { offsetInCU: 0x2B0A, offset: 0x223A2, size: 0x8, addend: 0x0, symName: '__ZN7ndarray12impl_methods49_$LT$impl$u20$ndarray..ArrayBase$LT$S$C$D$GT$$GT$12zip_mut_with17hb900d4d7fe720366E', symObjAddr: 0x7BC, symBinAddr: 0x78A0, symSize: 0x4F4 }
  - { offsetInCU: 0x2C73, offset: 0x2250B, size: 0x8, addend: 0x0, symName: '__ZN7ndarray12impl_methods49_$LT$impl$u20$ndarray..ArrayBase$LT$S$C$D$GT$$GT$13reversed_axes17h29fac8e3cda7cc3bE', symObjAddr: 0xCB0, symBinAddr: 0x7D94, symSize: 0x98 }
  - { offsetInCU: 0x2CB2, offset: 0x2254A, size: 0x8, addend: 0x0, symName: '__ZN7ndarray12impl_methods49_$LT$impl$u20$ndarray..ArrayBase$LT$S$C$D$GT$$GT$17zip_mut_with_elem17haffdf2e73b38bcbfE', symObjAddr: 0xD48, symBinAddr: 0x7E2C, symSize: 0x30 }
  - { offsetInCU: 0x2D27, offset: 0x225BF, size: 0x8, addend: 0x0, symName: '__ZN7ndarray12impl_methods49_$LT$impl$u20$ndarray..ArrayBase$LT$S$C$D$GT$$GT$18is_standard_layout17h0dbc8d9b9d406a69E', symObjAddr: 0xD78, symBinAddr: 0x7E5C, symSize: 0x30 }
  - { offsetInCU: 0x2D72, offset: 0x2260A, size: 0x8, addend: 0x0, symName: '__ZN7ndarray12impl_methods49_$LT$impl$u20$ndarray..ArrayBase$LT$S$C$D$GT$$GT$18is_standard_layout17hb6304ee1747c3ff3E', symObjAddr: 0xDA8, symBinAddr: 0x7E8C, symSize: 0x30 }
  - { offsetInCU: 0x2DF8, offset: 0x22690, size: 0x8, addend: 0x0, symName: '__ZN7ndarray12impl_methods49_$LT$impl$u20$ndarray..ArrayBase$LT$S$C$D$GT$$GT$19pointer_is_inbounds17h826ff3d595391a61E', symObjAddr: 0xDD8, symBinAddr: 0x7EBC, symSize: 0x38 }
  - { offsetInCU: 0x2F32, offset: 0x227CA, size: 0x8, addend: 0x0, symName: '__ZN7ndarray12impl_methods49_$LT$impl$u20$ndarray..ArrayBase$LT$S$C$D$GT$$GT$23zip_mut_with_same_shape17h6e956f7f51b27cb4E', symObjAddr: 0xE10, symBinAddr: 0x7EF4, symSize: 0x614 }
  - { offsetInCU: 0x3138, offset: 0x229D0, size: 0x8, addend: 0x0, symName: '__ZN7ndarray12impl_methods49_$LT$impl$u20$ndarray..ArrayBase$LT$S$C$D$GT$$GT$7strides17hb0fc2015ed1f05eaE', symObjAddr: 0x1424, symBinAddr: 0x8508, symSize: 0x48 }
  - { offsetInCU: 0x3192, offset: 0x22A2A, size: 0x8, addend: 0x0, symName: '__ZN7ndarray12impl_methods49_$LT$impl$u20$ndarray..ArrayBase$LT$S$C$D$GT$$GT$8raw_view17h71f40d7a79112781E', symObjAddr: 0x146C, symBinAddr: 0x8550, symSize: 0xA4 }
  - { offsetInCU: 0x31E0, offset: 0x22A78, size: 0x8, addend: 0x0, symName: '__ZN7ndarray14impl_raw_views91_$LT$impl$u20$ndarray..ArrayBase$LT$ndarray..RawViewRepr$LT$$BP$const$u20$A$GT$$C$D$GT$$GT$3new17h0f9a26fc1dca3502E', symObjAddr: 0x1510, symBinAddr: 0x85F4, symSize: 0xC4 }
  - { offsetInCU: 0x3246, offset: 0x22ADE, size: 0x8, addend: 0x0, symName: '__ZN7ndarray26impl_internal_constructors110_$LT$impl$u20$ndarray..ArrayBase$LT$S$C$ndarray..dimension..dim..Dim$LT$$u5b$usize$u3b$$u20$1$u5d$$GT$$GT$$GT$13from_data_ptr17he90a1d7c412d31b6E', symObjAddr: 0x15D4, symBinAddr: 0x86B8, symSize: 0x15C }
  - { offsetInCU: 0x32D9, offset: 0x22B71, size: 0x8, addend: 0x0, symName: '__ZN7ndarray26impl_internal_constructors49_$LT$impl$u20$ndarray..ArrayBase$LT$S$C$D$GT$$GT$16with_strides_dim17h77af7f03fac9f91dE', symObjAddr: 0x1730, symBinAddr: 0x8814, symSize: 0x100 }
  - { offsetInCU: 0x3387, offset: 0x22C1F, size: 0x8, addend: 0x0, symName: '__ZN7ndarray6linalg11impl_linalg49_$LT$impl$u20$ndarray..ArrayBase$LT$S$C$D$GT$$GT$10scaled_add17h46288ead2a14b15dE', symObjAddr: 0x1830, symBinAddr: 0x8914, symSize: 0x30 }
  - { offsetInCU: 0x1E, offset: 0x22D17, size: 0x8, addend: 0x0, symName: __ZN7_native8py_sweep16PyBatchSimulator13batch_defocus17he0662740d9eb3a09E, symObjAddr: 0x0, symBinAddr: 0x8944, symSize: 0xD4 }
  - { offsetInCU: 0x4C, offset: 0x22D45, size: 0x8, addend: 0x0, symName: '__ZN7_native8py_sweep190_$LT$impl$u20$pyo3..impl_..pyclass..PyMethods$LT$_native..py_sweep..PyBatchSimulator$GT$$u20$for$u20$pyo3..impl_..pyclass..PyClassImplCollector$LT$_native..py_sweep..PyBatchSimulator$GT$$GT$10py_methods5ITEMS17hd3b5c997b8bad10dE', symObjAddr: 0x3258, symBinAddr: 0x748A08, symSize: 0x0 }
  - { offsetInCU: 0x5E, offset: 0x22D57, size: 0x8, addend: 0x0, symName: '__ZN7_native8py_sweep190_$LT$impl$u20$pyo3..impl_..pyclass..PyMethods$LT$_native..py_sweep..PyBatchSimulator$GT$$u20$for$u20$pyo3..impl_..pyclass..PyClassImplCollector$LT$_native..py_sweep..PyBatchSimulator$GT$$GT$10py_methods5ITEMS10trampoline17h3a5ae95f01f2ce36E', symObjAddr: 0x1B54, symBinAddr: 0xA498, symSize: 0x50 }
  - { offsetInCU: 0xB4, offset: 0x22DAD, size: 0x8, addend: 0x0, symName: '__ZN7_native8py_sweep190_$LT$impl$u20$pyo3..impl_..pyclass..PyMethods$LT$_native..py_sweep..PyBatchSimulator$GT$$u20$for$u20$pyo3..impl_..pyclass..PyClassImplCollector$LT$_native..py_sweep..PyBatchSimulator$GT$$GT$10py_methods5ITEMS10trampoline17h99eb3b274c00ce5aE', symObjAddr: 0x1BA4, symBinAddr: 0xA4E8, symSize: 0x50 }
  - { offsetInCU: 0x10A, offset: 0x22E03, size: 0x8, addend: 0x0, symName: '__ZN7_native8py_sweep190_$LT$impl$u20$pyo3..impl_..pyclass..PyMethods$LT$_native..py_sweep..PyBatchSimulator$GT$$u20$for$u20$pyo3..impl_..pyclass..PyClassImplCollector$LT$_native..py_sweep..PyBatchSimulator$GT$$GT$10py_methods5ITEMS10trampoline17hb34aca00f2b4e641E', symObjAddr: 0x1BF4, symBinAddr: 0xA538, symSize: 0x4C }
  - { offsetInCU: 0x16C, offset: 0x22E65, size: 0x8, addend: 0x0, symName: '__ZN7_native8py_sweep200_$LT$impl$u20$pyo3..impl_..pyclass..PyMethods$LT$_native..py_sweep..PyProcessWindowResult$GT$$u20$for$u20$pyo3..impl_..pyclass..PyClassImplCollector$LT$_native..py_sweep..PyProcessWindowResult$GT$$GT$10py_methods5ITEMS17h5881c08b743f5081E', symObjAddr: 0x33C8, symBinAddr: 0x748B78, symSize: 0x0 }
  - { offsetInCU: 0x17E, offset: 0x22E77, size: 0x8, addend: 0x0, symName: '__ZN7_native8py_sweep200_$LT$impl$u20$pyo3..impl_..pyclass..PyMethods$LT$_native..py_sweep..PyProcessWindowResult$GT$$u20$for$u20$pyo3..impl_..pyclass..PyClassImplCollector$LT$_native..py_sweep..PyProcessWindowResult$GT$$GT$10py_methods5ITEMS10trampoline17h0c22997835a39610E', symObjAddr: 0x1C40, symBinAddr: 0xA584, symSize: 0x44 }
  - { offsetInCU: 0x1B8, offset: 0x22EB1, size: 0x8, addend: 0x0, symName: '__ZN7_native8py_sweep200_$LT$impl$u20$pyo3..impl_..pyclass..PyMethods$LT$_native..py_sweep..PyProcessWindowResult$GT$$u20$for$u20$pyo3..impl_..pyclass..PyClassImplCollector$LT$_native..py_sweep..PyProcessWindowResult$GT$$GT$10py_methods5ITEMS10trampoline17h8c29a1b9fbb7ea74E', symObjAddr: 0x1C84, symBinAddr: 0xA5C8, symSize: 0x44 }
  - { offsetInCU: 0x1F2, offset: 0x22EEB, size: 0x8, addend: 0x0, symName: '__ZN7_native8py_sweep200_$LT$impl$u20$pyo3..impl_..pyclass..PyMethods$LT$_native..py_sweep..PyProcessWindowResult$GT$$u20$for$u20$pyo3..impl_..pyclass..PyClassImplCollector$LT$_native..py_sweep..PyProcessWindowResult$GT$$GT$10py_methods5ITEMS10trampoline17hf724972d0fe91b7aE', symObjAddr: 0x1CC8, symBinAddr: 0xA60C, symSize: 0x3C }
  - { offsetInCU: 0x238, offset: 0x22F31, size: 0x8, addend: 0x0, symName: '__ZN89_$LT$_native..py_sweep..PyBatchSimulator$u20$as$u20$pyo3..impl_..pyclass..PyClassImpl$GT$10items_iter15INTRINSIC_ITEMS17h2170b7b3e6449a78E', symObjAddr: 0x2EA8, symBinAddr: 0x676158, symSize: 0x0 }
  - { offsetInCU: 0x258, offset: 0x22F51, size: 0x8, addend: 0x0, symName: '__ZN89_$LT$_native..py_sweep..PyBatchSimulator$u20$as$u20$pyo3..impl_..pyclass..PyClassImpl$GT$16lazy_type_object11TYPE_OBJECT17hc8aeecc73feaa1a2E', symObjAddr: 0x36A0, symBinAddr: 0x774558, symSize: 0x0 }
  - { offsetInCU: 0x278, offset: 0x22F71, size: 0x8, addend: 0x0, symName: '__ZN89_$LT$_native..py_sweep..PyBatchSimulator$u20$as$u20$pyo3..impl_..pyclass..PyClassImpl$GT$3doc3DOC17h8a69f29530cfcf4fE', symObjAddr: 0x3700, symBinAddr: 0x7745B8, symSize: 0x0 }
  - { offsetInCU: 0x286, offset: 0x22F7F, size: 0x8, addend: 0x0, symName: '__ZN89_$LT$_native..py_sweep..PyBatchSimulator$u20$as$u20$pyo3..impl_..pyclass..PyClassImpl$GT$10items_iter17h2541e2ecb02e88b6E', symObjAddr: 0x27CC, symBinAddr: 0xB110, symSize: 0x38 }
  - { offsetInCU: 0x2C1, offset: 0x22FBA, size: 0x8, addend: 0x0, symName: '__ZN89_$LT$_native..py_sweep..PyBatchSimulator$u20$as$u20$pyo3..impl_..pyclass..PyClassImpl$GT$16lazy_type_object17h6ae34514fe91131aE', symObjAddr: 0x2804, symBinAddr: 0xB148, symSize: 0xC }
  - { offsetInCU: 0x2DE, offset: 0x22FD7, size: 0x8, addend: 0x0, symName: '__ZN89_$LT$_native..py_sweep..PyBatchSimulator$u20$as$u20$pyo3..impl_..pyclass..PyClassImpl$GT$3doc17hf4e485da55bd7122E', symObjAddr: 0x2810, symBinAddr: 0xB154, symSize: 0x3C }
  - { offsetInCU: 0x44D, offset: 0x23146, size: 0x8, addend: 0x0, symName: '__ZN94_$LT$_native..py_sweep..PyProcessWindowResult$u20$as$u20$pyo3..impl_..pyclass..PyClassImpl$GT$10items_iter15INTRINSIC_ITEMS17hb90de99e3c1d5303E', symObjAddr: 0x2EC8, symBinAddr: 0x676178, symSize: 0x0 }
  - { offsetInCU: 0x46D, offset: 0x23166, size: 0x8, addend: 0x0, symName: '__ZN94_$LT$_native..py_sweep..PyProcessWindowResult$u20$as$u20$pyo3..impl_..pyclass..PyClassImpl$GT$16lazy_type_object11TYPE_OBJECT17hac1224093df54498E', symObjAddr: 0x3720, symBinAddr: 0x7745D8, symSize: 0x0 }
  - { offsetInCU: 0x48D, offset: 0x23186, size: 0x8, addend: 0x0, symName: '__ZN94_$LT$_native..py_sweep..PyProcessWindowResult$u20$as$u20$pyo3..impl_..pyclass..PyClassImpl$GT$3doc3DOC17h13b3ab0d3d6d31d5E', symObjAddr: 0x3780, symBinAddr: 0x774638, symSize: 0x0 }
  - { offsetInCU: 0x49B, offset: 0x23194, size: 0x8, addend: 0x0, symName: '__ZN94_$LT$_native..py_sweep..PyProcessWindowResult$u20$as$u20$pyo3..impl_..pyclass..PyClassImpl$GT$10items_iter17h817897727f74e239E', symObjAddr: 0x28B0, symBinAddr: 0xB1F4, symSize: 0x38 }
  - { offsetInCU: 0x4D6, offset: 0x231CF, size: 0x8, addend: 0x0, symName: '__ZN94_$LT$_native..py_sweep..PyProcessWindowResult$u20$as$u20$pyo3..impl_..pyclass..PyClassImpl$GT$16lazy_type_object17h0e6a86ee0e3ad489E', symObjAddr: 0x28E8, symBinAddr: 0xB22C, symSize: 0xC }
  - { offsetInCU: 0x4F3, offset: 0x231EC, size: 0x8, addend: 0x0, symName: '__ZN94_$LT$_native..py_sweep..PyProcessWindowResult$u20$as$u20$pyo3..impl_..pyclass..PyClassImpl$GT$3doc17h18d5b432bd7071d4E', symObjAddr: 0x28F4, symBinAddr: 0xB238, symSize: 0x3C }
  - { offsetInCU: 0x66E, offset: 0x23367, size: 0x8, addend: 0x0, symName: '__ZN85_$LT$_native..py_sweep..PyBatchSimulator$u20$as$u20$pyo3..type_object..PyTypeInfo$GT$15type_object_raw17h6fbcadd33ae03304E', symObjAddr: 0x27A8, symBinAddr: 0xB0EC, symSize: 0x24 }
  - { offsetInCU: 0x6AB, offset: 0x233A4, size: 0x8, addend: 0x0, symName: '__ZN90_$LT$_native..py_sweep..PyProcessWindowResult$u20$as$u20$pyo3..type_object..PyTypeInfo$GT$15type_object_raw17h68872b46e48c634fE', symObjAddr: 0x284C, symBinAddr: 0xB190, symSize: 0x24 }
  - { offsetInCU: 0x6E8, offset: 0x233E1, size: 0x8, addend: 0x0, symName: '__ZN91_$LT$_native..py_sweep..PyProcessWindowResult$u20$as$u20$pyo3..conversion..IntoPyObject$GT$13into_pyobject17h5d71f8a29c8705fbE', symObjAddr: 0x2870, symBinAddr: 0xB1B4, symSize: 0x40 }
  - { offsetInCU: 0x563A, offset: 0x28333, size: 0x8, addend: 0x0, symName: __ZN7_native8py_sweep16PyBatchSimulator13batch_defocus17he0662740d9eb3a09E, symObjAddr: 0x0, symBinAddr: 0x8944, symSize: 0xD4 }
  - { offsetInCU: 0x56A1, offset: 0x2839A, size: 0x8, addend: 0x0, symName: __ZN7_native8py_sweep16PyBatchSimulator14process_window17h7cace64d74b88298E, symObjAddr: 0xD4, symBinAddr: 0x8A18, symSize: 0xFC }
  - { offsetInCU: 0x5742, offset: 0x2843B, size: 0x8, addend: 0x0, symName: __ZN7_native8py_sweep16PyBatchSimulator20__pymethod___new____17h04671d4ad9952e9fE, symObjAddr: 0x1D0, symBinAddr: 0x8B14, symSize: 0x9C0 }
  - { offsetInCU: 0x59DC, offset: 0x286D5, size: 0x8, addend: 0x0, symName: __ZN7_native8py_sweep16PyBatchSimulator26__pymethod_batch_defocus__17h1d1dc6552f931811E, symObjAddr: 0xB90, symBinAddr: 0x94D4, symSize: 0x430 }
  - { offsetInCU: 0x5B6F, offset: 0x28868, size: 0x8, addend: 0x0, symName: __ZN7_native8py_sweep16PyBatchSimulator27__pymethod_process_window__17ha0e2c28cc7184c14E, symObjAddr: 0xFC0, symBinAddr: 0x9904, symSize: 0x938 }
  - { offsetInCU: 0x5E34, offset: 0x28B2D, size: 0x8, addend: 0x0, symName: __ZN7_native8py_sweep16PyBatchSimulator3new17h4d7b075ad012c4dcE, symObjAddr: 0x18F8, symBinAddr: 0xA23C, symSize: 0x25C }
  - { offsetInCU: 0x5EFA, offset: 0x28BF3, size: 0x8, addend: 0x0, symName: __ZN7_native8py_sweep21PyProcessWindowResult14depth_of_focus17hb8d8134523e314e6E, symObjAddr: 0x1D04, symBinAddr: 0xA648, symSize: 0x24 }
  - { offsetInCU: 0x5F1C, offset: 0x28C15, size: 0x8, addend: 0x0, symName: __ZN7_native8py_sweep21PyProcessWindowResult17exposure_latitude17h03eb25e78bef8893E, symObjAddr: 0x1D28, symBinAddr: 0xA66C, symSize: 0x24 }
  - { offsetInCU: 0x5F3E, offset: 0x28C37, size: 0x8, addend: 0x0, symName: __ZN7_native8py_sweep21PyProcessWindowResult21__pymethod___repr____17h3931c78363a60319E, symObjAddr: 0x1D4C, symBinAddr: 0xA690, symSize: 0x178 }
  - { offsetInCU: 0x5FF8, offset: 0x28CF1, size: 0x8, addend: 0x0, symName: __ZN7_native8py_sweep21PyProcessWindowResult22__pymethod_get_doses__17h5858d88f966764d3E, symObjAddr: 0x1EC4, symBinAddr: 0xA808, symSize: 0x134 }
  - { offsetInCU: 0x6086, offset: 0x28D7F, size: 0x8, addend: 0x0, symName: __ZN7_native8py_sweep21PyProcessWindowResult24__pymethod_get_focuses__17h517c82e3826f541bE, symObjAddr: 0x1FF8, symBinAddr: 0xA93C, symSize: 0x134 }
  - { offsetInCU: 0x6114, offset: 0x28E0D, size: 0x8, addend: 0x0, symName: __ZN7_native8py_sweep21PyProcessWindowResult26__pymethod_get_cd_matrix__17hf103653a87250935E, symObjAddr: 0x212C, symBinAddr: 0xAA70, symSize: 0x134 }
  - { offsetInCU: 0x61A2, offset: 0x28E9B, size: 0x8, addend: 0x0, symName: __ZN7_native8py_sweep21PyProcessWindowResult27__pymethod_depth_of_focus__17hf5e4a885ba8444d3E, symObjAddr: 0x2260, symBinAddr: 0xABA4, symSize: 0x214 }
  - { offsetInCU: 0x6292, offset: 0x28F8B, size: 0x8, addend: 0x0, symName: __ZN7_native8py_sweep21PyProcessWindowResult30__pymethod_exposure_latitude__17heca7c1c280b9ace4E, symObjAddr: 0x2474, symBinAddr: 0xADB8, symSize: 0x214 }
  - { offsetInCU: 0x638F, offset: 0x29088, size: 0x8, addend: 0x0, symName: __ZN7_native8py_sweep21PyProcessWindowResult5doses17h5807e73e11e299a2E, symObjAddr: 0x2688, symBinAddr: 0xAFCC, symSize: 0x28 }
  - { offsetInCU: 0x63CA, offset: 0x290C3, size: 0x8, addend: 0x0, symName: __ZN7_native8py_sweep21PyProcessWindowResult7focuses17h18f88cf45f90fd45E, symObjAddr: 0x26B0, symBinAddr: 0xAFF4, symSize: 0x28 }
  - { offsetInCU: 0x6405, offset: 0x290FE, size: 0x8, addend: 0x0, symName: __ZN7_native8py_sweep21PyProcessWindowResult8__repr__17hb67eb3275a3cfb5cE, symObjAddr: 0x26D8, symBinAddr: 0xB01C, symSize: 0xAC }
  - { offsetInCU: 0x647F, offset: 0x29178, size: 0x8, addend: 0x0, symName: __ZN7_native8py_sweep21PyProcessWindowResult9cd_matrix17h352145a2a2d28de4E, symObjAddr: 0x2784, symBinAddr: 0xB0C8, symSize: 0x24 }
  - { offsetInCU: 0x1E, offset: 0x293B5, size: 0x8, addend: 0x0, symName: __ZN4pyo33err5PyErr10from_state17h589fe34d1d13a900E, symObjAddr: 0x0, symBinAddr: 0xB274, symSize: 0x30 }
  - { offsetInCU: 0x1B10, offset: 0x2AEA7, size: 0x8, addend: 0x0, symName: __ZN4pyo33err5PyErr10from_state17h589fe34d1d13a900E, symObjAddr: 0x0, symBinAddr: 0xB274, symSize: 0x30 }
  - { offsetInCU: 0x1E, offset: 0x2AEE9, size: 0x8, addend: 0x0, symName: __ZN4core5alloc6layout6Layout25from_size_align_unchecked18precondition_check17h5378b2dc708ad8e6E, symObjAddr: 0x0, symBinAddr: 0xB2A4, symSize: 0xBC }
  - { offsetInCU: 0x446, offset: 0x2B311, size: 0x8, addend: 0x0, symName: __ZN4core5alloc6layout6Layout25from_size_align_unchecked18precondition_check17h5378b2dc708ad8e6E, symObjAddr: 0x0, symBinAddr: 0xB2A4, symSize: 0xBC }
  - { offsetInCU: 0x1E, offset: 0x2B574, size: 0x8, addend: 0x0, symName: '__ZN76_$LT$highuvlith_core..resist..ResistParams$u20$as$u20$core..clone..Clone$GT$5clone17h6609f97d4d91263aE', symObjAddr: 0x0, symBinAddr: 0xB360, symSize: 0x94 }
  - { offsetInCU: 0x3A, offset: 0x2B590, size: 0x8, addend: 0x0, symName: '__ZN76_$LT$highuvlith_core..resist..ResistParams$u20$as$u20$core..clone..Clone$GT$5clone17h6609f97d4d91263aE', symObjAddr: 0x0, symBinAddr: 0xB360, symSize: 0x94 }
  - { offsetInCU: 0x6C, offset: 0x2B5C2, size: 0x8, addend: 0x0, symName: '__ZN80_$LT$highuvlith_core..resist..DevelopmentModel$u20$as$u20$core..clone..Clone$GT$5clone17h8934e54cbbd25867E', symObjAddr: 0x94, symBinAddr: 0xB3F4, symSize: 0x9C }
  - { offsetInCU: 0x1E, offset: 0x2B77C, size: 0x8, addend: 0x0, symName: '__ZN73_$LT$highuvlith_core..types..GridConfig$u20$as$u20$core..clone..Clone$GT$5clone17ha9bc7787449048d5E', symObjAddr: 0x0, symBinAddr: 0xB490, symSize: 0x20 }
  - { offsetInCU: 0x3A, offset: 0x2B798, size: 0x8, addend: 0x0, symName: '__ZN73_$LT$highuvlith_core..types..GridConfig$u20$as$u20$core..clone..Clone$GT$5clone17ha9bc7787449048d5E', symObjAddr: 0x0, symBinAddr: 0xB490, symSize: 0x20 }
  - { offsetInCU: 0x1E, offset: 0x2B821, size: 0x8, addend: 0x0, symName: __ZN4pyo35impl_16extract_argument16extract_argument17h1d53e3d168f59ff1E, symObjAddr: 0x0, symBinAddr: 0xB4B0, symSize: 0x15C }
  - { offsetInCU: 0x3C60, offset: 0x2F463, size: 0x8, addend: 0x0, symName: __ZN4pyo35impl_16extract_argument16extract_argument17h1d53e3d168f59ff1E, symObjAddr: 0x0, symBinAddr: 0xB4B0, symSize: 0x15C }
  - { offsetInCU: 0x3CE5, offset: 0x2F4E8, size: 0x8, addend: 0x0, symName: __ZN4pyo35impl_16extract_argument16extract_argument17h35ef43c68b3894f1E, symObjAddr: 0x15C, symBinAddr: 0xB60C, symSize: 0x144 }
  - { offsetInCU: 0x3D6B, offset: 0x2F56E, size: 0x8, addend: 0x0, symName: __ZN4pyo35impl_16extract_argument16extract_argument17h39095907bc9923dcE, symObjAddr: 0x2A0, symBinAddr: 0xB750, symSize: 0x160 }
  - { offsetInCU: 0x3DF0, offset: 0x2F5F3, size: 0x8, addend: 0x0, symName: __ZN4pyo35impl_16extract_argument16extract_argument17h497f381e42827792E, symObjAddr: 0x400, symBinAddr: 0xB8B0, symSize: 0x15C }
  - { offsetInCU: 0x3E75, offset: 0x2F678, size: 0x8, addend: 0x0, symName: __ZN4pyo35impl_16extract_argument16extract_argument17h5e95ff716f7b7f67E, symObjAddr: 0x55C, symBinAddr: 0xBA0C, symSize: 0x144 }
  - { offsetInCU: 0x3EFB, offset: 0x2F6FE, size: 0x8, addend: 0x0, symName: __ZN4pyo35impl_16extract_argument16extract_argument17h7c67e065c3f62137E, symObjAddr: 0x6A0, symBinAddr: 0xBB50, symSize: 0x15C }
  - { offsetInCU: 0x3F80, offset: 0x2F783, size: 0x8, addend: 0x0, symName: __ZN4pyo35impl_16extract_argument16extract_argument17ha02807e91979490cE, symObjAddr: 0x7FC, symBinAddr: 0xBCAC, symSize: 0x138 }
  - { offsetInCU: 0x4005, offset: 0x2F808, size: 0x8, addend: 0x0, symName: __ZN4pyo35impl_16extract_argument16extract_argument17hb0727f45676e6a29E, symObjAddr: 0x934, symBinAddr: 0xBDE4, symSize: 0x150 }
  - { offsetInCU: 0x408A, offset: 0x2F88D, size: 0x8, addend: 0x0, symName: __ZN4pyo35impl_16extract_argument16extract_argument17hc16dc6d0414a794fE, symObjAddr: 0xA84, symBinAddr: 0xBF34, symSize: 0x138 }
  - { offsetInCU: 0x4290, offset: 0x2FA93, size: 0x8, addend: 0x0, symName: '__ZN4pyo35impl_16extract_argument19FunctionDescription26extract_arguments_fastcall28_$u7b$$u7b$closure$u7d$$u7d$17hd0ab39e0035f799cE', symObjAddr: 0x2008, symBinAddr: 0xD4B8, symSize: 0x24 }
  - { offsetInCU: 0x42E8, offset: 0x2FAEB, size: 0x8, addend: 0x0, symName: '__ZN4pyo35impl_16extract_argument19FunctionDescription28extract_arguments_tuple_dict28_$u7b$$u7b$closure$u7d$$u7d$17h3caba1bedd8de6b8E', symObjAddr: 0x250C, symBinAddr: 0xD9BC, symSize: 0x24 }
  - { offsetInCU: 0x4340, offset: 0x2FB43, size: 0x8, addend: 0x0, symName: '__ZN4pyo35impl_16extract_argument19FunctionDescription36find_keyword_parameter_in_positional28_$u7b$$u7b$closure$u7d$$u7d$17h8bdacec2b578c76fE', symObjAddr: 0x2530, symBinAddr: 0xD9E0, symSize: 0x48 }
  - { offsetInCU: 0x43A0, offset: 0x2FBA3, size: 0x8, addend: 0x0, symName: '__ZN4pyo35impl_16extract_argument19FunctionDescription38find_keyword_parameter_in_keyword_only28_$u7b$$u7b$closure$u7d$$u7d$17hc129cc6caff0ed96E', symObjAddr: 0x2578, symBinAddr: 0xDA28, symSize: 0x38 }
  - { offsetInCU: 0x43E2, offset: 0x2FBE5, size: 0x8, addend: 0x0, symName: __ZN4pyo35impl_16extract_argument19extract_pyclass_ref17h0254a710b4cd6eb6E, symObjAddr: 0x25B0, symBinAddr: 0xDA60, symSize: 0xC8 }
  - { offsetInCU: 0x4445, offset: 0x2FC48, size: 0x8, addend: 0x0, symName: __ZN4pyo35impl_16extract_argument19extract_pyclass_ref17h0283f404ff6ba019E, symObjAddr: 0x2678, symBinAddr: 0xDB28, symSize: 0xC8 }
  - { offsetInCU: 0x44A8, offset: 0x2FCAB, size: 0x8, addend: 0x0, symName: __ZN4pyo35impl_16extract_argument19extract_pyclass_ref17h033439c57fe83e5eE, symObjAddr: 0x2740, symBinAddr: 0xDBF0, symSize: 0xC8 }
  - { offsetInCU: 0x450B, offset: 0x2FD0E, size: 0x8, addend: 0x0, symName: __ZN4pyo35impl_16extract_argument19extract_pyclass_ref17h2e5afece4138402fE, symObjAddr: 0x2808, symBinAddr: 0xDCB8, symSize: 0xC8 }
  - { offsetInCU: 0x456E, offset: 0x2FD71, size: 0x8, addend: 0x0, symName: __ZN4pyo35impl_16extract_argument19extract_pyclass_ref17h79ddca1484051289E, symObjAddr: 0x28D0, symBinAddr: 0xDD80, symSize: 0xC8 }
  - { offsetInCU: 0x45D1, offset: 0x2FDD4, size: 0x8, addend: 0x0, symName: __ZN4pyo35impl_16extract_argument19extract_pyclass_ref17h87c2509e49a1b493E, symObjAddr: 0x2998, symBinAddr: 0xDE48, symSize: 0xC8 }
  - { offsetInCU: 0x4634, offset: 0x2FE37, size: 0x8, addend: 0x0, symName: __ZN4pyo35impl_16extract_argument19extract_pyclass_ref17h9bd8c2fbbe066ec2E, symObjAddr: 0x2A60, symBinAddr: 0xDF10, symSize: 0xC8 }
  - { offsetInCU: 0x4697, offset: 0x2FE9A, size: 0x8, addend: 0x0, symName: __ZN4pyo35impl_16extract_argument19extract_pyclass_ref17had23273024309edeE, symObjAddr: 0x2B28, symBinAddr: 0xDFD8, symSize: 0xC8 }
  - { offsetInCU: 0x46FA, offset: 0x2FEFD, size: 0x8, addend: 0x0, symName: __ZN4pyo35impl_16extract_argument19extract_pyclass_ref17hb29d2a559f48644eE, symObjAddr: 0x2BF0, symBinAddr: 0xE0A0, symSize: 0xC8 }
  - { offsetInCU: 0x475D, offset: 0x2FF60, size: 0x8, addend: 0x0, symName: __ZN4pyo35impl_16extract_argument19extract_pyclass_ref17hc76fca3fbc06fbb9E, symObjAddr: 0x2CB8, symBinAddr: 0xE168, symSize: 0xC8 }
  - { offsetInCU: 0x47C0, offset: 0x2FFC3, size: 0x8, addend: 0x0, symName: __ZN4pyo35impl_16extract_argument19extract_pyclass_ref17hc7a043fb67a8188eE, symObjAddr: 0x2D80, symBinAddr: 0xE230, symSize: 0xC8 }
  - { offsetInCU: 0x4823, offset: 0x30026, size: 0x8, addend: 0x0, symName: __ZN4pyo35impl_16extract_argument19extract_pyclass_ref17hf1f378c33899a997E, symObjAddr: 0x2E48, symBinAddr: 0xE2F8, symSize: 0xC8 }
  - { offsetInCU: 0x4886, offset: 0x30089, size: 0x8, addend: 0x0, symName: __ZN4pyo35impl_16extract_argument23extract_pyclass_ref_mut17h797ea18101cfa164E, symObjAddr: 0x2F10, symBinAddr: 0xE3C0, symSize: 0xC8 }
  - { offsetInCU: 0x48E9, offset: 0x300EC, size: 0x8, addend: 0x0, symName: __ZN4pyo35impl_16extract_argument23extract_pyclass_ref_mut17hb8098ebf9af28487E, symObjAddr: 0x2FD8, symBinAddr: 0xE488, symSize: 0xC8 }
  - { offsetInCU: 0x494C, offset: 0x3014F, size: 0x8, addend: 0x0, symName: __ZN4pyo35impl_16extract_argument23extract_pyclass_ref_mut17hc2d70801703ad6ebE, symObjAddr: 0x30A0, symBinAddr: 0xE550, symSize: 0xC8 }
  - { offsetInCU: 0x49AF, offset: 0x301B2, size: 0x8, addend: 0x0, symName: __ZN4pyo35impl_16extract_argument25extract_optional_argument17hdd9e2fc7ba94a566E, symObjAddr: 0x3168, symBinAddr: 0xE618, symSize: 0xE8 }
  - { offsetInCU: 0x4A24, offset: 0x30227, size: 0x8, addend: 0x0, symName: __ZN4pyo35impl_16extract_argument25extract_optional_argument17hebc20e882f53e268E, symObjAddr: 0x3250, symBinAddr: 0xE700, symSize: 0xE0 }
  - { offsetInCU: 0x4A99, offset: 0x3029C, size: 0x8, addend: 0x0, symName: __ZN4pyo35impl_16extract_argument29extract_argument_with_default17h329d6d7dd93c6b39E, symObjAddr: 0x3330, symBinAddr: 0xE7E0, symSize: 0x8C }
  - { offsetInCU: 0x4B15, offset: 0x30318, size: 0x8, addend: 0x0, symName: __ZN4pyo35impl_16extract_argument29extract_argument_with_default17h70fbf8529040fc47E, symObjAddr: 0x33BC, symBinAddr: 0xE86C, symSize: 0x8C }
  - { offsetInCU: 0x4B91, offset: 0x30394, size: 0x8, addend: 0x0, symName: __ZN4pyo35impl_16extract_argument29extract_argument_with_default17hc4146bb56472281bE, symObjAddr: 0x3448, symBinAddr: 0xE8F8, symSize: 0x90 }
  - { offsetInCU: 0x4C12, offset: 0x30415, size: 0x8, addend: 0x0, symName: '__ZN80_$LT$T$u20$as$u20$pyo3..impl_..extract_argument..PyFunctionArgument$LT$_$GT$$GT$7extract17h415484e8748a0829E', symObjAddr: 0x34D8, symBinAddr: 0xE988, symSize: 0x28 }
  - { offsetInCU: 0x4C51, offset: 0x30454, size: 0x8, addend: 0x0, symName: '__ZN80_$LT$T$u20$as$u20$pyo3..impl_..extract_argument..PyFunctionArgument$LT$_$GT$$GT$7extract17h7473a6fd7196a60eE', symObjAddr: 0x3500, symBinAddr: 0xE9B0, symSize: 0x28 }
  - { offsetInCU: 0x4C90, offset: 0x30493, size: 0x8, addend: 0x0, symName: '__ZN80_$LT$T$u20$as$u20$pyo3..impl_..extract_argument..PyFunctionArgument$LT$_$GT$$GT$7extract17hc29d29898601efbfE', symObjAddr: 0x3528, symBinAddr: 0xE9D8, symSize: 0x28 }
  - { offsetInCU: 0x5EFC, offset: 0x316FF, size: 0x8, addend: 0x0, symName: __ZN4pyo35impl_16extract_argument19FunctionDescription13handle_kwargs17h604be64e2682bb78E, symObjAddr: 0xBBC, symBinAddr: 0xC06C, symSize: 0x70C }
  - { offsetInCU: 0x60FD, offset: 0x31900, size: 0x8, addend: 0x0, symName: __ZN4pyo35impl_16extract_argument19FunctionDescription13handle_kwargs17hd066f53b40336cfdE, symObjAddr: 0x12C8, symBinAddr: 0xC778, symSize: 0x708 }
  - { offsetInCU: 0x631C, offset: 0x31B1F, size: 0x8, addend: 0x0, symName: __ZN4pyo35impl_16extract_argument19FunctionDescription26extract_arguments_fastcall17hdc757aa3ef91c528E, symObjAddr: 0x19D0, symBinAddr: 0xCE80, symSize: 0x638 }
  - { offsetInCU: 0x664F, offset: 0x31E52, size: 0x8, addend: 0x0, symName: __ZN4pyo35impl_16extract_argument19FunctionDescription28extract_arguments_tuple_dict17h3731fc3afebbb4faE, symObjAddr: 0x202C, symBinAddr: 0xD4DC, symSize: 0x4E0 }
  - { offsetInCU: 0x1E, offset: 0x3347F, size: 0x8, addend: 0x0, symName: '__ZN73_$LT$pyo3..types..any..PyAny$u20$as$u20$pyo3..type_object..PyTypeInfo$GT$15type_object_raw17hbf16717a5d70af88E', symObjAddr: 0x0, symBinAddr: 0xEA00, symSize: 0x24 }
  - { offsetInCU: 0x1149, offset: 0x345AA, size: 0x8, addend: 0x0, symName: '__ZN73_$LT$pyo3..types..any..PyAny$u20$as$u20$pyo3..type_object..PyTypeInfo$GT$15type_object_raw17hbf16717a5d70af88E', symObjAddr: 0x0, symBinAddr: 0xEA00, symSize: 0x24 }
  - { offsetInCU: 0x1E, offset: 0x34B16, size: 0x8, addend: 0x0, symName: '__ZN5alloc7raw_vec19RawVec$LT$T$C$A$GT$8grow_one17h01292e51e88115d3E', symObjAddr: 0x0, symBinAddr: 0xEA24, symSize: 0x88 }
  - { offsetInCU: 0x837, offset: 0x3532F, size: 0x8, addend: 0x0, symName: '__ZN5alloc7raw_vec19RawVec$LT$T$C$A$GT$8grow_one17h01292e51e88115d3E', symObjAddr: 0x0, symBinAddr: 0xEA24, symSize: 0x88 }
  - { offsetInCU: 0x950, offset: 0x35448, size: 0x8, addend: 0x0, symName: '__ZN5alloc7raw_vec19RawVec$LT$T$C$A$GT$8grow_one17h1ea361b6bf269ae0E', symObjAddr: 0x88, symBinAddr: 0xEAAC, symSize: 0x88 }
  - { offsetInCU: 0xAF6, offset: 0x355EE, size: 0x8, addend: 0x0, symName: '__ZN5alloc7raw_vec19RawVec$LT$T$C$A$GT$8grow_one17h266e65198c2006adE', symObjAddr: 0x110, symBinAddr: 0xEB34, symSize: 0x88 }
  - { offsetInCU: 0xBCD, offset: 0x356C5, size: 0x8, addend: 0x0, symName: '__ZN5alloc7raw_vec19RawVec$LT$T$C$A$GT$8grow_one17h6300f812a8ba6bc6E', symObjAddr: 0x198, symBinAddr: 0xEBBC, symSize: 0x88 }
  - { offsetInCU: 0xCB1, offset: 0x357A9, size: 0x8, addend: 0x0, symName: '__ZN5alloc7raw_vec19RawVec$LT$T$C$A$GT$8grow_one17hcc652d44eb264b2eE', symObjAddr: 0x220, symBinAddr: 0xEC44, symSize: 0x88 }
  - { offsetInCU: 0xD8A, offset: 0x35882, size: 0x8, addend: 0x0, symName: '__ZN5alloc7raw_vec19RawVec$LT$T$C$A$GT$8grow_one17he7183bd24e66d3beE', symObjAddr: 0x2A8, symBinAddr: 0xECCC, symSize: 0x88 }
  - { offsetInCU: 0x1E, offset: 0x3590B, size: 0x8, addend: 0x0, symName: __ZN3std9panicking12catch_unwind7do_call17h3efe172ffa037313E, symObjAddr: 0x0, symBinAddr: 0xED54, symSize: 0x94 }
  - { offsetInCU: 0x2118, offset: 0x37A05, size: 0x8, addend: 0x0, symName: __ZN3std9panicking12catch_unwind7do_call17h3efe172ffa037313E, symObjAddr: 0x0, symBinAddr: 0xED54, symSize: 0x94 }
  - { offsetInCU: 0x2213, offset: 0x37B00, size: 0x8, addend: 0x0, symName: __ZN3std9panicking12catch_unwind7do_call17h4a039c4c5ad9a7a0E, symObjAddr: 0x94, symBinAddr: 0xEDE8, symSize: 0x94 }
  - { offsetInCU: 0x230E, offset: 0x37BFB, size: 0x8, addend: 0x0, symName: __ZN3std9panicking12catch_unwind7do_call17h68c510abc1b704acE, symObjAddr: 0x128, symBinAddr: 0xEE7C, symSize: 0x88 }
  - { offsetInCU: 0x2409, offset: 0x37CF6, size: 0x8, addend: 0x0, symName: __ZN3std9panicking12catch_unwind7do_call17h9d4ff8fcbe818f79E, symObjAddr: 0x1B0, symBinAddr: 0xEF04, symSize: 0x98 }
  - { offsetInCU: 0x2504, offset: 0x37DF1, size: 0x8, addend: 0x0, symName: __ZN3std9panicking12catch_unwind7do_call17hd37444b50d232186E, symObjAddr: 0x248, symBinAddr: 0xEF9C, symSize: 0x94 }
  - { offsetInCU: 0x25FF, offset: 0x37EEC, size: 0x8, addend: 0x0, symName: __ZN3std9panicking12catch_unwind8do_catch17h30f153a9aaa425ecE, symObjAddr: 0x2DC, symBinAddr: 0xF030, symSize: 0x70 }
  - { offsetInCU: 0x2694, offset: 0x37F81, size: 0x8, addend: 0x0, symName: __ZN3std9panicking12catch_unwind8do_catch17h980ca2d0f42a8fecE, symObjAddr: 0x34C, symBinAddr: 0xF0A0, symSize: 0x70 }
  - { offsetInCU: 0x2729, offset: 0x38016, size: 0x8, addend: 0x0, symName: __ZN3std9panicking12catch_unwind8do_catch17hc3d49ca97331ae69E, symObjAddr: 0x3BC, symBinAddr: 0xF110, symSize: 0x70 }
  - { offsetInCU: 0x27BE, offset: 0x380AB, size: 0x8, addend: 0x0, symName: __ZN3std9panicking12catch_unwind8do_catch17hd4002794b8e999c9E, symObjAddr: 0x42C, symBinAddr: 0xF180, symSize: 0x70 }
  - { offsetInCU: 0x2853, offset: 0x38140, size: 0x8, addend: 0x0, symName: __ZN3std9panicking12catch_unwind8do_catch17hf866f46cbb50468cE, symObjAddr: 0x49C, symBinAddr: 0xF1F0, symSize: 0x70 }
  - { offsetInCU: 0x1E, offset: 0x3870B, size: 0x8, addend: 0x0, symName: __ZN4pyo36marker6Python19assume_gil_acquired17hf5bd83c39a5b24d7E, symObjAddr: 0x0, symBinAddr: 0xF260, symSize: 0x4 }
  - { offsetInCU: 0x12D6, offset: 0x399C3, size: 0x8, addend: 0x0, symName: __ZN4pyo36marker6Python19assume_gil_acquired17hf5bd83c39a5b24d7E, symObjAddr: 0x0, symBinAddr: 0xF260, symSize: 0x4 }
  - { offsetInCU: 0x1741, offset: 0x39E2E, size: 0x8, addend: 0x0, symName: __ZN4pyo36marker6Python4None17he5c09485953ef4e7E, symObjAddr: 0x4, symBinAddr: 0xF264, symSize: 0x28 }
  - { offsetInCU: 0x1E, offset: 0x39E7B, size: 0x8, addend: 0x0, symName: __ZN4pyo35types4none6PyNone3get17h2dfa95bc90781939E, symObjAddr: 0x0, symBinAddr: 0xF28C, symSize: 0x2C }
  - { offsetInCU: 0x1791, offset: 0x3B5EE, size: 0x8, addend: 0x0, symName: __ZN4pyo35types4none6PyNone3get17h2dfa95bc90781939E, symObjAddr: 0x0, symBinAddr: 0xF28C, symSize: 0x2C }
  - { offsetInCU: 0x1E, offset: 0x3B639, size: 0x8, addend: 0x0, symName: '__ZN4pyo311conversions3std6option90_$LT$impl$u20$pyo3..conversion..IntoPyObject$u20$for$u20$core..option..Option$LT$T$GT$$GT$13into_pyobject28_$u7b$$u7b$closure$u7d$$u7d$17hc099eb729163c68dE', symObjAddr: 0x0, symBinAddr: 0xF2B8, symSize: 0x2C }
  - { offsetInCU: 0x128A, offset: 0x3C8A5, size: 0x8, addend: 0x0, symName: '__ZN4pyo311conversions3std6option90_$LT$impl$u20$pyo3..conversion..IntoPyObject$u20$for$u20$core..option..Option$LT$T$GT$$GT$13into_pyobject28_$u7b$$u7b$closure$u7d$$u7d$17hc099eb729163c68dE', symObjAddr: 0x0, symBinAddr: 0xF2B8, symSize: 0x2C }
  - { offsetInCU: 0x12D8, offset: 0x3C8F3, size: 0x8, addend: 0x0, symName: '__ZN4pyo311conversions3std6option90_$LT$impl$u20$pyo3..conversion..IntoPyObject$u20$for$u20$core..option..Option$LT$T$GT$$GT$13into_pyobject28_$u7b$$u7b$closure$u7d$$u7d$17he13caed57312da53E', symObjAddr: 0x2C, symBinAddr: 0xF2E4, symSize: 0x24 }
  - { offsetInCU: 0x1E, offset: 0x3CF2C, size: 0x8, addend: 0x0, symName: '__ZN83_$LT$$LP$$RP$$u20$as$u20$pyo3..impl_..callback..IntoPyCallbackOutput$LT$i32$GT$$GT$7convert17hb3344994ae3c7e29E', symObjAddr: 0x0, symBinAddr: 0xF308, symSize: 0x14 }
  - { offsetInCU: 0x1448, offset: 0x3E356, size: 0x8, addend: 0x0, symName: '__ZN83_$LT$$LP$$RP$$u20$as$u20$pyo3..impl_..callback..IntoPyCallbackOutput$LT$i32$GT$$GT$7convert17hb3344994ae3c7e29E', symObjAddr: 0x0, symBinAddr: 0xF308, symSize: 0x14 }
  - { offsetInCU: 0x1E, offset: 0x3EC03, size: 0x8, addend: 0x0, symName: '__ZN7_native10py_results200_$LT$impl$u20$pyo3..impl_..pyclass..PyMethods$LT$_native..py_results..PyAerialImageResult$GT$$u20$for$u20$pyo3..impl_..pyclass..PyClassImplCollector$LT$_native..py_results..PyAerialImageResult$GT$$GT$10py_methods17h74e784d264582387E', symObjAddr: 0x0, symBinAddr: 0xF31C, symSize: 0x14 }
  - { offsetInCU: 0x21B2, offset: 0x40D97, size: 0x8, addend: 0x0, symName: '__ZN7_native10py_results200_$LT$impl$u20$pyo3..impl_..pyclass..PyMethods$LT$_native..py_results..PyAerialImageResult$GT$$u20$for$u20$pyo3..impl_..pyclass..PyClassImplCollector$LT$_native..py_results..PyAerialImageResult$GT$$GT$10py_methods17h74e784d264582387E', symObjAddr: 0x0, symBinAddr: 0xF31C, symSize: 0x14 }
  - { offsetInCU: 0x21EF, offset: 0x40DD4, size: 0x8, addend: 0x0, symName: '__ZN7_native10py_results204_$LT$impl$u20$pyo3..impl_..pyclass..PyMethods$LT$_native..py_results..PyResistProfileResult$GT$$u20$for$u20$pyo3..impl_..pyclass..PyClassImplCollector$LT$_native..py_results..PyResistProfileResult$GT$$GT$10py_methods17h01567115e8e85a7fE', symObjAddr: 0x14, symBinAddr: 0xF330, symSize: 0x14 }
  - { offsetInCU: 0x22A4, offset: 0x40E89, size: 0x8, addend: 0x0, symName: '__ZN7_native13py_simulation204_$LT$impl$u20$pyo3..impl_..pyclass..PyMethods$LT$_native..py_simulation..PySimulationEngine$GT$$u20$for$u20$pyo3..impl_..pyclass..PyClassImplCollector$LT$_native..py_simulation..PySimulationEngine$GT$$GT$10py_methods17h42736e3f96c6a2cbE', symObjAddr: 0x28, symBinAddr: 0xF344, symSize: 0x14 }
  - { offsetInCU: 0x22EF, offset: 0x40ED4, size: 0x8, addend: 0x0, symName: '__ZN7_native13py_simulation204_$LT$impl$u20$pyo3..impl_..pyclass..PyMethods$LT$_native..py_simulation..PySimulationEngine$GT$$u20$for$u20$pyo3..impl_..pyclass..PyClassImplCollector$LT$_native..py_simulation..PySimulationEngine$GT$$GT$10py_methods5ITEMS10trampoline218_$LT$impl$u20$pyo3..impl_..pyclass..PyClassNewTextSignature$LT$_native..py_simulation..PySimulationEngine$GT$$u20$for$u20$pyo3..impl_..pyclass..PyClassImplCollector$LT$_native..py_simulation..PySimulationEngine$GT$$GT$18new_text_signature17h7d6ee469662ced3fE', symObjAddr: 0x3C, symBinAddr: 0xF358, symSize: 0x1C }
  - { offsetInCU: 0x238A, offset: 0x40F6F, size: 0x8, addend: 0x0, symName: '__ZN7_native8py_sweep190_$LT$impl$u20$pyo3..impl_..pyclass..PyMethods$LT$_native..py_sweep..PyBatchSimulator$GT$$u20$for$u20$pyo3..impl_..pyclass..PyClassImplCollector$LT$_native..py_sweep..PyBatchSimulator$GT$$GT$10py_methods17h76ae0e45a4ae98fcE', symObjAddr: 0x58, symBinAddr: 0xF374, symSize: 0x14 }
  - { offsetInCU: 0x23D5, offset: 0x40FBA, size: 0x8, addend: 0x0, symName: '__ZN7_native8py_sweep190_$LT$impl$u20$pyo3..impl_..pyclass..PyMethods$LT$_native..py_sweep..PyBatchSimulator$GT$$u20$for$u20$pyo3..impl_..pyclass..PyClassImplCollector$LT$_native..py_sweep..PyBatchSimulator$GT$$GT$10py_methods5ITEMS10trampoline204_$LT$impl$u20$pyo3..impl_..pyclass..PyClassNewTextSignature$LT$_native..py_sweep..PyBatchSimulator$GT$$u20$for$u20$pyo3..impl_..pyclass..PyClassImplCollector$LT$_native..py_sweep..PyBatchSimulator$GT$$GT$18new_text_signature17h7bdbff5a234210d7E', symObjAddr: 0x6C, symBinAddr: 0xF388, symSize: 0x1C }
  - { offsetInCU: 0x2416, offset: 0x40FFB, size: 0x8, addend: 0x0, symName: '__ZN7_native8py_sweep200_$LT$impl$u20$pyo3..impl_..pyclass..PyMethods$LT$_native..py_sweep..PyProcessWindowResult$GT$$u20$for$u20$pyo3..impl_..pyclass..PyClassImplCollector$LT$_native..py_sweep..PyProcessWindowResult$GT$$GT$10py_methods17he983d9d14423f25dE', symObjAddr: 0x88, symBinAddr: 0xF3A4, symSize: 0x14 }
  - { offsetInCU: 0x249D, offset: 0x41082, size: 0x8, addend: 0x0, symName: '__ZN7_native9py_config184_$LT$impl$u20$pyo3..impl_..pyclass..PyMethods$LT$_native..py_config..PyGridConfig$GT$$u20$for$u20$pyo3..impl_..pyclass..PyClassImplCollector$LT$_native..py_config..PyGridConfig$GT$$GT$10py_methods17h3ad41d6071dd30eaE', symObjAddr: 0x9C, symBinAddr: 0xF3B8, symSize: 0x14 }
  - { offsetInCU: 0x24EB, offset: 0x410D0, size: 0x8, addend: 0x0, symName: '__ZN7_native9py_config184_$LT$impl$u20$pyo3..impl_..pyclass..PyMethods$LT$_native..py_config..PyGridConfig$GT$$u20$for$u20$pyo3..impl_..pyclass..PyClassImplCollector$LT$_native..py_config..PyGridConfig$GT$$GT$10py_methods5ITEMS10trampoline198_$LT$impl$u20$pyo3..impl_..pyclass..PyClassNewTextSignature$LT$_native..py_config..PyGridConfig$GT$$u20$for$u20$pyo3..impl_..pyclass..PyClassImplCollector$LT$_native..py_config..PyGridConfig$GT$$GT$18new_text_signature17hc7df2401659a27cfE', symObjAddr: 0xB0, symBinAddr: 0xF3CC, symSize: 0x1C }
  - { offsetInCU: 0x252F, offset: 0x41114, size: 0x8, addend: 0x0, symName: '__ZN7_native9py_config184_$LT$impl$u20$pyo3..impl_..pyclass..PyMethods$LT$_native..py_config..PyMaskConfig$GT$$u20$for$u20$pyo3..impl_..pyclass..PyClassImplCollector$LT$_native..py_config..PyMaskConfig$GT$$GT$10py_methods17h6a68a80362b25df9E', symObjAddr: 0xCC, symBinAddr: 0xF3E8, symSize: 0x14 }
  - { offsetInCU: 0x256C, offset: 0x41151, size: 0x8, addend: 0x0, symName: '__ZN7_native9py_config188_$LT$impl$u20$pyo3..impl_..pyclass..PyMethods$LT$_native..py_config..PyOpticsConfig$GT$$u20$for$u20$pyo3..impl_..pyclass..PyClassImplCollector$LT$_native..py_config..PyOpticsConfig$GT$$GT$10py_methods17hc99c78d3a6c5e036E', symObjAddr: 0xE0, symBinAddr: 0xF3FC, symSize: 0x14 }
  - { offsetInCU: 0x25B7, offset: 0x4119C, size: 0x8, addend: 0x0, symName: '__ZN7_native9py_config188_$LT$impl$u20$pyo3..impl_..pyclass..PyMethods$LT$_native..py_config..PyOpticsConfig$GT$$u20$for$u20$pyo3..impl_..pyclass..PyClassImplCollector$LT$_native..py_config..PyOpticsConfig$GT$$GT$10py_methods5ITEMS10trampoline202_$LT$impl$u20$pyo3..impl_..pyclass..PyClassNewTextSignature$LT$_native..py_config..PyOpticsConfig$GT$$u20$for$u20$pyo3..impl_..pyclass..PyClassImplCollector$LT$_native..py_config..PyOpticsConfig$GT$$GT$18new_text_signature17hd8863ebf9268c9dbE', symObjAddr: 0xF4, symBinAddr: 0xF410, symSize: 0x1C }
  - { offsetInCU: 0x25F8, offset: 0x411DD, size: 0x8, addend: 0x0, symName: '__ZN7_native9py_config188_$LT$impl$u20$pyo3..impl_..pyclass..PyMethods$LT$_native..py_config..PyResistConfig$GT$$u20$for$u20$pyo3..impl_..pyclass..PyClassImplCollector$LT$_native..py_config..PyResistConfig$GT$$GT$10py_methods17h224e788907e9c8eeE', symObjAddr: 0x110, symBinAddr: 0xF42C, symSize: 0x14 }
  - { offsetInCU: 0x2643, offset: 0x41228, size: 0x8, addend: 0x0, symName: '__ZN7_native9py_config188_$LT$impl$u20$pyo3..impl_..pyclass..PyMethods$LT$_native..py_config..PyResistConfig$GT$$u20$for$u20$pyo3..impl_..pyclass..PyClassImplCollector$LT$_native..py_config..PyResistConfig$GT$$GT$10py_methods5ITEMS10trampoline202_$LT$impl$u20$pyo3..impl_..pyclass..PyClassNewTextSignature$LT$_native..py_config..PyResistConfig$GT$$u20$for$u20$pyo3..impl_..pyclass..PyClassImplCollector$LT$_native..py_config..PyResistConfig$GT$$GT$18new_text_signature17h6d6f73b94fcf25daE', symObjAddr: 0x124, symBinAddr: 0xF440, symSize: 0x1C }
  - { offsetInCU: 0x2684, offset: 0x41269, size: 0x8, addend: 0x0, symName: '__ZN7_native9py_config188_$LT$impl$u20$pyo3..impl_..pyclass..PyMethods$LT$_native..py_config..PySourceConfig$GT$$u20$for$u20$pyo3..impl_..pyclass..PyClassImplCollector$LT$_native..py_config..PySourceConfig$GT$$GT$10py_methods17h2aae358db06070b4E', symObjAddr: 0x140, symBinAddr: 0xF45C, symSize: 0x14 }
  - { offsetInCU: 0x26CF, offset: 0x412B4, size: 0x8, addend: 0x0, symName: '__ZN7_native9py_config188_$LT$impl$u20$pyo3..impl_..pyclass..PyMethods$LT$_native..py_config..PySourceConfig$GT$$u20$for$u20$pyo3..impl_..pyclass..PyClassImplCollector$LT$_native..py_config..PySourceConfig$GT$$GT$10py_methods5ITEMS10trampoline202_$LT$impl$u20$pyo3..impl_..pyclass..PyClassNewTextSignature$LT$_native..py_config..PySourceConfig$GT$$u20$for$u20$pyo3..impl_..pyclass..PyClassImplCollector$LT$_native..py_config..PySourceConfig$GT$$GT$18new_text_signature17he1060480d1e9bdbfE', symObjAddr: 0x154, symBinAddr: 0xF470, symSize: 0x1C }
  - { offsetInCU: 0x2710, offset: 0x412F5, size: 0x8, addend: 0x0, symName: '__ZN7_native9py_config190_$LT$impl$u20$pyo3..impl_..pyclass..PyMethods$LT$_native..py_config..PyProcessConfig$GT$$u20$for$u20$pyo3..impl_..pyclass..PyClassImplCollector$LT$_native..py_config..PyProcessConfig$GT$$GT$10py_methods17h381701a352d02218E', symObjAddr: 0x170, symBinAddr: 0xF48C, symSize: 0x14 }
  - { offsetInCU: 0x275E, offset: 0x41343, size: 0x8, addend: 0x0, symName: '__ZN7_native9py_config190_$LT$impl$u20$pyo3..impl_..pyclass..PyMethods$LT$_native..py_config..PyProcessConfig$GT$$u20$for$u20$pyo3..impl_..pyclass..PyClassImplCollector$LT$_native..py_config..PyProcessConfig$GT$$GT$10py_methods5ITEMS10trampoline204_$LT$impl$u20$pyo3..impl_..pyclass..PyClassNewTextSignature$LT$_native..py_config..PyProcessConfig$GT$$u20$for$u20$pyo3..impl_..pyclass..PyClassImplCollector$LT$_native..py_config..PyProcessConfig$GT$$GT$18new_text_signature17h4749ea7b926c2092E', symObjAddr: 0x184, symBinAddr: 0xF4A0, symSize: 0x1C }
  - { offsetInCU: 0x27A2, offset: 0x41387, size: 0x8, addend: 0x0, symName: '__ZN7_native9py_config194_$LT$impl$u20$pyo3..impl_..pyclass..PyMethods$LT$_native..py_config..PyFilmStackConfig$GT$$u20$for$u20$pyo3..impl_..pyclass..PyClassImplCollector$LT$_native..py_config..PyFilmStackConfig$GT$$GT$10py_methods17h825202d89367a0a2E', symObjAddr: 0x1A0, symBinAddr: 0xF4BC, symSize: 0x14 }
  - { offsetInCU: 0x27ED, offset: 0x413D2, size: 0x8, addend: 0x0, symName: '__ZN7_native9py_config194_$LT$impl$u20$pyo3..impl_..pyclass..PyMethods$LT$_native..py_config..PyFilmStackConfig$GT$$u20$for$u20$pyo3..impl_..pyclass..PyClassImplCollector$LT$_native..py_config..PyFilmStackConfig$GT$$GT$10py_methods5ITEMS10trampoline208_$LT$impl$u20$pyo3..impl_..pyclass..PyClassNewTextSignature$LT$_native..py_config..PyFilmStackConfig$GT$$u20$for$u20$pyo3..impl_..pyclass..PyClassImplCollector$LT$_native..py_config..PyFilmStackConfig$GT$$GT$18new_text_signature17h259c9145d2dc58f5E', symObjAddr: 0x1B4, symBinAddr: 0xF4D0, symSize: 0x1C }
  - { offsetInCU: 0x1E, offset: 0x43368, size: 0x8, addend: 0x0, symName: __ZN4core5slice20copy_from_slice_impl17h93f0530534308c98E, symObjAddr: 0x0, symBinAddr: 0xF4EC, symSize: 0xAC }
  - { offsetInCU: 0x897, offset: 0x43BE1, size: 0x8, addend: 0x0, symName: '__ZN4core5slice29_$LT$impl$u20$$u5b$T$u5d$$GT$4iter17h42588464b88a62d6E', symObjAddr: 0xAC, symBinAddr: 0xF598, symSize: 0x28 }
  - { offsetInCU: 0x8CF, offset: 0x43C19, size: 0x8, addend: 0x0, symName: __ZN4core5slice20copy_from_slice_impl17h93f0530534308c98E, symObjAddr: 0x0, symBinAddr: 0xF4EC, symSize: 0xAC }
  - { offsetInCU: 0x1E, offset: 0x44DE1, size: 0x8, addend: 0x0, symName: __ZN4core3ptr9alignment9Alignment13new_unchecked18precondition_check17h8065d34a52fe0ac5E, symObjAddr: 0x0, symBinAddr: 0xF5C0, symSize: 0x70 }
  - { offsetInCU: 0x8A, offset: 0x44E4D, size: 0x8, addend: 0x0, symName: __ZN4core3ptr9alignment9Alignment13new_unchecked18precondition_check17h8065d34a52fe0ac5E, symObjAddr: 0x0, symBinAddr: 0xF5C0, symSize: 0x70 }
  - { offsetInCU: 0x1E, offset: 0x44F33, size: 0x8, addend: 0x0, symName: __ZN4core9ub_checks23maybe_is_nonoverlapping7runtime17hc9cc1a72566a16edE, symObjAddr: 0x0, symBinAddr: 0xF630, symSize: 0xD8 }
  - { offsetInCU: 0x1A3, offset: 0x450B8, size: 0x8, addend: 0x0, symName: __ZN4core9ub_checks23maybe_is_nonoverlapping7runtime17hc9cc1a72566a16edE, symObjAddr: 0x0, symBinAddr: 0xF630, symSize: 0xD8 }
  - { offsetInCU: 0x1E, offset: 0x452CB, size: 0x8, addend: 0x0, symName: '__ZN7ndarray12impl_methods49_$LT$impl$u20$ndarray..ArrayBase$LT$S$C$D$GT$$GT$17zip_mut_with_elem28_$u7b$$u7b$closure$u7d$$u7d$17hacba9573704a6b13E', symObjAddr: 0x0, symBinAddr: 0xF708, symSize: 0x34 }
  - { offsetInCU: 0x3F, offset: 0x452EC, size: 0x8, addend: 0x0, symName: '__ZN7ndarray12impl_methods49_$LT$impl$u20$ndarray..ArrayBase$LT$S$C$D$GT$$GT$17zip_mut_with_elem28_$u7b$$u7b$closure$u7d$$u7d$17hacba9573704a6b13E', symObjAddr: 0x0, symBinAddr: 0xF708, symSize: 0x34 }
  - { offsetInCU: 0xC0, offset: 0x4536D, size: 0x8, addend: 0x0, symName: '__ZN7ndarray12impl_methods49_$LT$impl$u20$ndarray..ArrayBase$LT$S$C$D$GT$$GT$20zip_mut_with_by_rows28_$u7b$$u7b$closure$u7d$$u7d$17h77c7eb3985135cc6E', symObjAddr: 0x34, symBinAddr: 0xF73C, symSize: 0x80 }
  - { offsetInCU: 0x14C, offset: 0x453F9, size: 0x8, addend: 0x0, symName: '__ZN7ndarray12impl_methods49_$LT$impl$u20$ndarray..ArrayBase$LT$S$C$D$GT$$GT$20zip_mut_with_by_rows28_$u7b$$u7b$closure$u7d$$u7d$17ha89353e1f710018bE', symObjAddr: 0xB4, symBinAddr: 0xF7BC, symSize: 0x80 }
  - { offsetInCU: 0x1E, offset: 0x456D8, size: 0x8, addend: 0x0, symName: __ZN5numpy7convert9ToNpyDims11as_dims_ptr17h4103cfade750347aE, symObjAddr: 0x0, symBinAddr: 0xF83C, symSize: 0x30 }
  - { offsetInCU: 0x3A, offset: 0x456F4, size: 0x8, addend: 0x0, symName: __ZN5numpy7convert9ToNpyDims11as_dims_ptr17h4103cfade750347aE, symObjAddr: 0x0, symBinAddr: 0xF83C, symSize: 0x30 }
  - { offsetInCU: 0x71, offset: 0x4572B, size: 0x8, addend: 0x0, symName: __ZN5numpy7convert9ToNpyDims11as_dims_ptr17hfb7817af3dbc27a0E, symObjAddr: 0x30, symBinAddr: 0xF86C, symSize: 0x30 }
  - { offsetInCU: 0xA8, offset: 0x45762, size: 0x8, addend: 0x0, symName: __ZN5numpy7convert9ToNpyDims9ndim_cint17h69704614ec856372E, symObjAddr: 0x60, symBinAddr: 0xF89C, symSize: 0x24 }
  - { offsetInCU: 0xDF, offset: 0x45799, size: 0x8, addend: 0x0, symName: __ZN5numpy7convert9ToNpyDims9ndim_cint17h7566654f7119a6e7E, symObjAddr: 0x84, symBinAddr: 0xF8C0, symSize: 0x24 }
  - { offsetInCU: 0x1E, offset: 0x458B6, size: 0x8, addend: 0x0, symName: __ZN4pyo35impl_10trampoline11module_init17h7933a7ca3477ffdfE, symObjAddr: 0x0, symBinAddr: 0xF8E4, symSize: 0x28 }
  - { offsetInCU: 0x14D5, offset: 0x46D6D, size: 0x8, addend: 0x0, symName: __ZN4pyo35impl_10trampoline11module_init17h7933a7ca3477ffdfE, symObjAddr: 0x0, symBinAddr: 0xF8E4, symSize: 0x28 }
  - { offsetInCU: 0x1501, offset: 0x46D99, size: 0x8, addend: 0x0, symName: __ZN4pyo35impl_10trampoline22fastcall_with_keywords17h8c25af1dc6469e10E, symObjAddr: 0x28, symBinAddr: 0xF90C, symSize: 0x5C }
  - { offsetInCU: 0x1565, offset: 0x46DFD, size: 0x8, addend: 0x0, symName: __ZN4pyo35impl_10trampoline6noargs17hcc2d00daa3214bc1E, symObjAddr: 0x84, symBinAddr: 0xF968, symSize: 0x64 }
  - { offsetInCU: 0x15AD, offset: 0x46E45, size: 0x8, addend: 0x0, symName: __ZN4pyo35impl_10trampoline7dealloc17h0c76e030f78700c8E, symObjAddr: 0xE8, symBinAddr: 0xF9CC, symSize: 0x34 }
  - { offsetInCU: 0x15E3, offset: 0x46E7B, size: 0x8, addend: 0x0, symName: __ZN4pyo35impl_10trampoline7newfunc17h8050597b95ecb0d8E, symObjAddr: 0x11C, symBinAddr: 0xFA00, symSize: 0x50 }
  - { offsetInCU: 0x1639, offset: 0x46ED1, size: 0x8, addend: 0x0, symName: __ZN4pyo35impl_10trampoline8reprfunc17hb54a9a0eb6e1a6cbE, symObjAddr: 0x16C, symBinAddr: 0xFA50, symSize: 0x30 }
  - { offsetInCU: 0x1E, offset: 0x4785C, size: 0x8, addend: 0x0, symName: '__ZN54_$LT$f64$u20$as$u20$core..iter..traits..accum..Sum$GT$3sum17h2e8d06d5ec2cbc57E', symObjAddr: 0x0, symBinAddr: 0xFA80, symSize: 0x34 }
  - { offsetInCU: 0x44, offset: 0x47882, size: 0x8, addend: 0x0, symName: '__ZN54_$LT$f64$u20$as$u20$core..iter..traits..accum..Sum$GT$3sum17h2e8d06d5ec2cbc57E', symObjAddr: 0x0, symBinAddr: 0xFA80, symSize: 0x34 }
  - { offsetInCU: 0x7E, offset: 0x478BC, size: 0x8, addend: 0x0, symName: '__ZN54_$LT$f64$u20$as$u20$core..iter..traits..accum..Sum$GT$3sum28_$u7b$$u7b$closure$u7d$$u7d$17hb9165287f8d05b51E', symObjAddr: 0x34, symBinAddr: 0xFAB4, symSize: 0x1C }
  - { offsetInCU: 0x1E, offset: 0x47BF6, size: 0x8, addend: 0x0, symName: __ZN4pyo36marker6Python13allow_threads17h7c1fcc6a177fe1a7E, symObjAddr: 0x0, symBinAddr: 0xFAD0, symSize: 0xC4 }
  - { offsetInCU: 0x1B95, offset: 0x4976D, size: 0x8, addend: 0x0, symName: __ZN4pyo36marker6Python13allow_threads17h7c1fcc6a177fe1a7E, symObjAddr: 0x0, symBinAddr: 0xFAD0, symSize: 0xC4 }
  - { offsetInCU: 0x1C10, offset: 0x497E8, size: 0x8, addend: 0x0, symName: __ZN4pyo36marker6Python13allow_threads17h890a73709ef509ceE, symObjAddr: 0xC4, symBinAddr: 0xFB94, symSize: 0xCC }
  - { offsetInCU: 0x1E, offset: 0x49896, size: 0x8, addend: 0x0, symName: '__ZN4pyo34sync20GILOnceCell$LT$T$GT$15get_or_try_init17h08a0f5a572fd2259E', symObjAddr: 0x0, symBinAddr: 0xFC60, symSize: 0xB4 }
  - { offsetInCU: 0x267E, offset: 0x4BEF6, size: 0x8, addend: 0x0, symName: '__ZN4pyo34sync20GILOnceCell$LT$T$GT$15get_or_try_init17h08a0f5a572fd2259E', symObjAddr: 0x0, symBinAddr: 0xFC60, symSize: 0xB4 }
  - { offsetInCU: 0x26F7, offset: 0x4BF6F, size: 0x8, addend: 0x0, symName: '__ZN4pyo34sync20GILOnceCell$LT$T$GT$15get_or_try_init17h13848a71a4bd546cE', symObjAddr: 0xB4, symBinAddr: 0xFD14, symSize: 0xB4 }
  - { offsetInCU: 0x2770, offset: 0x4BFE8, size: 0x8, addend: 0x0, symName: '__ZN4pyo34sync20GILOnceCell$LT$T$GT$15get_or_try_init17h151ba0d40700076eE', symObjAddr: 0x168, symBinAddr: 0xFDC8, symSize: 0xB4 }
  - { offsetInCU: 0x27E9, offset: 0x4C061, size: 0x8, addend: 0x0, symName: '__ZN4pyo34sync20GILOnceCell$LT$T$GT$15get_or_try_init17h25278dc7e090c76eE', symObjAddr: 0x21C, symBinAddr: 0xFE7C, symSize: 0xB4 }
  - { offsetInCU: 0x2862, offset: 0x4C0DA, size: 0x8, addend: 0x0, symName: '__ZN4pyo34sync20GILOnceCell$LT$T$GT$15get_or_try_init17h2fb821ff5a2b82c4E', symObjAddr: 0x2D0, symBinAddr: 0xFF30, symSize: 0xB4 }
  - { offsetInCU: 0x28DB, offset: 0x4C153, size: 0x8, addend: 0x0, symName: '__ZN4pyo34sync20GILOnceCell$LT$T$GT$15get_or_try_init17h3957fd6458beaec4E', symObjAddr: 0x384, symBinAddr: 0xFFE4, symSize: 0xB4 }
  - { offsetInCU: 0x2954, offset: 0x4C1CC, size: 0x8, addend: 0x0, symName: '__ZN4pyo34sync20GILOnceCell$LT$T$GT$15get_or_try_init17h7927fb8fdd34c07bE', symObjAddr: 0x438, symBinAddr: 0x10098, symSize: 0xB4 }
  - { offsetInCU: 0x29CD, offset: 0x4C245, size: 0x8, addend: 0x0, symName: '__ZN4pyo34sync20GILOnceCell$LT$T$GT$15get_or_try_init17h86f71955e1f071fcE', symObjAddr: 0x4EC, symBinAddr: 0x1014C, symSize: 0xB4 }
  - { offsetInCU: 0x2A46, offset: 0x4C2BE, size: 0x8, addend: 0x0, symName: '__ZN4pyo34sync20GILOnceCell$LT$T$GT$15get_or_try_init17h9a885cb3d3619329E', symObjAddr: 0x5A0, symBinAddr: 0x10200, symSize: 0xB4 }
  - { offsetInCU: 0x2ABF, offset: 0x4C337, size: 0x8, addend: 0x0, symName: '__ZN4pyo34sync20GILOnceCell$LT$T$GT$15get_or_try_init17hb800ed71f47d4839E', symObjAddr: 0x654, symBinAddr: 0x102B4, symSize: 0xB4 }
  - { offsetInCU: 0x2B38, offset: 0x4C3B0, size: 0x8, addend: 0x0, symName: '__ZN4pyo34sync20GILOnceCell$LT$T$GT$15get_or_try_init17hc35297d639badd37E', symObjAddr: 0x708, symBinAddr: 0x10368, symSize: 0xB4 }
  - { offsetInCU: 0x2BB1, offset: 0x4C429, size: 0x8, addend: 0x0, symName: '__ZN4pyo34sync20GILOnceCell$LT$T$GT$15get_or_try_init17he347388f2dd5afa8E', symObjAddr: 0x7BC, symBinAddr: 0x1041C, symSize: 0xB4 }
  - { offsetInCU: 0x2C9E, offset: 0x4C516, size: 0x8, addend: 0x0, symName: '__ZN4pyo34sync20GILOnceCell$LT$T$GT$4init17h1ae4f31c7b91a801E', symObjAddr: 0x870, symBinAddr: 0x6627F8, symSize: 0x1A0 }
  - { offsetInCU: 0x2D75, offset: 0x4C5ED, size: 0x8, addend: 0x0, symName: '__ZN4pyo34sync20GILOnceCell$LT$T$GT$4init17h1ce4991e67e36a90E', symObjAddr: 0xA10, symBinAddr: 0x662998, symSize: 0x1A0 }
  - { offsetInCU: 0x2E4C, offset: 0x4C6C4, size: 0x8, addend: 0x0, symName: '__ZN4pyo34sync20GILOnceCell$LT$T$GT$4init17h1d7afeef6e2195b7E', symObjAddr: 0xBB0, symBinAddr: 0x662B38, symSize: 0x1A0 }
  - { offsetInCU: 0x2F23, offset: 0x4C79B, size: 0x8, addend: 0x0, symName: '__ZN4pyo34sync20GILOnceCell$LT$T$GT$4init17h36531bbbf0ecc63dE', symObjAddr: 0xD50, symBinAddr: 0x662CD8, symSize: 0x1A0 }
  - { offsetInCU: 0x2FFA, offset: 0x4C872, size: 0x8, addend: 0x0, symName: '__ZN4pyo34sync20GILOnceCell$LT$T$GT$4init17h5228b6dd048e53a8E', symObjAddr: 0xEF0, symBinAddr: 0x662E78, symSize: 0x1A0 }
  - { offsetInCU: 0x30D1, offset: 0x4C949, size: 0x8, addend: 0x0, symName: '__ZN4pyo34sync20GILOnceCell$LT$T$GT$4init17h7281c221bfc1eeb6E', symObjAddr: 0x1090, symBinAddr: 0x663018, symSize: 0x1A0 }
  - { offsetInCU: 0x31A8, offset: 0x4CA20, size: 0x8, addend: 0x0, symName: '__ZN4pyo34sync20GILOnceCell$LT$T$GT$4init17h79f8d5f429ad5ad8E', symObjAddr: 0x1230, symBinAddr: 0x6631B8, symSize: 0x1A0 }
  - { offsetInCU: 0x327F, offset: 0x4CAF7, size: 0x8, addend: 0x0, symName: '__ZN4pyo34sync20GILOnceCell$LT$T$GT$4init17h86d6af4653379068E', symObjAddr: 0x13D0, symBinAddr: 0x663358, symSize: 0x1A0 }
  - { offsetInCU: 0x3356, offset: 0x4CBCE, size: 0x8, addend: 0x0, symName: '__ZN4pyo34sync20GILOnceCell$LT$T$GT$4init17h946bd584d51faabfE', symObjAddr: 0x1570, symBinAddr: 0x6634F8, symSize: 0x1A0 }
  - { offsetInCU: 0x342D, offset: 0x4CCA5, size: 0x8, addend: 0x0, symName: '__ZN4pyo34sync20GILOnceCell$LT$T$GT$4init17ha51208421c8bf7ebE', symObjAddr: 0x1710, symBinAddr: 0x663698, symSize: 0x1A0 }
  - { offsetInCU: 0x3504, offset: 0x4CD7C, size: 0x8, addend: 0x0, symName: '__ZN4pyo34sync20GILOnceCell$LT$T$GT$4init17hafadb777d1b03175E', symObjAddr: 0x18B0, symBinAddr: 0x663838, symSize: 0x1A0 }
  - { offsetInCU: 0x35DB, offset: 0x4CE53, size: 0x8, addend: 0x0, symName: '__ZN4pyo34sync20GILOnceCell$LT$T$GT$4init17he3bc7944227e5a9aE', symObjAddr: 0x1A50, symBinAddr: 0x6639D8, symSize: 0x1A0 }
  - { offsetInCU: 0x1E, offset: 0x4CF48, size: 0x8, addend: 0x0, symName: __ZN4pyo35impl_9pymethods11tp_new_impl17h29f34d09fc44afc0E, symObjAddr: 0x0, symBinAddr: 0x104D0, symSize: 0x6C }
  - { offsetInCU: 0x168B, offset: 0x4E5B5, size: 0x8, addend: 0x0, symName: '__ZN50_$LT$T$u20$as$u20$core..convert..Into$LT$U$GT$$GT$4into17h267c3c1444140818E', symObjAddr: 0x33C, symBinAddr: 0x1080C, symSize: 0x24 }
  - { offsetInCU: 0x16CB, offset: 0x4E5F5, size: 0x8, addend: 0x0, symName: '__ZN50_$LT$T$u20$as$u20$core..convert..Into$LT$U$GT$$GT$4into17h670fb17bc265fcdeE', symObjAddr: 0x360, symBinAddr: 0x10830, symSize: 0x24 }
  - { offsetInCU: 0x2113, offset: 0x4F03D, size: 0x8, addend: 0x0, symName: __ZN4pyo35impl_9pymethods11tp_new_impl17h29f34d09fc44afc0E, symObjAddr: 0x0, symBinAddr: 0x104D0, symSize: 0x6C }
  - { offsetInCU: 0x2178, offset: 0x4F0A2, size: 0x8, addend: 0x0, symName: __ZN4pyo35impl_9pymethods11tp_new_impl17h50ffcabc134269c6E, symObjAddr: 0x6C, symBinAddr: 0x1053C, symSize: 0x54 }
  - { offsetInCU: 0x21DA, offset: 0x4F104, size: 0x8, addend: 0x0, symName: __ZN4pyo35impl_9pymethods11tp_new_impl17h97a6561ca63f4bfcE, symObjAddr: 0xC0, symBinAddr: 0x10590, symSize: 0x54 }
  - { offsetInCU: 0x223C, offset: 0x4F166, size: 0x8, addend: 0x0, symName: __ZN4pyo35impl_9pymethods11tp_new_impl17hadcc65f9163e7db9E, symObjAddr: 0x114, symBinAddr: 0x105E4, symSize: 0x64 }
  - { offsetInCU: 0x22A1, offset: 0x4F1CB, size: 0x8, addend: 0x0, symName: __ZN4pyo35impl_9pymethods11tp_new_impl17hbb836678a68014f4E, symObjAddr: 0x178, symBinAddr: 0x10648, symSize: 0x6C }
  - { offsetInCU: 0x2306, offset: 0x4F230, size: 0x8, addend: 0x0, symName: __ZN4pyo35impl_9pymethods11tp_new_impl17hbfb179bd68b88287E, symObjAddr: 0x1E4, symBinAddr: 0x106B4, symSize: 0x6C }
  - { offsetInCU: 0x236B, offset: 0x4F295, size: 0x8, addend: 0x0, symName: __ZN4pyo35impl_9pymethods11tp_new_impl17hced0dbc02eb47c2dE, symObjAddr: 0x250, symBinAddr: 0x10720, symSize: 0x64 }
  - { offsetInCU: 0x23D0, offset: 0x4F2FA, size: 0x8, addend: 0x0, symName: __ZN4pyo35impl_9pymethods11tp_new_impl17hee23733b71d3397dE, symObjAddr: 0x2B4, symBinAddr: 0x10784, symSize: 0x64 }
  - { offsetInCU: 0x2494, offset: 0x4F3BE, size: 0x8, addend: 0x0, symName: '__ZN85_$LT$pyo3..impl_..pymethods..BoundRef$LT$T$GT$$u20$as$u20$core..ops..deref..Deref$GT$5deref17h5e51011039fcd2f9E', symObjAddr: 0x384, symBinAddr: 0x10854, symSize: 0x18 }
  - { offsetInCU: 0x33CA, offset: 0x502F4, size: 0x8, addend: 0x0, symName: '__ZN4pyo35impl_9pymethods39BoundRef$LT$pyo3..types..any..PyAny$GT$18downcast_unchecked17hcb60c2e34b139cd5E', symObjAddr: 0x318, symBinAddr: 0x107E8, symSize: 0x24 }
  - { offsetInCU: 0x1E, offset: 0x51546, size: 0x8, addend: 0x0, symName: __ZN4pyo33err5PyErr3new17habfb855db85a4bc3E, symObjAddr: 0x0, symBinAddr: 0x1086C, symSize: 0x9C }
  - { offsetInCU: 0x73, offset: 0x5159B, size: 0x8, addend: 0x0, symName: '__ZN4pyo33err5PyErr3new28_$u7b$$u7b$closure$u7d$$u7d$17h28b68d23f85b6bbdE', symObjAddr: 0x138, symBinAddr: 0x109A4, symSize: 0xC0 }
  - { offsetInCU: 0xCB, offset: 0x515F3, size: 0x8, addend: 0x0, symName: '__ZN4pyo33err5PyErr3new28_$u7b$$u7b$closure$u7d$$u7d$17he3a675b32041549cE', symObjAddr: 0x1F8, symBinAddr: 0x10A64, symSize: 0xC0 }
  - { offsetInCU: 0x1E17, offset: 0x5333F, size: 0x8, addend: 0x0, symName: __ZN4pyo33err5PyErr3new17habfb855db85a4bc3E, symObjAddr: 0x0, symBinAddr: 0x1086C, symSize: 0x9C }
  - { offsetInCU: 0x1E75, offset: 0x5339D, size: 0x8, addend: 0x0, symName: __ZN4pyo33err5PyErr3new17hb82de374821b1643E, symObjAddr: 0x9C, symBinAddr: 0x10908, symSize: 0x9C }
  - { offsetInCU: 0x1E, offset: 0x53444, size: 0x8, addend: 0x0, symName: __ZN4core4iter6traits8iterator8Iterator3map17hd387b008d01d7a8eE, symObjAddr: 0x0, symBinAddr: 0x10B24, symSize: 0x1C }
  - { offsetInCU: 0x853, offset: 0x53C79, size: 0x8, addend: 0x0, symName: __ZN4core4iter6traits8iterator8Iterator3map17hd387b008d01d7a8eE, symObjAddr: 0x0, symBinAddr: 0x10B24, symSize: 0x1C }
  - { offsetInCU: 0x8AB, offset: 0x53CD1, size: 0x8, addend: 0x0, symName: __ZN4core4iter6traits8iterator8Iterator6copied17h8b0a88daf96a8c7aE, symObjAddr: 0x1C, symBinAddr: 0x10B40, symSize: 0x1C }
  - { offsetInCU: 0x8EB, offset: 0x53D11, size: 0x8, addend: 0x0, symName: __ZN4core4iter6traits8iterator8Iterator9enumerate17hb1e43562e4089085E, symObjAddr: 0x38, symBinAddr: 0x10B5C, symSize: 0x28 }
  - { offsetInCU: 0xB34, offset: 0x53F5A, size: 0x8, addend: 0x0, symName: '__ZN91_$LT$core..slice..iter..Iter$LT$T$GT$$u20$as$u20$core..iter..traits..iterator..Iterator$GT$4fold17h15832a6e163962ecE', symObjAddr: 0x150, symBinAddr: 0x10C74, symSize: 0x1F0 }
  - { offsetInCU: 0xD3D, offset: 0x54163, size: 0x8, addend: 0x0, symName: '__ZN91_$LT$core..slice..iter..Iter$LT$T$GT$$u20$as$u20$core..iter..traits..iterator..Iterator$GT$4next17h6fba7dc8612ce9dfE', symObjAddr: 0x340, symBinAddr: 0x10E64, symSize: 0x84 }
  - { offsetInCU: 0xDF3, offset: 0x54219, size: 0x8, addend: 0x0, symName: '__ZN91_$LT$core..slice..iter..Iter$LT$T$GT$$u20$as$u20$core..iter..traits..iterator..Iterator$GT$4next17h824c435d35ea2f1eE', symObjAddr: 0x3C4, symBinAddr: 0x10EE8, symSize: 0x84 }
  - { offsetInCU: 0xEA9, offset: 0x542CF, size: 0x8, addend: 0x0, symName: '__ZN91_$LT$core..slice..iter..Iter$LT$T$GT$$u20$as$u20$core..iter..traits..iterator..Iterator$GT$4next17h98d2ba92078f073dE', symObjAddr: 0x448, symBinAddr: 0x10F6C, symSize: 0x84 }
  - { offsetInCU: 0xF5F, offset: 0x54385, size: 0x8, addend: 0x0, symName: '__ZN91_$LT$core..slice..iter..Iter$LT$T$GT$$u20$as$u20$core..iter..traits..iterator..Iterator$GT$4next17hb8eaf437530a1938E', symObjAddr: 0x4CC, symBinAddr: 0x10FF0, symSize: 0x84 }
  - { offsetInCU: 0x1064, offset: 0x5448A, size: 0x8, addend: 0x0, symName: '__ZN91_$LT$core..slice..iter..Iter$LT$T$GT$$u20$as$u20$core..iter..traits..iterator..Iterator$GT$8position17h03d56dbfce00e83bE', symObjAddr: 0x550, symBinAddr: 0x11074, symSize: 0x1D0 }
  - { offsetInCU: 0x12C1, offset: 0x546E7, size: 0x8, addend: 0x0, symName: '__ZN91_$LT$core..slice..iter..Iter$LT$T$GT$$u20$as$u20$core..iter..traits..iterator..Iterator$GT$8position17h6f025797ff3af32dE', symObjAddr: 0x720, symBinAddr: 0x11244, symSize: 0x1D0 }
  - { offsetInCU: 0x1541, offset: 0x54967, size: 0x8, addend: 0x0, symName: '__ZN94_$LT$core..slice..iter..IterMut$LT$T$GT$$u20$as$u20$core..iter..traits..iterator..Iterator$GT$4next17h96dbe4fbeb7d4d69E', symObjAddr: 0x8F0, symBinAddr: 0x11414, symSize: 0x84 }
  - { offsetInCU: 0x1646, offset: 0x54A6C, size: 0x8, addend: 0x0, symName: '__ZN94_$LT$core..slice..iter..IterMut$LT$T$GT$$u20$as$u20$core..iter..traits..iterator..Iterator$GT$8for_each17h0cebe7708a82655eE', symObjAddr: 0x974, symBinAddr: 0x11498, symSize: 0xB4 }
  - { offsetInCU: 0x2FB5, offset: 0x563DB, size: 0x8, addend: 0x0, symName: '__ZN4core5slice4iter13Iter$LT$T$GT$3new17h1b77399c5ad9cb5bE', symObjAddr: 0x60, symBinAddr: 0x10B84, symSize: 0x50 }
  - { offsetInCU: 0x3791, offset: 0x56BB7, size: 0x8, addend: 0x0, symName: '__ZN4core5slice4iter13Iter$LT$T$GT$3new17hf13d36497865ed58E', symObjAddr: 0xB0, symBinAddr: 0x10BD4, symSize: 0x50 }
  - { offsetInCU: 0x3A72, offset: 0x56E98, size: 0x8, addend: 0x0, symName: '__ZN4core5slice4iter13Iter$LT$T$GT$3new17hf80f6ef66b9dff1eE', symObjAddr: 0x100, symBinAddr: 0x10C24, symSize: 0x50 }
  - { offsetInCU: 0x1E, offset: 0x57427, size: 0x8, addend: 0x0, symName: '__ZN111_$LT$T$u20$as$u20$pyo3..impl_..callback..IntoPyCallbackOutput$LT$$BP$mut$u20$pyo3_ffi..object..PyObject$GT$$GT$7convert17h108cbdfab7de3126E', symObjAddr: 0x0, symBinAddr: 0x1154C, symSize: 0x44 }
  - { offsetInCU: 0x14BD, offset: 0x588C6, size: 0x8, addend: 0x0, symName: '__ZN111_$LT$T$u20$as$u20$pyo3..impl_..callback..IntoPyCallbackOutput$LT$$BP$mut$u20$pyo3_ffi..object..PyObject$GT$$GT$7convert17h108cbdfab7de3126E', symObjAddr: 0x0, symBinAddr: 0x1154C, symSize: 0x44 }
  - { offsetInCU: 0x1E, offset: 0x59265, size: 0x8, addend: 0x0, symName: '__ZN58_$LT$alloc..string..String$u20$as$u20$core..fmt..Write$GT$10write_char17ha2eb962478941e80E', symObjAddr: 0x0, symBinAddr: 0x11590, symSize: 0x30 }
  - { offsetInCU: 0x3A, offset: 0x59281, size: 0x8, addend: 0x0, symName: '__ZN58_$LT$alloc..string..String$u20$as$u20$core..fmt..Write$GT$10write_char17ha2eb962478941e80E', symObjAddr: 0x0, symBinAddr: 0x11590, symSize: 0x30 }
  - { offsetInCU: 0x77, offset: 0x592BE, size: 0x8, addend: 0x0, symName: '__ZN58_$LT$alloc..string..String$u20$as$u20$core..fmt..Write$GT$9write_str17hd3f5df20d1dc098bE', symObjAddr: 0x30, symBinAddr: 0x115C0, symSize: 0x38 }
  - { offsetInCU: 0xA67, offset: 0x59CAE, size: 0x8, addend: 0x0, symName: __ZN5alloc6string6String4push17hab06d3159c556311E, symObjAddr: 0x68, symBinAddr: 0x115F8, symSize: 0x114 }
  - { offsetInCU: 0xE4E, offset: 0x5A095, size: 0x8, addend: 0x0, symName: __ZN5alloc6string6String8push_str17h7c942b1369fe0126E, symObjAddr: 0x17C, symBinAddr: 0x1170C, symSize: 0xDC }
  - { offsetInCU: 0x1E, offset: 0x5A3E1, size: 0x8, addend: 0x0, symName: '__ZN4core5slice29_$LT$impl$u20$$u5b$T$u5d$$GT$18split_at_unchecked18precondition_check17h72253567b2475a07E', symObjAddr: 0x0, symBinAddr: 0x117E8, symSize: 0x60 }
  - { offsetInCU: 0x3F, offset: 0x5A402, size: 0x8, addend: 0x0, symName: '__ZN4core5slice29_$LT$impl$u20$$u5b$T$u5d$$GT$18split_at_unchecked18precondition_check17h72253567b2475a07E', symObjAddr: 0x0, symBinAddr: 0x117E8, symSize: 0x60 }
  - { offsetInCU: 0x1E, offset: 0x5A4AC, size: 0x8, addend: 0x0, symName: '__ZN111_$LT$alloc..vec..in_place_drop..InPlaceDstDataSrcBufDrop$LT$Src$C$Dest$GT$$u20$as$u20$core..ops..drop..Drop$GT$4drop17hd1d00609779a24c2E', symObjAddr: 0x0, symBinAddr: 0x11848, symSize: 0xB4 }
  - { offsetInCU: 0xB78, offset: 0x5B006, size: 0x8, addend: 0x0, symName: '__ZN4core3ptr100drop_in_place$LT$core..result..Result$LT$_native..py_config..PyGridConfig$C$pyo3..err..PyErr$GT$$GT$17h63af78bde7b14c22E', symObjAddr: 0x1118, symBinAddr: 0x1293C, symSize: 0x40 }
  - { offsetInCU: 0xBA7, offset: 0x5B035, size: 0x8, addend: 0x0, symName: '__ZN4core3ptr100drop_in_place$LT$core..result..Result$LT$_native..py_config..PyMaskConfig$C$pyo3..err..PyErr$GT$$GT$17hdfea854cc6cf203dE', symObjAddr: 0x1158, symBinAddr: 0x1297C, symSize: 0x50 }
  - { offsetInCU: 0xBD6, offset: 0x5B064, size: 0x8, addend: 0x0, symName: '__ZN4core3ptr101drop_in_place$LT$pyo3..pyclass_init..PyClassInitializer$LT$_native..py_config..PyOpticsConfig$GT$$GT$17haba192ad98036096E', symObjAddr: 0x11A8, symBinAddr: 0x129CC, symSize: 0x24 }
  - { offsetInCU: 0xC05, offset: 0x5B093, size: 0x8, addend: 0x0, symName: '__ZN4core3ptr101drop_in_place$LT$pyo3..pyclass_init..PyClassInitializer$LT$_native..py_config..PyResistConfig$GT$$GT$17ha9f76111f247274aE', symObjAddr: 0x11CC, symBinAddr: 0x129F0, symSize: 0x24 }
  - { offsetInCU: 0xC34, offset: 0x5B0C2, size: 0x8, addend: 0x0, symName: '__ZN4core3ptr101drop_in_place$LT$pyo3..pyclass_init..PyClassInitializer$LT$_native..py_config..PySourceConfig$GT$$GT$17h24846072563113bcE', symObjAddr: 0x11F0, symBinAddr: 0x12A14, symSize: 0x24 }
  - { offsetInCU: 0xC63, offset: 0x5B0F1, size: 0x8, addend: 0x0, symName: '__ZN4core3ptr102drop_in_place$LT$core..result..Result$LT$_native..py_config..PyResistConfig$C$pyo3..err..PyErr$GT$$GT$17h479f5ba2c5602ae5E', symObjAddr: 0x1214, symBinAddr: 0x12A38, symSize: 0x4C }
  - { offsetInCU: 0xC92, offset: 0x5B120, size: 0x8, addend: 0x0, symName: '__ZN4core3ptr102drop_in_place$LT$core..result..Result$LT$_native..py_config..PySourceConfig$C$pyo3..err..PyErr$GT$$GT$17h0e19b68b90d750e0E', symObjAddr: 0x1260, symBinAddr: 0x12A84, symSize: 0x58 }
  - { offsetInCU: 0xCC1, offset: 0x5B14F, size: 0x8, addend: 0x0, symName: '__ZN4core3ptr102drop_in_place$LT$pyo3..pyclass_init..PyClassInitializer$LT$_native..py_config..PyProcessConfig$GT$$GT$17h16f520b029ba65b0E', symObjAddr: 0x12B8, symBinAddr: 0x12ADC, symSize: 0x24 }
  - { offsetInCU: 0xCF0, offset: 0x5B17E, size: 0x8, addend: 0x0, symName: '__ZN4core3ptr102drop_in_place$LT$pyo3..pyclass_init..PyClassInitializer$LT$_native..py_sweep..PyBatchSimulator$GT$$GT$17haf7aa949bed7f0e5E', symObjAddr: 0x12DC, symBinAddr: 0x12B00, symSize: 0x24 }
  - { offsetInCU: 0xD1F, offset: 0x5B1AD, size: 0x8, addend: 0x0, symName: '__ZN4core3ptr103drop_in_place$LT$core..result..Result$LT$_native..py_sweep..PyBatchSimulator$C$pyo3..err..PyErr$GT$$GT$17he32d7359975ee3d3E', symObjAddr: 0x1300, symBinAddr: 0x12B24, symSize: 0x58 }
  - { offsetInCU: 0xD4E, offset: 0x5B1DC, size: 0x8, addend: 0x0, symName: '__ZN4core3ptr103drop_in_place$LT$pyo3..pyclass_init..PyClassInitializerImpl$LT$_native..py_config..PyGridConfig$GT$$GT$17h553052033800d61cE', symObjAddr: 0x1358, symBinAddr: 0x12B7C, symSize: 0x40 }
  - { offsetInCU: 0xD7D, offset: 0x5B20B, size: 0x8, addend: 0x0, symName: '__ZN4core3ptr103drop_in_place$LT$pyo3..pyclass_init..PyClassInitializerImpl$LT$_native..py_config..PyMaskConfig$GT$$GT$17hb0d273cc632ebabdE', symObjAddr: 0x1398, symBinAddr: 0x12BBC, symSize: 0x54 }
  - { offsetInCU: 0xDAC, offset: 0x5B23A, size: 0x8, addend: 0x0, symName: '__ZN4core3ptr104drop_in_place$LT$pyo3..pyclass_init..PyClassInitializer$LT$_native..py_config..PyFilmStackConfig$GT$$GT$17h1b7995fbc20dc371E', symObjAddr: 0x13EC, symBinAddr: 0x12C10, symSize: 0x24 }
  - { offsetInCU: 0xDDB, offset: 0x5B269, size: 0x8, addend: 0x0, symName: '__ZN4core3ptr105drop_in_place$LT$pyo3..pyclass_init..PyClassInitializerImpl$LT$_native..py_config..PyOpticsConfig$GT$$GT$17h8dc3a7ce1527fa41E', symObjAddr: 0x1410, symBinAddr: 0x12C34, symSize: 0x54 }
  - { offsetInCU: 0xE0A, offset: 0x5B298, size: 0x8, addend: 0x0, symName: '__ZN4core3ptr105drop_in_place$LT$pyo3..pyclass_init..PyClassInitializerImpl$LT$_native..py_config..PyResistConfig$GT$$GT$17h009ebcf855350230E', symObjAddr: 0x1464, symBinAddr: 0x12C88, symSize: 0x48 }
  - { offsetInCU: 0xE39, offset: 0x5B2C7, size: 0x8, addend: 0x0, symName: '__ZN4core3ptr105drop_in_place$LT$pyo3..pyclass_init..PyClassInitializerImpl$LT$_native..py_config..PySourceConfig$GT$$GT$17h21d12016a61730b1E', symObjAddr: 0x14AC, symBinAddr: 0x12CD0, symSize: 0x54 }
  - { offsetInCU: 0xE68, offset: 0x5B2F6, size: 0x8, addend: 0x0, symName: '__ZN4core3ptr106drop_in_place$LT$pyo3..pyclass_init..PyClassInitializerImpl$LT$_native..py_config..PyProcessConfig$GT$$GT$17h4dbc962c27efac10E', symObjAddr: 0x1500, symBinAddr: 0x12D24, symSize: 0x40 }
  - { offsetInCU: 0xE97, offset: 0x5B325, size: 0x8, addend: 0x0, symName: '__ZN4core3ptr106drop_in_place$LT$pyo3..pyclass_init..PyClassInitializerImpl$LT$_native..py_sweep..PyBatchSimulator$GT$$GT$17he1cb3edc5a43a2f6E', symObjAddr: 0x1540, symBinAddr: 0x12D64, symSize: 0x54 }
  - { offsetInCU: 0xEC6, offset: 0x5B354, size: 0x8, addend: 0x0, symName: '__ZN4core3ptr107drop_in_place$LT$pyo3..pyclass_init..PyClassInitializer$LT$_native..py_results..PyAerialImageResult$GT$$GT$17h957607025457e116E', symObjAddr: 0x1594, symBinAddr: 0x12DB8, symSize: 0x24 }
  - { offsetInCU: 0xEF5, offset: 0x5B383, size: 0x8, addend: 0x0, symName: '__ZN4core3ptr107drop_in_place$LT$pyo3..pyclass_init..PyClassInitializer$LT$_native..py_sweep..PyProcessWindowResult$GT$$GT$17hef4ac22f562dfb23E', symObjAddr: 0x15B8, symBinAddr: 0x12DDC, symSize: 0x24 }
  - { offsetInCU: 0xF24, offset: 0x5B3B2, size: 0x8, addend: 0x0, symName: '__ZN4core3ptr108drop_in_place$LT$core..option..Option$LT$pyo3..pycell..PyRef$LT$_native..py_config..PyGridConfig$GT$$GT$$GT$17h1526cac301aed393E', symObjAddr: 0x15DC, symBinAddr: 0x12E00, symSize: 0x44 }
  - { offsetInCU: 0xF53, offset: 0x5B3E1, size: 0x8, addend: 0x0, symName: '__ZN4core3ptr108drop_in_place$LT$core..option..Option$LT$pyo3..pycell..PyRef$LT$_native..py_config..PyMaskConfig$GT$$GT$$GT$17haa561cadea011ea2E', symObjAddr: 0x1620, symBinAddr: 0x12E44, symSize: 0x44 }
  - { offsetInCU: 0xF82, offset: 0x5B410, size: 0x8, addend: 0x0, symName: '__ZN4core3ptr108drop_in_place$LT$core..result..Result$LT$_native..py_results..PyAerialImageResult$C$pyo3..err..PyErr$GT$$GT$17h9575a3eacfbd9336E', symObjAddr: 0x1664, symBinAddr: 0x12E88, symSize: 0x58 }
  - { offsetInCU: 0xFB1, offset: 0x5B43F, size: 0x8, addend: 0x0, symName: '__ZN4core3ptr108drop_in_place$LT$core..result..Result$LT$_native..py_sweep..PyProcessWindowResult$C$pyo3..err..PyErr$GT$$GT$17h01463c79730a65b8E', symObjAddr: 0x16BC, symBinAddr: 0x12EE0, symSize: 0x5C }
  - { offsetInCU: 0xFE0, offset: 0x5B46E, size: 0x8, addend: 0x0, symName: '__ZN4core3ptr108drop_in_place$LT$pyo3..pyclass_init..PyClassInitializerImpl$LT$_native..py_config..PyFilmStackConfig$GT$$GT$17hf42f0d7cefcc39acE', symObjAddr: 0x1718, symBinAddr: 0x12F3C, symSize: 0x58 }
  - { offsetInCU: 0x100F, offset: 0x5B49D, size: 0x8, addend: 0x0, symName: '__ZN4core3ptr109drop_in_place$LT$pyo3..pyclass_init..PyClassInitializer$LT$_native..py_results..PyResistProfileResult$GT$$GT$17hb0350ab3974a01beE', symObjAddr: 0x1770, symBinAddr: 0x12F94, symSize: 0x24 }
  - { offsetInCU: 0x103E, offset: 0x5B4CC, size: 0x8, addend: 0x0, symName: '__ZN4core3ptr109drop_in_place$LT$pyo3..pyclass_init..PyClassInitializer$LT$_native..py_simulation..PySimulationEngine$GT$$GT$17h71c20fce6f7ad1eaE', symObjAddr: 0x1794, symBinAddr: 0x12FB8, symSize: 0x24 }
  - { offsetInCU: 0x106D, offset: 0x5B4FB, size: 0x8, addend: 0x0, symName: '__ZN4core3ptr110drop_in_place$LT$core..option..Option$LT$pyo3..pycell..PyRef$LT$_native..py_config..PyOpticsConfig$GT$$GT$$GT$17h7e4bc51023182577E', symObjAddr: 0x17B8, symBinAddr: 0x12FDC, symSize: 0x44 }
  - { offsetInCU: 0x109C, offset: 0x5B52A, size: 0x8, addend: 0x0, symName: '__ZN4core3ptr110drop_in_place$LT$core..option..Option$LT$pyo3..pycell..PyRef$LT$_native..py_config..PyResistConfig$GT$$GT$$GT$17hf154fad4adb0a7c8E', symObjAddr: 0x17FC, symBinAddr: 0x13020, symSize: 0x44 }
  - { offsetInCU: 0x10CB, offset: 0x5B559, size: 0x8, addend: 0x0, symName: '__ZN4core3ptr110drop_in_place$LT$core..option..Option$LT$pyo3..pycell..PyRef$LT$_native..py_config..PySourceConfig$GT$$GT$$GT$17h2379d2054f10d493E', symObjAddr: 0x1840, symBinAddr: 0x13064, symSize: 0x44 }
  - { offsetInCU: 0x10FA, offset: 0x5B588, size: 0x8, addend: 0x0, symName: '__ZN4core3ptr110drop_in_place$LT$core..result..Result$LT$_native..py_results..PyResistProfileResult$C$pyo3..err..PyErr$GT$$GT$17h6e9208c248fc5c6aE', symObjAddr: 0x1884, symBinAddr: 0x130A8, symSize: 0x50 }
  - { offsetInCU: 0x1129, offset: 0x5B5B7, size: 0x8, addend: 0x0, symName: '__ZN4core3ptr110drop_in_place$LT$core..result..Result$LT$_native..py_simulation..PySimulationEngine$C$pyo3..err..PyErr$GT$$GT$17h2d1d741c5a2bdfb1E', symObjAddr: 0x18D4, symBinAddr: 0x130F8, symSize: 0x58 }
  - { offsetInCU: 0x1158, offset: 0x5B5E6, size: 0x8, addend: 0x0, symName: '__ZN4core3ptr111drop_in_place$LT$core..option..Option$LT$pyo3..pycell..PyRef$LT$_native..py_config..PyProcessConfig$GT$$GT$$GT$17h5206aef70fbe40e8E', symObjAddr: 0x192C, symBinAddr: 0x13150, symSize: 0x44 }
  - { offsetInCU: 0x1187, offset: 0x5B615, size: 0x8, addend: 0x0, symName: '__ZN4core3ptr111drop_in_place$LT$core..option..Option$LT$pyo3..pycell..PyRef$LT$_native..py_sweep..PyBatchSimulator$GT$$GT$$GT$17ha1992f268e550d97E', symObjAddr: 0x1970, symBinAddr: 0x13194, symSize: 0x44 }
  - { offsetInCU: 0x11B6, offset: 0x5B644, size: 0x8, addend: 0x0, symName: '__ZN4core3ptr111drop_in_place$LT$pyo3..pyclass_init..PyClassInitializerImpl$LT$_native..py_results..PyAerialImageResult$GT$$GT$17h0c4dab79ff2e93a9E', symObjAddr: 0x19B4, symBinAddr: 0x131D8, symSize: 0x54 }
  - { offsetInCU: 0x11E5, offset: 0x5B673, size: 0x8, addend: 0x0, symName: '__ZN4core3ptr111drop_in_place$LT$pyo3..pyclass_init..PyClassInitializerImpl$LT$_native..py_sweep..PyProcessWindowResult$GT$$GT$17h2dffe4cd7a74e442E', symObjAddr: 0x1A08, symBinAddr: 0x1322C, symSize: 0x58 }
  - { offsetInCU: 0x1214, offset: 0x5B6A2, size: 0x8, addend: 0x0, symName: '__ZN4core3ptr113drop_in_place$LT$core..option..Option$LT$pyo3..pycell..PyRef$LT$_native..py_config..PyFilmStackConfig$GT$$GT$$GT$17hab532c4c671e93f7E', symObjAddr: 0x1A60, symBinAddr: 0x13284, symSize: 0x44 }
  - { offsetInCU: 0x1243, offset: 0x5B6D1, size: 0x8, addend: 0x0, symName: '__ZN4core3ptr113drop_in_place$LT$core..option..Option$LT$pyo3..pycell..PyRefMut$LT$_native..py_config..PyOpticsConfig$GT$$GT$$GT$17h6e91be8aa9aacdb4E', symObjAddr: 0x1AA4, symBinAddr: 0x132C8, symSize: 0x44 }
  - { offsetInCU: 0x1272, offset: 0x5B700, size: 0x8, addend: 0x0, symName: '__ZN4core3ptr113drop_in_place$LT$pyo3..pyclass_init..PyClassInitializerImpl$LT$_native..py_results..PyResistProfileResult$GT$$GT$17h72fa7a851f4514caE', symObjAddr: 0x1AE8, symBinAddr: 0x1330C, symSize: 0x58 }
  - { offsetInCU: 0x12A1, offset: 0x5B72F, size: 0x8, addend: 0x0, symName: '__ZN4core3ptr113drop_in_place$LT$pyo3..pyclass_init..PyClassInitializerImpl$LT$_native..py_simulation..PySimulationEngine$GT$$GT$17hb38ee7985835befeE', symObjAddr: 0x1B40, symBinAddr: 0x13364, symSize: 0x54 }
  - { offsetInCU: 0x12D0, offset: 0x5B75E, size: 0x8, addend: 0x0, symName: '__ZN4core3ptr114drop_in_place$LT$core..option..Option$LT$pyo3..pycell..PyRefMut$LT$_native..py_config..PyProcessConfig$GT$$GT$$GT$17h17571f5775fc8e4eE', symObjAddr: 0x1B94, symBinAddr: 0x133B8, symSize: 0x44 }
  - { offsetInCU: 0x12FF, offset: 0x5B78D, size: 0x8, addend: 0x0, symName: '__ZN4core3ptr116drop_in_place$LT$core..option..Option$LT$pyo3..pycell..PyRef$LT$_native..py_results..PyAerialImageResult$GT$$GT$$GT$17hd4b320f3f79196d9E', symObjAddr: 0x1C20, symBinAddr: 0x133FC, symSize: 0x44 }
  - { offsetInCU: 0x132E, offset: 0x5B7BC, size: 0x8, addend: 0x0, symName: '__ZN4core3ptr116drop_in_place$LT$core..option..Option$LT$pyo3..pycell..PyRef$LT$_native..py_sweep..PyProcessWindowResult$GT$$GT$$GT$17hc6af7899975b2565E', symObjAddr: 0x1C64, symBinAddr: 0x13440, symSize: 0x44 }
  - { offsetInCU: 0x135D, offset: 0x5B7EB, size: 0x8, addend: 0x0, symName: '__ZN4core3ptr116drop_in_place$LT$core..option..Option$LT$pyo3..pycell..PyRefMut$LT$_native..py_config..PyFilmStackConfig$GT$$GT$$GT$17h9efc12abe8b61df0E', symObjAddr: 0x1CA8, symBinAddr: 0x13484, symSize: 0x44 }
  - { offsetInCU: 0x138C, offset: 0x5B81A, size: 0x8, addend: 0x0, symName: '__ZN4core3ptr118drop_in_place$LT$core..option..Option$LT$pyo3..pycell..PyRef$LT$_native..py_results..PyResistProfileResult$GT$$GT$$GT$17h5da65139aab8741eE', symObjAddr: 0x1D58, symBinAddr: 0x134C8, symSize: 0x44 }
  - { offsetInCU: 0x13BB, offset: 0x5B849, size: 0x8, addend: 0x0, symName: '__ZN4core3ptr118drop_in_place$LT$core..option..Option$LT$pyo3..pycell..PyRef$LT$_native..py_simulation..PySimulationEngine$GT$$GT$$GT$17h72b1cb35d31f6ceeE', symObjAddr: 0x1D9C, symBinAddr: 0x1350C, symSize: 0x44 }
  - { offsetInCU: 0x13EA, offset: 0x5B878, size: 0x8, addend: 0x0, symName: '__ZN4core3ptr128drop_in_place$LT$alloc..vec..into_iter..IntoIter$LT$$LP$f64$C$alloc..vec..Vec$LT$num_complex..Complex$LT$f64$GT$$GT$$RP$$GT$$GT$17h9eac4445789a3e2fE', symObjAddr: 0x1EDC, symBinAddr: 0x13550, symSize: 0x24 }
  - { offsetInCU: 0x1419, offset: 0x5B8A7, size: 0x8, addend: 0x0, symName: '__ZN4core3ptr147drop_in_place$LT$pyo3..instance..Bound$LT$numpy..array..PyArray$LT$f64$C$ndarray..dimension..dim..Dim$LT$$u5b$usize$u3b$$u20$1$u5d$$GT$$GT$$GT$$GT$17h8a8dc84ab900d052E', symObjAddr: 0x1F00, symBinAddr: 0x13574, symSize: 0x24 }
  - { offsetInCU: 0x1448, offset: 0x5B8D6, size: 0x8, addend: 0x0, symName: '__ZN4core3ptr147drop_in_place$LT$pyo3..instance..Bound$LT$numpy..array..PyArray$LT$f64$C$ndarray..dimension..dim..Dim$LT$$u5b$usize$u3b$$u20$2$u5d$$GT$$GT$$GT$$GT$17h45c95bdf85af5d5dE', symObjAddr: 0x1F24, symBinAddr: 0x13598, symSize: 0x24 }
  - { offsetInCU: 0x1477, offset: 0x5B905, size: 0x8, addend: 0x0, symName: '__ZN4core3ptr161drop_in_place$LT$$LP$f64$C$pyo3..instance..Bound$LT$numpy..array..PyArray$LT$f64$C$ndarray..dimension..dim..Dim$LT$$u5b$usize$u3b$$u20$2$u5d$$GT$$GT$$GT$$RP$$GT$17hcb2e290a84846519E', symObjAddr: 0x1F48, symBinAddr: 0x135BC, symSize: 0x24 }
  - { offsetInCU: 0x14A6, offset: 0x5B934, size: 0x8, addend: 0x0, symName: '__ZN4core3ptr171drop_in_place$LT$$u5b$$LP$f64$C$pyo3..instance..Bound$LT$numpy..array..PyArray$LT$f64$C$ndarray..dimension..dim..Dim$LT$$u5b$usize$u3b$$u20$2$u5d$$GT$$GT$$GT$$RP$$u5d$$GT$17hf92ac28ccbd2c5d6E', symObjAddr: 0x1F6C, symBinAddr: 0x135E0, symSize: 0xB4 }
  - { offsetInCU: 0x14D5, offset: 0x5B963, size: 0x8, addend: 0x0, symName: '__ZN4core3ptr184drop_in_place$LT$alloc..vec..Vec$LT$$LP$f64$C$pyo3..instance..Bound$LT$numpy..array..PyArray$LT$f64$C$ndarray..dimension..dim..Dim$LT$$u5b$usize$u3b$$u20$2$u5d$$GT$$GT$$GT$$RP$$GT$$GT$17hb994da4ad38e5bacE', symObjAddr: 0x2020, symBinAddr: 0x13694, symSize: 0x5C }
  - { offsetInCU: 0x1504, offset: 0x5B992, size: 0x8, addend: 0x0, symName: '__ZN4core3ptr191drop_in_place$LT$alloc..raw_vec..RawVec$LT$$LP$f64$C$pyo3..instance..Bound$LT$numpy..array..PyArray$LT$f64$C$ndarray..dimension..dim..Dim$LT$$u5b$usize$u3b$$u20$2$u5d$$GT$$GT$$GT$$RP$$GT$$GT$17hb649e29a57e30499E', symObjAddr: 0x207C, symBinAddr: 0x136F0, symSize: 0x24 }
  - { offsetInCU: 0x1533, offset: 0x5B9C1, size: 0x8, addend: 0x0, symName: '__ZN4core3ptr194drop_in_place$LT$$LP$f64$C$ndarray..ArrayBase$LT$ndarray..data_repr..OwnedRepr$LT$num_complex..Complex$LT$f64$GT$$GT$$C$ndarray..dimension..dim..Dim$LT$$u5b$usize$u3b$$u20$2$u5d$$GT$$GT$$RP$$GT$17hfb92846d8ae4e918E', symObjAddr: 0x20A0, symBinAddr: 0x13714, symSize: 0x24 }
  - { offsetInCU: 0x1562, offset: 0x5B9F0, size: 0x8, addend: 0x0, symName: '__ZN4core3ptr200drop_in_place$LT$alloc..vec..into_iter..IntoIter$LT$$LP$f64$C$pyo3..instance..Bound$LT$numpy..array..PyArray$LT$f64$C$ndarray..dimension..dim..Dim$LT$$u5b$usize$u3b$$u20$2$u5d$$GT$$GT$$GT$$RP$$GT$$GT$17h65c39a3e4a6bd778E', symObjAddr: 0x20C4, symBinAddr: 0x13738, symSize: 0x24 }
  - { offsetInCU: 0x1591, offset: 0x5BA1F, size: 0x8, addend: 0x0, symName: '__ZN4core3ptr204drop_in_place$LT$$u5b$$LP$f64$C$ndarray..ArrayBase$LT$ndarray..data_repr..OwnedRepr$LT$num_complex..Complex$LT$f64$GT$$GT$$C$ndarray..dimension..dim..Dim$LT$$u5b$usize$u3b$$u20$2$u5d$$GT$$GT$$RP$$u5d$$GT$17h1c1959d15dceed03E', symObjAddr: 0x20E8, symBinAddr: 0x1375C, symSize: 0xC4 }
  - { offsetInCU: 0x15C0, offset: 0x5BA4E, size: 0x8, addend: 0x0, symName: '__ZN4core3ptr205drop_in_place$LT$alloc..vec..into_iter..IntoIter$LT$$LP$f64$C$ndarray..ArrayBase$LT$ndarray..data_repr..OwnedRepr$LT$f64$GT$$C$ndarray..dimension..dim..Dim$LT$$u5b$usize$u3b$$u20$2$u5d$$GT$$GT$$RP$$GT$$GT$17h13914ac5d4ab8eb3E', symObjAddr: 0x21AC, symBinAddr: 0x13820, symSize: 0x24 }
  - { offsetInCU: 0x15EF, offset: 0x5BA7D, size: 0x8, addend: 0x0, symName: '__ZN4core3ptr207drop_in_place$LT$alloc..vec..in_place_drop..InPlaceDrop$LT$$LP$f64$C$pyo3..instance..Bound$LT$numpy..array..PyArray$LT$f64$C$ndarray..dimension..dim..Dim$LT$$u5b$usize$u3b$$u20$2$u5d$$GT$$GT$$GT$$RP$$GT$$GT$17haab11e944565742dE', symObjAddr: 0x21D0, symBinAddr: 0x13844, symSize: 0x24 }
  - { offsetInCU: 0x161E, offset: 0x5BAAC, size: 0x8, addend: 0x0, symName: '__ZN4core3ptr217drop_in_place$LT$alloc..vec..Vec$LT$$LP$f64$C$ndarray..ArrayBase$LT$ndarray..data_repr..OwnedRepr$LT$num_complex..Complex$LT$f64$GT$$GT$$C$ndarray..dimension..dim..Dim$LT$$u5b$usize$u3b$$u20$2$u5d$$GT$$GT$$RP$$GT$$GT$17hc2c95cab8f8051d2E', symObjAddr: 0x21F4, symBinAddr: 0x13868, symSize: 0x5C }
  - { offsetInCU: 0x164D, offset: 0x5BADB, size: 0x8, addend: 0x0, symName: '__ZN4core3ptr222drop_in_place$LT$$LT$alloc..vec..into_iter..IntoIter$LT$T$C$A$GT$$u20$as$u20$core..ops..drop..Drop$GT$..drop..DropGuard$LT$$LP$f64$C$alloc..vec..Vec$LT$num_complex..Complex$LT$f64$GT$$GT$$RP$$C$alloc..alloc..Global$GT$$GT$17h27e87b1504c9fef2E', symObjAddr: 0x2250, symBinAddr: 0x138C4, symSize: 0x24 }
  - { offsetInCU: 0x167C, offset: 0x5BB0A, size: 0x8, addend: 0x0, symName: '__ZN4core3ptr224drop_in_place$LT$alloc..raw_vec..RawVec$LT$$LP$f64$C$ndarray..ArrayBase$LT$ndarray..data_repr..OwnedRepr$LT$num_complex..Complex$LT$f64$GT$$GT$$C$ndarray..dimension..dim..Dim$LT$$u5b$usize$u3b$$u20$2$u5d$$GT$$GT$$RP$$GT$$GT$17h3b23996b3c9fe99cE', symObjAddr: 0x2274, symBinAddr: 0x138E8, symSize: 0x24 }
  - { offsetInCU: 0x16AB, offset: 0x5BB39, size: 0x8, addend: 0x0, symName: '__ZN4core3ptr231drop_in_place$LT$core..result..Result$LT$alloc..vec..Vec$LT$$LP$f64$C$pyo3..instance..Bound$LT$numpy..array..PyArray$LT$f64$C$ndarray..dimension..dim..Dim$LT$$u5b$usize$u3b$$u20$2$u5d$$GT$$GT$$GT$$RP$$GT$$C$pyo3..err..PyErr$GT$$GT$17h71efda5f0a480879E', symObjAddr: 0x2298, symBinAddr: 0x1390C, symSize: 0x50 }
  - { offsetInCU: 0x16DA, offset: 0x5BB68, size: 0x8, addend: 0x0, symName: '__ZN4core3ptr242drop_in_place$LT$alloc..vec..Vec$LT$num_complex..Complex$LT$f64$GT$$GT$..extend_trusted$LT$core..iter..adapters..take..Take$LT$core..iter..sources..repeat..Repeat$LT$num_complex..Complex$LT$f64$GT$$GT$$GT$$GT$..$u7b$$u7b$closure$u7d$$u7d$$GT$17h092cf284b56ab3feE', symObjAddr: 0x22E8, symBinAddr: 0x1395C, symSize: 0x24 }
  - { offsetInCU: 0x1709, offset: 0x5BB97, size: 0x8, addend: 0x0, symName: '__ZN4core3ptr252drop_in_place$LT$alloc..vec..Vec$LT$f64$GT$..extend_trusted$LT$core..iter..adapters..map..Map$LT$core..ops..range..Range$LT$usize$GT$$C$_native..py_results..PyAerialImageResult..nils..$u7b$$u7b$closure$u7d$$u7d$$GT$$GT$..$u7b$$u7b$closure$u7d$$u7d$$GT$17h0bd8776fa8533e0bE', symObjAddr: 0x230C, symBinAddr: 0x13980, symSize: 0x24 }
  - { offsetInCU: 0x1738, offset: 0x5BBC6, size: 0x8, addend: 0x0, symName: '__ZN4core3ptr252drop_in_place$LT$alloc..vec..Vec$LT$f64$GT$..extend_trusted$LT$core..iter..adapters..map..Map$LT$core..ops..range..Range$LT$usize$GT$$C$_native..py_results..PyAerialImageResult..nils..$u7b$$u7b$closure$u7d$$u7d$$GT$$GT$..$u7b$$u7b$closure$u7d$$u7d$$GT$17h907bac786234d473E', symObjAddr: 0x2330, symBinAddr: 0x139A4, symSize: 0x24 }
  - { offsetInCU: 0x1767, offset: 0x5BBF5, size: 0x8, addend: 0x0, symName: '__ZN4core3ptr252drop_in_place$LT$alloc..vec..Vec$LT$f64$GT$..extend_trusted$LT$core..iter..adapters..map..Map$LT$core..ops..range..Range$LT$usize$GT$$C$_native..py_results..PyAerialImageResult..x_nm..$u7b$$u7b$closure$u7d$$u7d$$GT$$GT$..$u7b$$u7b$closure$u7d$$u7d$$GT$17h7bb96aba6f68a6eeE', symObjAddr: 0x2354, symBinAddr: 0x139C8, symSize: 0x24 }
  - { offsetInCU: 0x1796, offset: 0x5BC24, size: 0x8, addend: 0x0, symName: '__ZN4core3ptr252drop_in_place$LT$alloc..vec..Vec$LT$f64$GT$..extend_trusted$LT$core..iter..adapters..map..Map$LT$core..ops..range..Range$LT$usize$GT$$C$_native..py_results..PyAerialImageResult..y_nm..$u7b$$u7b$closure$u7d$$u7d$$GT$$GT$..$u7b$$u7b$closure$u7d$$u7d$$GT$17h3fecda64fca544e6E', symObjAddr: 0x2378, symBinAddr: 0x139EC, symSize: 0x24 }
  - { offsetInCU: 0x17C5, offset: 0x5BC53, size: 0x8, addend: 0x0, symName: '__ZN4core3ptr261drop_in_place$LT$alloc..vec..Vec$LT$f64$GT$..extend_trusted$LT$core..iter..adapters..map..Map$LT$core..ops..range..Range$LT$usize$GT$$C$_native..py_results..PyAerialImageResult..cross_section..$u7b$$u7b$closure$u7d$$u7d$$GT$$GT$..$u7b$$u7b$closure$u7d$$u7d$$GT$17h5c14153ba3672ceeE', symObjAddr: 0x239C, symBinAddr: 0x13A10, symSize: 0x24 }
  - { offsetInCU: 0x17F4, offset: 0x5BC82, size: 0x8, addend: 0x0, symName: '__ZN4core3ptr261drop_in_place$LT$alloc..vec..Vec$LT$f64$GT$..extend_trusted$LT$core..iter..adapters..map..Map$LT$core..ops..range..Range$LT$usize$GT$$C$_native..py_results..PyAerialImageResult..cross_section..$u7b$$u7b$closure$u7d$$u7d$$GT$$GT$..$u7b$$u7b$closure$u7d$$u7d$$GT$17h834089e39f5ddb87E', symObjAddr: 0x23C0, symBinAddr: 0x13A34, symSize: 0x24 }
  - { offsetInCU: 0x1823, offset: 0x5BCB1, size: 0x8, addend: 0x0, symName: '__ZN4core3ptr284drop_in_place$LT$$LP$pyo3..instance..Bound$LT$numpy..array..PyArray$LT$f64$C$ndarray..dimension..dim..Dim$LT$$u5b$usize$u3b$$u20$1$u5d$$GT$$GT$$GT$$C$pyo3..instance..Bound$LT$numpy..array..PyArray$LT$f64$C$ndarray..dimension..dim..Dim$LT$$u5b$usize$u3b$$u20$1$u5d$$GT$$GT$$GT$$RP$$GT$17hcdfb49cb7d96394eE', symObjAddr: 0x23E4, symBinAddr: 0x13A58, symSize: 0x60 }
  - { offsetInCU: 0x1852, offset: 0x5BCE0, size: 0x8, addend: 0x0, symName: '__ZN4core3ptr294drop_in_place$LT$$LT$alloc..vec..into_iter..IntoIter$LT$T$C$A$GT$$u20$as$u20$core..ops..drop..Drop$GT$..drop..DropGuard$LT$$LP$f64$C$pyo3..instance..Bound$LT$numpy..array..PyArray$LT$f64$C$ndarray..dimension..dim..Dim$LT$$u5b$usize$u3b$$u20$2$u5d$$GT$$GT$$GT$$RP$$C$alloc..alloc..Global$GT$$GT$17h416834956acc80e8E', symObjAddr: 0x2444, symBinAddr: 0x13AB8, symSize: 0x24 }
  - { offsetInCU: 0x1881, offset: 0x5BD0F, size: 0x8, addend: 0x0, symName: '__ZN4core3ptr299drop_in_place$LT$$LT$alloc..vec..into_iter..IntoIter$LT$T$C$A$GT$$u20$as$u20$core..ops..drop..Drop$GT$..drop..DropGuard$LT$$LP$f64$C$ndarray..ArrayBase$LT$ndarray..data_repr..OwnedRepr$LT$f64$GT$$C$ndarray..dimension..dim..Dim$LT$$u5b$usize$u3b$$u20$2$u5d$$GT$$GT$$RP$$C$alloc..alloc..Global$GT$$GT$17h5e1ce71654c9429dE', symObjAddr: 0x2468, symBinAddr: 0x13ADC, symSize: 0x24 }
  - { offsetInCU: 0x18B0, offset: 0x5BD3E, size: 0x8, addend: 0x0, symName: '__ZN4core3ptr325drop_in_place$LT$core..iter..adapters..map..Map$LT$alloc..vec..into_iter..IntoIter$LT$$LP$f64$C$ndarray..ArrayBase$LT$ndarray..data_repr..OwnedRepr$LT$f64$GT$$C$ndarray..dimension..dim..Dim$LT$$u5b$usize$u3b$$u20$2$u5d$$GT$$GT$$RP$$GT$$C$_native..py_sweep..PyBatchSimulator..batch_defocus..$u7b$$u7b$closure$u7d$$u7d$$GT$$GT$17hb1055e45c981e1e1E', symObjAddr: 0x248C, symBinAddr: 0x13B00, symSize: 0x24 }
  - { offsetInCU: 0x18DF, offset: 0x5BD6D, size: 0x8, addend: 0x0, symName: '__ZN4core3ptr331drop_in_place$LT$core..result..Result$LT$$LP$pyo3..instance..Bound$LT$numpy..array..PyArray$LT$f64$C$ndarray..dimension..dim..Dim$LT$$u5b$usize$u3b$$u20$1$u5d$$GT$$GT$$GT$$C$pyo3..instance..Bound$LT$numpy..array..PyArray$LT$f64$C$ndarray..dimension..dim..Dim$LT$$u5b$usize$u3b$$u20$1$u5d$$GT$$GT$$GT$$RP$$C$pyo3..err..PyErr$GT$$GT$17hdb08dd11933882d2E', symObjAddr: 0x24B0, symBinAddr: 0x13B24, symSize: 0x50 }
  - { offsetInCU: 0x190E, offset: 0x5BD9C, size: 0x8, addend: 0x0, symName: '__ZN4core3ptr349drop_in_place$LT$core..iter..traits..iterator..Iterator..for_each..call$LT$f64$C$alloc..vec..Vec$LT$f64$GT$..extend_trusted$LT$core..iter..adapters..map..Map$LT$core..ops..range..Range$LT$usize$GT$$C$_native..py_results..PyAerialImageResult..nils..$u7b$$u7b$closure$u7d$$u7d$$GT$$GT$..$u7b$$u7b$closure$u7d$$u7d$$GT$..$u7b$$u7b$closure$u7d$$u7d$$GT$17ha3d4b01537d2695fE', symObjAddr: 0x2500, symBinAddr: 0x13B74, symSize: 0x24 }
  - { offsetInCU: 0x193D, offset: 0x5BDCB, size: 0x8, addend: 0x0, symName: '__ZN4core3ptr349drop_in_place$LT$core..iter..traits..iterator..Iterator..for_each..call$LT$f64$C$alloc..vec..Vec$LT$f64$GT$..extend_trusted$LT$core..iter..adapters..map..Map$LT$core..ops..range..Range$LT$usize$GT$$C$_native..py_results..PyAerialImageResult..nils..$u7b$$u7b$closure$u7d$$u7d$$GT$$GT$..$u7b$$u7b$closure$u7d$$u7d$$GT$..$u7b$$u7b$closure$u7d$$u7d$$GT$17ha7183a11991004b7E', symObjAddr: 0x2524, symBinAddr: 0x13B98, symSize: 0x24 }
  - { offsetInCU: 0x196C, offset: 0x5BDFA, size: 0x8, addend: 0x0, symName: '__ZN4core3ptr349drop_in_place$LT$core..iter..traits..iterator..Iterator..for_each..call$LT$f64$C$alloc..vec..Vec$LT$f64$GT$..extend_trusted$LT$core..iter..adapters..map..Map$LT$core..ops..range..Range$LT$usize$GT$$C$_native..py_results..PyAerialImageResult..x_nm..$u7b$$u7b$closure$u7d$$u7d$$GT$$GT$..$u7b$$u7b$closure$u7d$$u7d$$GT$..$u7b$$u7b$closure$u7d$$u7d$$GT$17hb2d14742454a0582E', symObjAddr: 0x2548, symBinAddr: 0x13BBC, symSize: 0x24 }
  - { offsetInCU: 0x199B, offset: 0x5BE29, size: 0x8, addend: 0x0, symName: '__ZN4core3ptr349drop_in_place$LT$core..iter..traits..iterator..Iterator..for_each..call$LT$f64$C$alloc..vec..Vec$LT$f64$GT$..extend_trusted$LT$core..iter..adapters..map..Map$LT$core..ops..range..Range$LT$usize$GT$$C$_native..py_results..PyAerialImageResult..y_nm..$u7b$$u7b$closure$u7d$$u7d$$GT$$GT$..$u7b$$u7b$closure$u7d$$u7d$$GT$..$u7b$$u7b$closure$u7d$$u7d$$GT$17h079a67dbdb546cb8E', symObjAddr: 0x256C, symBinAddr: 0x13BE0, symSize: 0x24 }
  - { offsetInCU: 0x19CA, offset: 0x5BE58, size: 0x8, addend: 0x0, symName: '__ZN4core3ptr358drop_in_place$LT$core..iter..traits..iterator..Iterator..for_each..call$LT$f64$C$alloc..vec..Vec$LT$f64$GT$..extend_trusted$LT$core..iter..adapters..map..Map$LT$core..ops..range..Range$LT$usize$GT$$C$_native..py_results..PyAerialImageResult..cross_section..$u7b$$u7b$closure$u7d$$u7d$$GT$$GT$..$u7b$$u7b$closure$u7d$$u7d$$GT$..$u7b$$u7b$closure$u7d$$u7d$$GT$17h77588c5ab204507cE', symObjAddr: 0x2590, symBinAddr: 0x13C04, symSize: 0x24 }
  - { offsetInCU: 0x19F9, offset: 0x5BE87, size: 0x8, addend: 0x0, symName: '__ZN4core3ptr358drop_in_place$LT$core..iter..traits..iterator..Iterator..for_each..call$LT$f64$C$alloc..vec..Vec$LT$f64$GT$..extend_trusted$LT$core..iter..adapters..map..Map$LT$core..ops..range..Range$LT$usize$GT$$C$_native..py_results..PyAerialImageResult..cross_section..$u7b$$u7b$closure$u7d$$u7d$$GT$$GT$..$u7b$$u7b$closure$u7d$$u7d$$GT$..$u7b$$u7b$closure$u7d$$u7d$$GT$17hcb6984a2280a12b7E', symObjAddr: 0x25B4, symBinAddr: 0x13C28, symSize: 0x24 }
  - { offsetInCU: 0x1A28, offset: 0x5BEB6, size: 0x8, addend: 0x0, symName: '__ZN4core3ptr368drop_in_place$LT$alloc..vec..in_place_drop..InPlaceDstDataSrcBufDrop$LT$$LP$f64$C$ndarray..ArrayBase$LT$ndarray..data_repr..OwnedRepr$LT$f64$GT$$C$ndarray..dimension..dim..Dim$LT$$u5b$usize$u3b$$u20$2$u5d$$GT$$GT$$RP$$C$$LP$f64$C$pyo3..instance..Bound$LT$numpy..array..PyArray$LT$f64$C$ndarray..dimension..dim..Dim$LT$$u5b$usize$u3b$$u20$2$u5d$$GT$$GT$$GT$$RP$$GT$$GT$17he9c7a5fb1340fc27E', symObjAddr: 0x25D8, symBinAddr: 0x13C4C, symSize: 0x24 }
  - { offsetInCU: 0x1A57, offset: 0x5BEE5, size: 0x8, addend: 0x0, symName: '__ZN4core3ptr432drop_in_place$LT$$LT$core..iter..adapters..take..Take$LT$I$GT$$u20$as$u20$core..iter..adapters..take..SpecTake$GT$..spec_for_each..check$LT$num_complex..Complex$LT$f64$GT$$C$alloc..vec..Vec$LT$num_complex..Complex$LT$f64$GT$$GT$..extend_trusted$LT$core..iter..adapters..take..Take$LT$core..iter..sources..repeat..Repeat$LT$num_complex..Complex$LT$f64$GT$$GT$$GT$$GT$..$u7b$$u7b$closure$u7d$$u7d$$GT$..$u7b$$u7b$closure$u7d$$u7d$$GT$17hd7a95acc13b9fd44E', symObjAddr: 0x25FC, symBinAddr: 0x13C70, symSize: 0x24 }
  - { offsetInCU: 0x1A86, offset: 0x5BF14, size: 0x8, addend: 0x0, symName: '__ZN4core3ptr524drop_in_place$LT$core..iter..adapters..map..map_fold$LT$usize$C$f64$C$$LP$$RP$$C$_native..py_results..PyAerialImageResult..nils..$u7b$$u7b$closure$u7d$$u7d$$C$core..iter..traits..iterator..Iterator..for_each..call$LT$f64$C$alloc..vec..Vec$LT$f64$GT$..extend_trusted$LT$core..iter..adapters..map..Map$LT$core..ops..range..Range$LT$usize$GT$$C$_native..py_results..PyAerialImageResult..nils..$u7b$$u7b$closure$u7d$$u7d$$GT$$GT$..$u7b$$u7b$closure$u7d$$u7d$$GT$..$u7b$$u7b$closure$u7d$$u7d$$GT$..$u7b$$u7b$closure$u7d$$u7d$$GT$17h5902797865c91f21E', symObjAddr: 0x2620, symBinAddr: 0x13C94, symSize: 0x24 }
  - { offsetInCU: 0x1AB5, offset: 0x5BF43, size: 0x8, addend: 0x0, symName: '__ZN4core3ptr524drop_in_place$LT$core..iter..adapters..map..map_fold$LT$usize$C$f64$C$$LP$$RP$$C$_native..py_results..PyAerialImageResult..nils..$u7b$$u7b$closure$u7d$$u7d$$C$core..iter..traits..iterator..Iterator..for_each..call$LT$f64$C$alloc..vec..Vec$LT$f64$GT$..extend_trusted$LT$core..iter..adapters..map..Map$LT$core..ops..range..Range$LT$usize$GT$$C$_native..py_results..PyAerialImageResult..nils..$u7b$$u7b$closure$u7d$$u7d$$GT$$GT$..$u7b$$u7b$closure$u7d$$u7d$$GT$..$u7b$$u7b$closure$u7d$$u7d$$GT$..$u7b$$u7b$closure$u7d$$u7d$$GT$17hb96c58cca62118d2E', symObjAddr: 0x2644, symBinAddr: 0x13CB8, symSize: 0x24 }
  - { offsetInCU: 0x1AE4, offset: 0x5BF72, size: 0x8, addend: 0x0, symName: '__ZN4core3ptr524drop_in_place$LT$core..iter..adapters..map..map_fold$LT$usize$C$f64$C$$LP$$RP$$C$_native..py_results..PyAerialImageResult..x_nm..$u7b$$u7b$closure$u7d$$u7d$$C$core..iter..traits..iterator..Iterator..for_each..call$LT$f64$C$alloc..vec..Vec$LT$f64$GT$..extend_trusted$LT$core..iter..adapters..map..Map$LT$core..ops..range..Range$LT$usize$GT$$C$_native..py_results..PyAerialImageResult..x_nm..$u7b$$u7b$closure$u7d$$u7d$$GT$$GT$..$u7b$$u7b$closure$u7d$$u7d$$GT$..$u7b$$u7b$closure$u7d$$u7d$$GT$..$u7b$$u7b$closure$u7d$$u7d$$GT$17h6a579638c46cea17E', symObjAddr: 0x2668, symBinAddr: 0x13CDC, symSize: 0x24 }
  - { offsetInCU: 0x1B13, offset: 0x5BFA1, size: 0x8, addend: 0x0, symName: '__ZN4core3ptr524drop_in_place$LT$core..iter..adapters..map..map_fold$LT$usize$C$f64$C$$LP$$RP$$C$_native..py_results..PyAerialImageResult..y_nm..$u7b$$u7b$closure$u7d$$u7d$$C$core..iter..traits..iterator..Iterator..for_each..call$LT$f64$C$alloc..vec..Vec$LT$f64$GT$..extend_trusted$LT$core..iter..adapters..map..Map$LT$core..ops..range..Range$LT$usize$GT$$C$_native..py_results..PyAerialImageResult..y_nm..$u7b$$u7b$closure$u7d$$u7d$$GT$$GT$..$u7b$$u7b$closure$u7d$$u7d$$GT$..$u7b$$u7b$closure$u7d$$u7d$$GT$..$u7b$$u7b$closure$u7d$$u7d$$GT$17h7c2ecf0f14f1e87bE', symObjAddr: 0x268C, symBinAddr: 0x13D00, symSize: 0x24 }
  - { offsetInCU: 0x1B42, offset: 0x5BFD0, size: 0x8, addend: 0x0, symName: '__ZN4core3ptr53drop_in_place$LT$_native..py_config..PyMaskConfig$GT$17hc8d070463e12e34fE', symObjAddr: 0x26B0, symBinAddr: 0x13D24, symSize: 0x24 }
  - { offsetInCU: 0x1B71, offset: 0x5BFFF, size: 0x8, addend: 0x0, symName: '__ZN4core3ptr542drop_in_place$LT$core..iter..adapters..map..map_fold$LT$usize$C$f64$C$$LP$$RP$$C$_native..py_results..PyAerialImageResult..cross_section..$u7b$$u7b$closure$u7d$$u7d$$C$core..iter..traits..iterator..Iterator..for_each..call$LT$f64$C$alloc..vec..Vec$LT$f64$GT$..extend_trusted$LT$core..iter..adapters..map..Map$LT$core..ops..range..Range$LT$usize$GT$$C$_native..py_results..PyAerialImageResult..cross_section..$u7b$$u7b$closure$u7d$$u7d$$GT$$GT$..$u7b$$u7b$closure$u7d$$u7d$$GT$..$u7b$$u7b$closure$u7d$$u7d$$GT$..$u7b$$u7b$closure$u7d$$u7d$$GT$17h454e507423ed36dcE', symObjAddr: 0x26F8, symBinAddr: 0x13D48, symSize: 0x24 }
  - { offsetInCU: 0x1BA0, offset: 0x5C02E, size: 0x8, addend: 0x0, symName: '__ZN4core3ptr542drop_in_place$LT$core..iter..adapters..map..map_fold$LT$usize$C$f64$C$$LP$$RP$$C$_native..py_results..PyAerialImageResult..cross_section..$u7b$$u7b$closure$u7d$$u7d$$C$core..iter..traits..iterator..Iterator..for_each..call$LT$f64$C$alloc..vec..Vec$LT$f64$GT$..extend_trusted$LT$core..iter..adapters..map..Map$LT$core..ops..range..Range$LT$usize$GT$$C$_native..py_results..PyAerialImageResult..cross_section..$u7b$$u7b$closure$u7d$$u7d$$GT$$GT$..$u7b$$u7b$closure$u7d$$u7d$$GT$..$u7b$$u7b$closure$u7d$$u7d$$GT$..$u7b$$u7b$closure$u7d$$u7d$$GT$17hcd8477a5f983513eE', symObjAddr: 0x271C, symBinAddr: 0x13D6C, symSize: 0x24 }
  - { offsetInCU: 0x1BCF, offset: 0x5C05D, size: 0x8, addend: 0x0, symName: '__ZN4core3ptr55drop_in_place$LT$_native..py_config..PyOpticsConfig$GT$17hc5179ea7760b0f59E', symObjAddr: 0x2740, symBinAddr: 0x13D90, symSize: 0x24 }
  - { offsetInCU: 0x1BFE, offset: 0x5C08C, size: 0x8, addend: 0x0, symName: '__ZN4core3ptr55drop_in_place$LT$_native..py_config..PySourceConfig$GT$17h558dc90388cb7b4aE', symObjAddr: 0x2764, symBinAddr: 0x13DB4, symSize: 0x24 }
  - { offsetInCU: 0x1C2D, offset: 0x5C0BB, size: 0x8, addend: 0x0, symName: '__ZN4core3ptr55drop_in_place$LT$highuvlith_core..source..VuvSource$GT$17h904f03e95e536c87E', symObjAddr: 0x2788, symBinAddr: 0x13DD8, symSize: 0x24 }
  - { offsetInCU: 0x1C5C, offset: 0x5C0EA, size: 0x8, addend: 0x0, symName: '__ZN4core3ptr56drop_in_place$LT$_native..py_sweep..PyBatchSimulator$GT$17h7bb04e55d59721f5E', symObjAddr: 0x27AC, symBinAddr: 0x13DFC, symSize: 0x5C }
  - { offsetInCU: 0x1C8B, offset: 0x5C119, size: 0x8, addend: 0x0, symName: '__ZN4core3ptr57drop_in_place$LT$highuvlith_core..resist..LatentImage$GT$17h4bfc01e5996ff38cE', symObjAddr: 0x2808, symBinAddr: 0x13E58, symSize: 0x24 }
  - { offsetInCU: 0x1CBA, offset: 0x5C148, size: 0x8, addend: 0x0, symName: '__ZN4core3ptr57drop_in_place$LT$highuvlith_core..thinfilm..FilmStack$GT$17h65ff36d7eb448d39E', symObjAddr: 0x282C, symBinAddr: 0x13E7C, symSize: 0x24 }
  - { offsetInCU: 0x1CE9, offset: 0x5C177, size: 0x8, addend: 0x0, symName: '__ZN4core3ptr58drop_in_place$LT$_native..py_config..PyFilmStackConfig$GT$17h5ccf2d5e93d739a6E', symObjAddr: 0x2850, symBinAddr: 0x13EA0, symSize: 0x24 }
  - { offsetInCU: 0x1D18, offset: 0x5C1A6, size: 0x8, addend: 0x0, symName: '__ZN4core3ptr59drop_in_place$LT$highuvlith_core..source..SpectralShape$GT$17h079c0c3e66585cbbE', symObjAddr: 0x2874, symBinAddr: 0x13EC4, symSize: 0x98 }
  - { offsetInCU: 0x1D47, offset: 0x5C1D5, size: 0x8, addend: 0x0, symName: '__ZN4core3ptr60drop_in_place$LT$highuvlith_core..process..ProcessWindow$GT$17h3e2c96872890b7fdE', symObjAddr: 0x290C, symBinAddr: 0x13F5C, symSize: 0x90 }
  - { offsetInCU: 0x1D76, offset: 0x5C204, size: 0x8, addend: 0x0, symName: '__ZN4core3ptr61drop_in_place$LT$_native..py_results..PyAerialImageResult$GT$17h8f6b8ab724cb1337E', symObjAddr: 0x299C, symBinAddr: 0x13FEC, symSize: 0x24 }
  - { offsetInCU: 0x1DA5, offset: 0x5C233, size: 0x8, addend: 0x0, symName: '__ZN4core3ptr61drop_in_place$LT$_native..py_sweep..PyProcessWindowResult$GT$17h3de05f1869a36462E', symObjAddr: 0x29C0, symBinAddr: 0x14010, symSize: 0x24 }
  - { offsetInCU: 0x1DD4, offset: 0x5C262, size: 0x8, addend: 0x0, symName: '__ZN4core3ptr61drop_in_place$LT$highuvlith_core..error..LithographyError$GT$17hda6c87d0f3ca72f8E', symObjAddr: 0x29E4, symBinAddr: 0x14034, symSize: 0xEC }
  - { offsetInCU: 0x1E03, offset: 0x5C291, size: 0x8, addend: 0x0, symName: '__ZN4core3ptr62drop_in_place$LT$highuvlith_core..optics..ProjectionOptics$GT$17hfd369d1e5860ba1eE', symObjAddr: 0x2AD0, symBinAddr: 0x14120, symSize: 0x24 }
  - { offsetInCU: 0x1E32, offset: 0x5C2C0, size: 0x8, addend: 0x0, symName: '__ZN4core3ptr63drop_in_place$LT$_native..py_results..PyResistProfileResult$GT$17h019f0aa8ef5e91afE', symObjAddr: 0x2AF4, symBinAddr: 0x14144, symSize: 0x60 }
  - { offsetInCU: 0x1E61, offset: 0x5C2EF, size: 0x8, addend: 0x0, symName: '__ZN4core3ptr63drop_in_place$LT$_native..py_simulation..PySimulationEngine$GT$17h21b8e53bbd2bfabeE', symObjAddr: 0x2B54, symBinAddr: 0x141A4, symSize: 0xC4 }
  - { offsetInCU: 0x1E90, offset: 0x5C31E, size: 0x8, addend: 0x0, symName: '__ZN4core3ptr63drop_in_place$LT$highuvlith_core..aerial..AerialImageEngine$GT$17h59df748c52601267E', symObjAddr: 0x2C18, symBinAddr: 0x14268, symSize: 0x60 }
  - { offsetInCU: 0x1EBF, offset: 0x5C34D, size: 0x8, addend: 0x0, symName: '__ZN4core3ptr661drop_in_place$LT$core..iter..adapters..map..Map$LT$alloc..vec..into_iter..IntoIter$LT$$LP$f64$C$pyo3..instance..Bound$LT$numpy..array..PyArray$LT$f64$C$ndarray..dimension..dim..Dim$LT$$u5b$usize$u3b$$u20$2$u5d$$GT$$GT$$GT$$RP$$GT$$C$$LT$$LP$f64$C$pyo3..instance..Bound$LT$numpy..array..PyArray$LT$f64$C$ndarray..dimension..dim..Dim$LT$$u5b$usize$u3b$$u20$2$u5d$$GT$$GT$$GT$$RP$$u20$as$u20$pyo3..conversion..IntoPyObject$GT$..owned_sequence_into_pyobject$LT$alloc..vec..Vec$LT$$LP$f64$C$pyo3..instance..Bound$LT$numpy..array..PyArray$LT$f64$C$ndarray..dimension..dim..Dim$LT$$u5b$usize$u3b$$u20$2$u5d$$GT$$GT$$GT$$RP$$GT$$GT$..$u7b$$u7b$closure$u7d$$u7d$$GT$$GT$17h4f7b3fcbe6c91e54E', symObjAddr: 0x2C78, symBinAddr: 0x142C8, symSize: 0x24 }
  - { offsetInCU: 0x1EEE, offset: 0x5C37C, size: 0x8, addend: 0x0, symName: '__ZN4core3ptr67drop_in_place$LT$alloc..vec..Vec$LT$$LP$f64$C$f64$C$f64$RP$$GT$$GT$17h81d1645a91d902acE', symObjAddr: 0x2C9C, symBinAddr: 0x142EC, symSize: 0x5C }
  - { offsetInCU: 0x1F1D, offset: 0x5C3AB, size: 0x8, addend: 0x0, symName: '__ZN4core3ptr71drop_in_place$LT$core..result..Result$LT$f64$C$pyo3..err..PyErr$GT$$GT$17hd14814c8c01056fdE', symObjAddr: 0x2CF8, symBinAddr: 0x14348, symSize: 0x40 }
  - { offsetInCU: 0x1F4C, offset: 0x5C3DA, size: 0x8, addend: 0x0, symName: '__ZN4core3ptr74drop_in_place$LT$alloc..raw_vec..RawVec$LT$$LP$f64$C$f64$C$f64$RP$$GT$$GT$17hfdfd54519dca5464E', symObjAddr: 0x2D38, symBinAddr: 0x14388, symSize: 0x24 }
  - { offsetInCU: 0x1F7B, offset: 0x5C409, size: 0x8, addend: 0x0, symName: '__ZN4core3ptr77drop_in_place$LT$alloc..vec..Vec$LT$$LP$usize$C$usize$C$f64$C$f64$RP$$GT$$GT$17h7f5acafeecf6be4cE', symObjAddr: 0x2D5C, symBinAddr: 0x143AC, symSize: 0x5C }
  - { offsetInCU: 0x1FAA, offset: 0x5C438, size: 0x8, addend: 0x0, symName: '__ZN4core3ptr79drop_in_place$LT$pyo3..instance..Py$LT$_native..py_config..PyGridConfig$GT$$GT$17hf5b407dc5381505dE', symObjAddr: 0x2DB8, symBinAddr: 0x14408, symSize: 0x2C }
  - { offsetInCU: 0x1FD9, offset: 0x5C467, size: 0x8, addend: 0x0, symName: '__ZN4core3ptr79drop_in_place$LT$pyo3..instance..Py$LT$_native..py_config..PyMaskConfig$GT$$GT$17h5dca5fc084189ce3E', symObjAddr: 0x2DE4, symBinAddr: 0x14434, symSize: 0x2C }
  - { offsetInCU: 0x2008, offset: 0x5C496, size: 0x8, addend: 0x0, symName: '__ZN4core3ptr80drop_in_place$LT$pyo3..pycell..PyRef$LT$_native..py_config..PyGridConfig$GT$$GT$17h50bc984c21381247E', symObjAddr: 0x2E10, symBinAddr: 0x14460, symSize: 0x5C }
  - { offsetInCU: 0x2037, offset: 0x5C4C5, size: 0x8, addend: 0x0, symName: '__ZN4core3ptr80drop_in_place$LT$pyo3..pycell..PyRef$LT$_native..py_config..PyMaskConfig$GT$$GT$17h96042cee4a8f3cccE', symObjAddr: 0x2E6C, symBinAddr: 0x144BC, symSize: 0x5C }
  - { offsetInCU: 0x2066, offset: 0x5C4F4, size: 0x8, addend: 0x0, symName: '__ZN4core3ptr81drop_in_place$LT$pyo3..instance..Py$LT$_native..py_config..PyOpticsConfig$GT$$GT$17h3af37b3f39af4fc6E', symObjAddr: 0x2EC8, symBinAddr: 0x14518, symSize: 0x2C }
  - { offsetInCU: 0x2095, offset: 0x5C523, size: 0x8, addend: 0x0, symName: '__ZN4core3ptr81drop_in_place$LT$pyo3..instance..Py$LT$_native..py_config..PyResistConfig$GT$$GT$17hed2ee399441a5b98E', symObjAddr: 0x2EF4, symBinAddr: 0x14544, symSize: 0x2C }
  - { offsetInCU: 0x20C4, offset: 0x5C552, size: 0x8, addend: 0x0, symName: '__ZN4core3ptr81drop_in_place$LT$pyo3..instance..Py$LT$_native..py_config..PySourceConfig$GT$$GT$17h6b43ed756c4a2bfcE', symObjAddr: 0x2F20, symBinAddr: 0x14570, symSize: 0x2C }
  - { offsetInCU: 0x20F3, offset: 0x5C581, size: 0x8, addend: 0x0, symName: '__ZN4core3ptr82drop_in_place$LT$pyo3..instance..Bound$LT$_native..py_config..PyGridConfig$GT$$GT$17hd3a526b070acce10E', symObjAddr: 0x2F4C, symBinAddr: 0x1459C, symSize: 0x24 }
  - { offsetInCU: 0x2122, offset: 0x5C5B0, size: 0x8, addend: 0x0, symName: '__ZN4core3ptr82drop_in_place$LT$pyo3..instance..Bound$LT$_native..py_config..PyMaskConfig$GT$$GT$17h49bfd43fa3c64a52E', symObjAddr: 0x2F70, symBinAddr: 0x145C0, symSize: 0x24 }
  - { offsetInCU: 0x2151, offset: 0x5C5DF, size: 0x8, addend: 0x0, symName: '__ZN4core3ptr82drop_in_place$LT$pyo3..instance..Py$LT$_native..py_config..PyProcessConfig$GT$$GT$17h8d75e7f7e5de4b29E', symObjAddr: 0x2F94, symBinAddr: 0x145E4, symSize: 0x2C }
  - { offsetInCU: 0x2180, offset: 0x5C60E, size: 0x8, addend: 0x0, symName: '__ZN4core3ptr82drop_in_place$LT$pyo3..instance..Py$LT$_native..py_sweep..PyBatchSimulator$GT$$GT$17h9910e5659d5f3053E', symObjAddr: 0x2FC0, symBinAddr: 0x14610, symSize: 0x2C }
  - { offsetInCU: 0x21AF, offset: 0x5C63D, size: 0x8, addend: 0x0, symName: '__ZN4core3ptr82drop_in_place$LT$pyo3..pycell..PyRef$LT$_native..py_config..PyOpticsConfig$GT$$GT$17h6501a1a0ced978aaE', symObjAddr: 0x2FEC, symBinAddr: 0x1463C, symSize: 0x5C }
  - { offsetInCU: 0x21DE, offset: 0x5C66C, size: 0x8, addend: 0x0, symName: '__ZN4core3ptr82drop_in_place$LT$pyo3..pycell..PyRef$LT$_native..py_config..PyResistConfig$GT$$GT$17h085e277a686ef2bbE', symObjAddr: 0x3048, symBinAddr: 0x14698, symSize: 0x5C }
  - { offsetInCU: 0x220D, offset: 0x5C69B, size: 0x8, addend: 0x0, symName: '__ZN4core3ptr82drop_in_place$LT$pyo3..pycell..PyRef$LT$_native..py_config..PySourceConfig$GT$$GT$17h2e16b4fbff495bfcE', symObjAddr: 0x30A4, symBinAddr: 0x146F4, symSize: 0x5C }
  - { offsetInCU: 0x223C, offset: 0x5C6CA, size: 0x8, addend: 0x0, symName: '__ZN4core3ptr83drop_in_place$LT$core..cell..UnsafeCell$LT$_native..py_config..PyMaskConfig$GT$$GT$17hd4670d26b52bbd4fE', symObjAddr: 0x3100, symBinAddr: 0x14750, symSize: 0x24 }
  - { offsetInCU: 0x226B, offset: 0x5C6F9, size: 0x8, addend: 0x0, symName: '__ZN4core3ptr83drop_in_place$LT$pyo3..pycell..PyRef$LT$_native..py_config..PyProcessConfig$GT$$GT$17h86b0c65d4e65339bE', symObjAddr: 0x3124, symBinAddr: 0x14774, symSize: 0x5C }
  - { offsetInCU: 0x229A, offset: 0x5C728, size: 0x8, addend: 0x0, symName: '__ZN4core3ptr83drop_in_place$LT$pyo3..pycell..PyRef$LT$_native..py_sweep..PyBatchSimulator$GT$$GT$17h13316b760ec8a2a6E', symObjAddr: 0x3180, symBinAddr: 0x147D0, symSize: 0x5C }
  - { offsetInCU: 0x22C9, offset: 0x5C757, size: 0x8, addend: 0x0, symName: '__ZN4core3ptr84drop_in_place$LT$alloc..raw_vec..RawVec$LT$$LP$usize$C$usize$C$f64$C$f64$RP$$GT$$GT$17h14105d351ea4cdb7E', symObjAddr: 0x31DC, symBinAddr: 0x1482C, symSize: 0x24 }
  - { offsetInCU: 0x22F8, offset: 0x5C786, size: 0x8, addend: 0x0, symName: '__ZN4core3ptr84drop_in_place$LT$pyo3..instance..Bound$LT$_native..py_config..PyOpticsConfig$GT$$GT$17he23d9d551b1b55caE', symObjAddr: 0x3200, symBinAddr: 0x14850, symSize: 0x24 }
  - { offsetInCU: 0x2327, offset: 0x5C7B5, size: 0x8, addend: 0x0, symName: '__ZN4core3ptr84drop_in_place$LT$pyo3..instance..Bound$LT$_native..py_config..PyResistConfig$GT$$GT$17hb6e2588bf3bc8fdaE', symObjAddr: 0x3224, symBinAddr: 0x14874, symSize: 0x24 }
  - { offsetInCU: 0x2356, offset: 0x5C7E4, size: 0x8, addend: 0x0, symName: '__ZN4core3ptr84drop_in_place$LT$pyo3..instance..Bound$LT$_native..py_config..PySourceConfig$GT$$GT$17h3baa311c438bda0eE', symObjAddr: 0x3248, symBinAddr: 0x14898, symSize: 0x24 }
  - { offsetInCU: 0x2385, offset: 0x5C813, size: 0x8, addend: 0x0, symName: '__ZN4core3ptr84drop_in_place$LT$pyo3..instance..Py$LT$_native..py_config..PyFilmStackConfig$GT$$GT$17h8985e4c550d2410dE', symObjAddr: 0x326C, symBinAddr: 0x148BC, symSize: 0x2C }
  - { offsetInCU: 0x23B4, offset: 0x5C842, size: 0x8, addend: 0x0, symName: '__ZN4core3ptr85drop_in_place$LT$core..cell..UnsafeCell$LT$_native..py_config..PyOpticsConfig$GT$$GT$17h0355a786c6d6b4a2E', symObjAddr: 0x3298, symBinAddr: 0x148E8, symSize: 0x24 }
  - { offsetInCU: 0x23E3, offset: 0x5C871, size: 0x8, addend: 0x0, symName: '__ZN4core3ptr85drop_in_place$LT$core..cell..UnsafeCell$LT$_native..py_config..PySourceConfig$GT$$GT$17had5ada8529e8886fE', symObjAddr: 0x32BC, symBinAddr: 0x1490C, symSize: 0x24 }
  - { offsetInCU: 0x2412, offset: 0x5C8A0, size: 0x8, addend: 0x0, symName: '__ZN4core3ptr85drop_in_place$LT$pyo3..instance..Bound$LT$_native..py_config..PyProcessConfig$GT$$GT$17h1a89f2ac066fd318E', symObjAddr: 0x32E0, symBinAddr: 0x14930, symSize: 0x24 }
  - { offsetInCU: 0x2441, offset: 0x5C8CF, size: 0x8, addend: 0x0, symName: '__ZN4core3ptr85drop_in_place$LT$pyo3..instance..Bound$LT$_native..py_sweep..PyBatchSimulator$GT$$GT$17ha0bcfae147862d53E', symObjAddr: 0x3304, symBinAddr: 0x14954, symSize: 0x24 }
  - { offsetInCU: 0x2470, offset: 0x5C8FE, size: 0x8, addend: 0x0, symName: '__ZN4core3ptr85drop_in_place$LT$pyo3..pycell..PyRef$LT$_native..py_config..PyFilmStackConfig$GT$$GT$17he1d4cec3750139bfE', symObjAddr: 0x3328, symBinAddr: 0x14978, symSize: 0x5C }
  - { offsetInCU: 0x249F, offset: 0x5C92D, size: 0x8, addend: 0x0, symName: '__ZN4core3ptr85drop_in_place$LT$pyo3..pycell..PyRefMut$LT$_native..py_config..PyOpticsConfig$GT$$GT$17h5de29d508fd1f2d0E', symObjAddr: 0x3384, symBinAddr: 0x149D4, symSize: 0x5C }
  - { offsetInCU: 0x24CE, offset: 0x5C95C, size: 0x8, addend: 0x0, symName: '__ZN4core3ptr86drop_in_place$LT$core..cell..UnsafeCell$LT$_native..py_sweep..PyBatchSimulator$GT$$GT$17h5bfa17bbdf0ab2d7E', symObjAddr: 0x33E0, symBinAddr: 0x14A30, symSize: 0x24 }
  - { offsetInCU: 0x24FD, offset: 0x5C98B, size: 0x8, addend: 0x0, symName: '__ZN4core3ptr86drop_in_place$LT$pyo3..pycell..PyRefMut$LT$_native..py_config..PyProcessConfig$GT$$GT$17hc76a9f7939d9a06fE', symObjAddr: 0x3404, symBinAddr: 0x14A54, symSize: 0x5C }
  - { offsetInCU: 0x252C, offset: 0x5C9BA, size: 0x8, addend: 0x0, symName: '__ZN4core3ptr87drop_in_place$LT$pyo3..instance..Bound$LT$_native..py_config..PyFilmStackConfig$GT$$GT$17hd07936228ee27f49E', symObjAddr: 0x3460, symBinAddr: 0x14AB0, symSize: 0x24 }
  - { offsetInCU: 0x255B, offset: 0x5C9E9, size: 0x8, addend: 0x0, symName: '__ZN4core3ptr87drop_in_place$LT$pyo3..instance..Py$LT$_native..py_results..PyAerialImageResult$GT$$GT$17hba411150a6762da8E', symObjAddr: 0x3484, symBinAddr: 0x14AD4, symSize: 0x2C }
  - { offsetInCU: 0x258A, offset: 0x5CA18, size: 0x8, addend: 0x0, symName: '__ZN4core3ptr87drop_in_place$LT$pyo3..instance..Py$LT$_native..py_sweep..PyProcessWindowResult$GT$$GT$17hd6e7e64d5cb88c97E', symObjAddr: 0x34B0, symBinAddr: 0x14B00, symSize: 0x2C }
  - { offsetInCU: 0x25B9, offset: 0x5CA47, size: 0x8, addend: 0x0, symName: '__ZN4core3ptr88drop_in_place$LT$core..cell..UnsafeCell$LT$_native..py_config..PyFilmStackConfig$GT$$GT$17h550cb50649c2db66E', symObjAddr: 0x34DC, symBinAddr: 0x14B2C, symSize: 0x24 }
  - { offsetInCU: 0x25E8, offset: 0x5CA76, size: 0x8, addend: 0x0, symName: '__ZN4core3ptr88drop_in_place$LT$pyo3..pycell..PyRef$LT$_native..py_results..PyAerialImageResult$GT$$GT$17h9a5fef1d9bd5cd9eE', symObjAddr: 0x3500, symBinAddr: 0x14B50, symSize: 0x5C }
  - { offsetInCU: 0x2617, offset: 0x5CAA5, size: 0x8, addend: 0x0, symName: '__ZN4core3ptr88drop_in_place$LT$pyo3..pycell..PyRef$LT$_native..py_sweep..PyProcessWindowResult$GT$$GT$17h0c5fba58c3759d12E', symObjAddr: 0x355C, symBinAddr: 0x14BAC, symSize: 0x5C }
  - { offsetInCU: 0x2646, offset: 0x5CAD4, size: 0x8, addend: 0x0, symName: '__ZN4core3ptr88drop_in_place$LT$pyo3..pycell..PyRefMut$LT$_native..py_config..PyFilmStackConfig$GT$$GT$17hd217f7dec285d24eE', symObjAddr: 0x35B8, symBinAddr: 0x14C08, symSize: 0x5C }
  - { offsetInCU: 0x2675, offset: 0x5CB03, size: 0x8, addend: 0x0, symName: '__ZN4core3ptr89drop_in_place$LT$pyo3..instance..Py$LT$_native..py_results..PyResistProfileResult$GT$$GT$17h61f3f55880cb7fcaE', symObjAddr: 0x3614, symBinAddr: 0x14C64, symSize: 0x2C }
  - { offsetInCU: 0x26A4, offset: 0x5CB32, size: 0x8, addend: 0x0, symName: '__ZN4core3ptr89drop_in_place$LT$pyo3..instance..Py$LT$_native..py_simulation..PySimulationEngine$GT$$GT$17h3810e3d9126d27fdE', symObjAddr: 0x3640, symBinAddr: 0x14C90, symSize: 0x2C }
  - { offsetInCU: 0x26D3, offset: 0x5CB61, size: 0x8, addend: 0x0, symName: '__ZN4core3ptr90drop_in_place$LT$pyo3..instance..Bound$LT$_native..py_results..PyAerialImageResult$GT$$GT$17h47663abcddb2532fE', symObjAddr: 0x366C, symBinAddr: 0x14CBC, symSize: 0x24 }
  - { offsetInCU: 0x2702, offset: 0x5CB90, size: 0x8, addend: 0x0, symName: '__ZN4core3ptr90drop_in_place$LT$pyo3..instance..Bound$LT$_native..py_sweep..PyProcessWindowResult$GT$$GT$17hebd58ee1a6ef5666E', symObjAddr: 0x3690, symBinAddr: 0x14CE0, symSize: 0x24 }
  - { offsetInCU: 0x2731, offset: 0x5CBBF, size: 0x8, addend: 0x0, symName: '__ZN4core3ptr90drop_in_place$LT$pyo3..pycell..PyRef$LT$_native..py_results..PyResistProfileResult$GT$$GT$17h8d26165c44b09fd4E', symObjAddr: 0x36B4, symBinAddr: 0x14D04, symSize: 0x5C }
  - { offsetInCU: 0x2760, offset: 0x5CBEE, size: 0x8, addend: 0x0, symName: '__ZN4core3ptr90drop_in_place$LT$pyo3..pycell..PyRef$LT$_native..py_simulation..PySimulationEngine$GT$$GT$17h0e7702e988910d72E', symObjAddr: 0x3710, symBinAddr: 0x14D60, symSize: 0x5C }
  - { offsetInCU: 0x278F, offset: 0x5CC1D, size: 0x8, addend: 0x0, symName: '__ZN4core3ptr91drop_in_place$LT$core..cell..UnsafeCell$LT$_native..py_results..PyAerialImageResult$GT$$GT$17ha057624f7c285d3cE', symObjAddr: 0x376C, symBinAddr: 0x14DBC, symSize: 0x24 }
  - { offsetInCU: 0x27BE, offset: 0x5CC4C, size: 0x8, addend: 0x0, symName: '__ZN4core3ptr91drop_in_place$LT$core..cell..UnsafeCell$LT$_native..py_sweep..PyProcessWindowResult$GT$$GT$17h93c388fc0510474cE', symObjAddr: 0x3790, symBinAddr: 0x14DE0, symSize: 0x24 }
  - { offsetInCU: 0x27ED, offset: 0x5CC7B, size: 0x8, addend: 0x0, symName: '__ZN4core3ptr92drop_in_place$LT$pyo3..instance..Bound$LT$_native..py_results..PyResistProfileResult$GT$$GT$17hf522e0956633f47bE', symObjAddr: 0x37B4, symBinAddr: 0x14E04, symSize: 0x24 }
  - { offsetInCU: 0x281C, offset: 0x5CCAA, size: 0x8, addend: 0x0, symName: '__ZN4core3ptr92drop_in_place$LT$pyo3..instance..Bound$LT$_native..py_simulation..PySimulationEngine$GT$$GT$17h29e9461e1d630bddE', symObjAddr: 0x37D8, symBinAddr: 0x14E28, symSize: 0x24 }
  - { offsetInCU: 0x284B, offset: 0x5CCD9, size: 0x8, addend: 0x0, symName: '__ZN4core3ptr93drop_in_place$LT$core..cell..UnsafeCell$LT$_native..py_results..PyResistProfileResult$GT$$GT$17h726f186531643e6bE', symObjAddr: 0x37FC, symBinAddr: 0x14E4C, symSize: 0x24 }
  - { offsetInCU: 0x287A, offset: 0x5CD08, size: 0x8, addend: 0x0, symName: '__ZN4core3ptr93drop_in_place$LT$core..cell..UnsafeCell$LT$_native..py_simulation..PySimulationEngine$GT$$GT$17h7caed3546bd430bcE', symObjAddr: 0x3820, symBinAddr: 0x14E70, symSize: 0x24 }
  - { offsetInCU: 0x28A9, offset: 0x5CD37, size: 0x8, addend: 0x0, symName: '__ZN4core3ptr99drop_in_place$LT$core..result..Result$LT$core..option..Option$LT$f64$GT$$C$pyo3..err..PyErr$GT$$GT$17h656fb4b24a90071cE', symObjAddr: 0x3844, symBinAddr: 0x14E94, symSize: 0x40 }
  - { offsetInCU: 0x28D8, offset: 0x5CD66, size: 0x8, addend: 0x0, symName: '__ZN4core3ptr99drop_in_place$LT$pyo3..pyclass_init..PyClassInitializer$LT$_native..py_config..PyGridConfig$GT$$GT$17hd23159c08e96e56aE', symObjAddr: 0x3884, symBinAddr: 0x14ED4, symSize: 0x24 }
  - { offsetInCU: 0x2907, offset: 0x5CD95, size: 0x8, addend: 0x0, symName: '__ZN4core3ptr99drop_in_place$LT$pyo3..pyclass_init..PyClassInitializer$LT$_native..py_config..PyMaskConfig$GT$$GT$17h35e048dd51315566E', symObjAddr: 0x38A8, symBinAddr: 0x14EF8, symSize: 0x24 }
  - { offsetInCU: 0x442B, offset: 0x5E8B9, size: 0x8, addend: 0x0, symName: '__ZN4core3ops8function6FnOnce40call_once$u7b$$u7b$vtable.shim$u7d$$u7d$17h9c14264fe3c71b4fE', symObjAddr: 0x1F8, symBinAddr: 0x11A40, symSize: 0x30 }
  - { offsetInCU: 0x446F, offset: 0x5E8FD, size: 0x8, addend: 0x0, symName: '__ZN4core3ops8function6FnOnce40call_once$u7b$$u7b$vtable.shim$u7d$$u7d$17hbca10780b8a2cfe9E', symObjAddr: 0x228, symBinAddr: 0x11A70, symSize: 0x30 }
  - { offsetInCU: 0x44B3, offset: 0x5E941, size: 0x8, addend: 0x0, symName: __ZN4core3ops8function6FnOnce9call_once17h0058a675a8ce2d57E, symObjAddr: 0x258, symBinAddr: 0x11AA0, symSize: 0x24 }
  - { offsetInCU: 0x44F7, offset: 0x5E985, size: 0x8, addend: 0x0, symName: __ZN4core3ops8function6FnOnce9call_once17h01a30ee47f49e2dcE, symObjAddr: 0x27C, symBinAddr: 0x11AC4, symSize: 0x3C }
  - { offsetInCU: 0x453B, offset: 0x5E9C9, size: 0x8, addend: 0x0, symName: __ZN4core3ops8function6FnOnce9call_once17h0497607ab630057aE, symObjAddr: 0x2B8, symBinAddr: 0x11B00, symSize: 0x44 }
  - { offsetInCU: 0x457F, offset: 0x5EA0D, size: 0x8, addend: 0x0, symName: __ZN4core3ops8function6FnOnce9call_once17h04b4267a6e42b160E, symObjAddr: 0x2FC, symBinAddr: 0x11B44, symSize: 0x3C }
  - { offsetInCU: 0x45C3, offset: 0x5EA51, size: 0x8, addend: 0x0, symName: __ZN4core3ops8function6FnOnce9call_once17h06ff210dcee87255E, symObjAddr: 0x338, symBinAddr: 0x11B80, symSize: 0x4C }
  - { offsetInCU: 0x4607, offset: 0x5EA95, size: 0x8, addend: 0x0, symName: __ZN4core3ops8function6FnOnce9call_once17h085e847d342b798fE, symObjAddr: 0x384, symBinAddr: 0x11BCC, symSize: 0x44 }
  - { offsetInCU: 0x464B, offset: 0x5EAD9, size: 0x8, addend: 0x0, symName: __ZN4core3ops8function6FnOnce9call_once17h0a48a4a296f2a68fE, symObjAddr: 0x3C8, symBinAddr: 0x11C10, symSize: 0x44 }
  - { offsetInCU: 0x468F, offset: 0x5EB1D, size: 0x8, addend: 0x0, symName: __ZN4core3ops8function6FnOnce9call_once17h11ea1f27126f0c8cE, symObjAddr: 0x40C, symBinAddr: 0x11C54, symSize: 0x44 }
  - { offsetInCU: 0x46D3, offset: 0x5EB61, size: 0x8, addend: 0x0, symName: __ZN4core3ops8function6FnOnce9call_once17h12a68bccb9a142ddE, symObjAddr: 0x450, symBinAddr: 0x11C98, symSize: 0x44 }
  - { offsetInCU: 0x4717, offset: 0x5EBA5, size: 0x8, addend: 0x0, symName: __ZN4core3ops8function6FnOnce9call_once17h1544f2133cef73caE, symObjAddr: 0x494, symBinAddr: 0x11CDC, symSize: 0x24 }
  - { offsetInCU: 0x475B, offset: 0x5EBE9, size: 0x8, addend: 0x0, symName: __ZN4core3ops8function6FnOnce9call_once17h1ad7217f9a7e8b01E, symObjAddr: 0x4B8, symBinAddr: 0x11D00, symSize: 0x44 }
  - { offsetInCU: 0x479F, offset: 0x5EC2D, size: 0x8, addend: 0x0, symName: __ZN4core3ops8function6FnOnce9call_once17h1b2c22dcdb5c29fcE, symObjAddr: 0x4FC, symBinAddr: 0x11D44, symSize: 0x44 }
  - { offsetInCU: 0x47E3, offset: 0x5EC71, size: 0x8, addend: 0x0, symName: __ZN4core3ops8function6FnOnce9call_once17h218f90e43f0c8271E, symObjAddr: 0x540, symBinAddr: 0x11D88, symSize: 0x44 }
  - { offsetInCU: 0x4827, offset: 0x5ECB5, size: 0x8, addend: 0x0, symName: __ZN4core3ops8function6FnOnce9call_once17h2897f7abfd321367E, symObjAddr: 0x584, symBinAddr: 0x11DCC, symSize: 0x44 }
  - { offsetInCU: 0x486B, offset: 0x5ECF9, size: 0x8, addend: 0x0, symName: __ZN4core3ops8function6FnOnce9call_once17h290c68ae45e21112E, symObjAddr: 0x5C8, symBinAddr: 0x11E10, symSize: 0x44 }
  - { offsetInCU: 0x48AF, offset: 0x5ED3D, size: 0x8, addend: 0x0, symName: __ZN4core3ops8function6FnOnce9call_once17h29c6ffb96c6b5626E, symObjAddr: 0x60C, symBinAddr: 0x11E54, symSize: 0x44 }
  - { offsetInCU: 0x48F3, offset: 0x5ED81, size: 0x8, addend: 0x0, symName: __ZN4core3ops8function6FnOnce9call_once17h2abe42d55058c5afE, symObjAddr: 0x650, symBinAddr: 0x11E98, symSize: 0x44 }
  - { offsetInCU: 0x4937, offset: 0x5EDC5, size: 0x8, addend: 0x0, symName: __ZN4core3ops8function6FnOnce9call_once17h2d90fb32f89982b3E, symObjAddr: 0x694, symBinAddr: 0x11EDC, symSize: 0x3C }
  - { offsetInCU: 0x497B, offset: 0x5EE09, size: 0x8, addend: 0x0, symName: __ZN4core3ops8function6FnOnce9call_once17h38546425c46e3d29E, symObjAddr: 0x6F4, symBinAddr: 0x11F18, symSize: 0x44 }
  - { offsetInCU: 0x49BF, offset: 0x5EE4D, size: 0x8, addend: 0x0, symName: __ZN4core3ops8function6FnOnce9call_once17h394c9546f427d6ecE, symObjAddr: 0x738, symBinAddr: 0x11F5C, symSize: 0x44 }
  - { offsetInCU: 0x4A03, offset: 0x5EE91, size: 0x8, addend: 0x0, symName: __ZN4core3ops8function6FnOnce9call_once17h3aad32d3d9658976E, symObjAddr: 0x77C, symBinAddr: 0x11FA0, symSize: 0x24 }
  - { offsetInCU: 0x4A47, offset: 0x5EED5, size: 0x8, addend: 0x0, symName: __ZN4core3ops8function6FnOnce9call_once17h3d0dedb836cc62acE, symObjAddr: 0x7A0, symBinAddr: 0x11FC4, symSize: 0x24 }
  - { offsetInCU: 0x4A8B, offset: 0x5EF19, size: 0x8, addend: 0x0, symName: __ZN4core3ops8function6FnOnce9call_once17h3ec437db9d7aadd1E, symObjAddr: 0x7C4, symBinAddr: 0x11FE8, symSize: 0x44 }
  - { offsetInCU: 0x4ACF, offset: 0x5EF5D, size: 0x8, addend: 0x0, symName: __ZN4core3ops8function6FnOnce9call_once17h454c9250201792dbE, symObjAddr: 0x808, symBinAddr: 0x1202C, symSize: 0x24 }
  - { offsetInCU: 0x4B13, offset: 0x5EFA1, size: 0x8, addend: 0x0, symName: __ZN4core3ops8function6FnOnce9call_once17h4d19f3b2fa4943f1E, symObjAddr: 0x82C, symBinAddr: 0x12050, symSize: 0x24 }
  - { offsetInCU: 0x4B57, offset: 0x5EFE5, size: 0x8, addend: 0x0, symName: __ZN4core3ops8function6FnOnce9call_once17h4df5f18c89ccc76dE, symObjAddr: 0x850, symBinAddr: 0x12074, symSize: 0x44 }
  - { offsetInCU: 0x4B9B, offset: 0x5F029, size: 0x8, addend: 0x0, symName: __ZN4core3ops8function6FnOnce9call_once17h4ec439e6193b1050E, symObjAddr: 0x894, symBinAddr: 0x120B8, symSize: 0x44 }
  - { offsetInCU: 0x4BDF, offset: 0x5F06D, size: 0x8, addend: 0x0, symName: __ZN4core3ops8function6FnOnce9call_once17h4f1e706226eda293E, symObjAddr: 0x8D8, symBinAddr: 0x120FC, symSize: 0x44 }
  - { offsetInCU: 0x4C23, offset: 0x5F0B1, size: 0x8, addend: 0x0, symName: __ZN4core3ops8function6FnOnce9call_once17h50390b9b8fa48f33E, symObjAddr: 0x91C, symBinAddr: 0x12140, symSize: 0x44 }
  - { offsetInCU: 0x4C67, offset: 0x5F0F5, size: 0x8, addend: 0x0, symName: __ZN4core3ops8function6FnOnce9call_once17h5f3bb91788ed7ac5E, symObjAddr: 0x960, symBinAddr: 0x12184, symSize: 0x44 }
  - { offsetInCU: 0x4CAB, offset: 0x5F139, size: 0x8, addend: 0x0, symName: __ZN4core3ops8function6FnOnce9call_once17h64aad4970313c1b2E, symObjAddr: 0x9A4, symBinAddr: 0x121C8, symSize: 0x2C }
  - { offsetInCU: 0x4CEF, offset: 0x5F17D, size: 0x8, addend: 0x0, symName: __ZN4core3ops8function6FnOnce9call_once17h650616a286234a9aE, symObjAddr: 0x9D0, symBinAddr: 0x121F4, symSize: 0x48 }
  - { offsetInCU: 0x4D33, offset: 0x5F1C1, size: 0x8, addend: 0x0, symName: __ZN4core3ops8function6FnOnce9call_once17h6b4c706b5185c7b0E, symObjAddr: 0xA18, symBinAddr: 0x1223C, symSize: 0x44 }
  - { offsetInCU: 0x4D77, offset: 0x5F205, size: 0x8, addend: 0x0, symName: __ZN4core3ops8function6FnOnce9call_once17h791669abc4d9d3a6E, symObjAddr: 0xA5C, symBinAddr: 0x12280, symSize: 0x24 }
  - { offsetInCU: 0x4DBB, offset: 0x5F249, size: 0x8, addend: 0x0, symName: __ZN4core3ops8function6FnOnce9call_once17h7a514d52d004a773E, symObjAddr: 0xA80, symBinAddr: 0x122A4, symSize: 0x44 }
  - { offsetInCU: 0x4DFF, offset: 0x5F28D, size: 0x8, addend: 0x0, symName: __ZN4core3ops8function6FnOnce9call_once17h7c9fa7ec86e4faafE, symObjAddr: 0xAC4, symBinAddr: 0x122E8, symSize: 0x24 }
  - { offsetInCU: 0x4E43, offset: 0x5F2D1, size: 0x8, addend: 0x0, symName: __ZN4core3ops8function6FnOnce9call_once17h7e4015be6eabbdc3E, symObjAddr: 0xAE8, symBinAddr: 0x1230C, symSize: 0x44 }
  - { offsetInCU: 0x4E87, offset: 0x5F315, size: 0x8, addend: 0x0, symName: __ZN4core3ops8function6FnOnce9call_once17h7fb77246f672a028E, symObjAddr: 0xB2C, symBinAddr: 0x12350, symSize: 0x3C }
  - { offsetInCU: 0x4ECB, offset: 0x5F359, size: 0x8, addend: 0x0, symName: __ZN4core3ops8function6FnOnce9call_once17h7fce97ae04d1af5bE, symObjAddr: 0xB68, symBinAddr: 0x1238C, symSize: 0x44 }
  - { offsetInCU: 0x4F0F, offset: 0x5F39D, size: 0x8, addend: 0x0, symName: __ZN4core3ops8function6FnOnce9call_once17h858f7d2fd7ee1106E, symObjAddr: 0xBAC, symBinAddr: 0x123D0, symSize: 0x24 }
  - { offsetInCU: 0x4F53, offset: 0x5F3E1, size: 0x8, addend: 0x0, symName: __ZN4core3ops8function6FnOnce9call_once17h89b9a14e46cdae3dE, symObjAddr: 0xBD0, symBinAddr: 0x123F4, symSize: 0x44 }
  - { offsetInCU: 0x4F97, offset: 0x5F425, size: 0x8, addend: 0x0, symName: __ZN4core3ops8function6FnOnce9call_once17h8a0da4f6cf37942eE, symObjAddr: 0xC14, symBinAddr: 0x12438, symSize: 0x3C }
  - { offsetInCU: 0x4FDB, offset: 0x5F469, size: 0x8, addend: 0x0, symName: __ZN4core3ops8function6FnOnce9call_once17h8d6645bf2029494fE, symObjAddr: 0xC50, symBinAddr: 0x12474, symSize: 0x24 }
  - { offsetInCU: 0x501F, offset: 0x5F4AD, size: 0x8, addend: 0x0, symName: __ZN4core3ops8function6FnOnce9call_once17h980d6bf275a51964E, symObjAddr: 0xC74, symBinAddr: 0x12498, symSize: 0x44 }
  - { offsetInCU: 0x5063, offset: 0x5F4F1, size: 0x8, addend: 0x0, symName: __ZN4core3ops8function6FnOnce9call_once17h98ab835ec82d5af8E, symObjAddr: 0xCB8, symBinAddr: 0x124DC, symSize: 0x24 }
  - { offsetInCU: 0x50A7, offset: 0x5F535, size: 0x8, addend: 0x0, symName: __ZN4core3ops8function6FnOnce9call_once17ha6c31337880a9041E, symObjAddr: 0xCDC, symBinAddr: 0x12500, symSize: 0x44 }
  - { offsetInCU: 0x50EB, offset: 0x5F579, size: 0x8, addend: 0x0, symName: __ZN4core3ops8function6FnOnce9call_once17ha7bf8944374a72bdE, symObjAddr: 0xD20, symBinAddr: 0x12544, symSize: 0x44 }
  - { offsetInCU: 0x512F, offset: 0x5F5BD, size: 0x8, addend: 0x0, symName: __ZN4core3ops8function6FnOnce9call_once17hb8785e131bcb8949E, symObjAddr: 0xD64, symBinAddr: 0x12588, symSize: 0x24 }
  - { offsetInCU: 0x5173, offset: 0x5F601, size: 0x8, addend: 0x0, symName: __ZN4core3ops8function6FnOnce9call_once17hc7c98bbe4c1086caE, symObjAddr: 0xD88, symBinAddr: 0x125AC, symSize: 0x24 }
  - { offsetInCU: 0x51B7, offset: 0x5F645, size: 0x8, addend: 0x0, symName: __ZN4core3ops8function6FnOnce9call_once17hc9994244f10bf37eE, symObjAddr: 0xDAC, symBinAddr: 0x125D0, symSize: 0x44 }
  - { offsetInCU: 0x51FB, offset: 0x5F689, size: 0x8, addend: 0x0, symName: __ZN4core3ops8function6FnOnce9call_once17hcb109699dbd8ef0bE, symObjAddr: 0xDF0, symBinAddr: 0x12614, symSize: 0x3C }
  - { offsetInCU: 0x523F, offset: 0x5F6CD, size: 0x8, addend: 0x0, symName: __ZN4core3ops8function6FnOnce9call_once17hcf84d97f7370ae5aE, symObjAddr: 0xE2C, symBinAddr: 0x12650, symSize: 0x44 }
  - { offsetInCU: 0x5283, offset: 0x5F711, size: 0x8, addend: 0x0, symName: __ZN4core3ops8function6FnOnce9call_once17hcfab83494b6eb07cE, symObjAddr: 0xE70, symBinAddr: 0x12694, symSize: 0x44 }
  - { offsetInCU: 0x52C7, offset: 0x5F755, size: 0x8, addend: 0x0, symName: __ZN4core3ops8function6FnOnce9call_once17hd0163552891262f3E, symObjAddr: 0xEB4, symBinAddr: 0x126D8, symSize: 0x24 }
  - { offsetInCU: 0x530B, offset: 0x5F799, size: 0x8, addend: 0x0, symName: __ZN4core3ops8function6FnOnce9call_once17hd1c64499a498e89aE, symObjAddr: 0xED8, symBinAddr: 0x126FC, symSize: 0x24 }
  - { offsetInCU: 0x534F, offset: 0x5F7DD, size: 0x8, addend: 0x0, symName: __ZN4core3ops8function6FnOnce9call_once17hd3380ad3e26fd4c9E, symObjAddr: 0xEFC, symBinAddr: 0x12720, symSize: 0x24 }
  - { offsetInCU: 0x5393, offset: 0x5F821, size: 0x8, addend: 0x0, symName: __ZN4core3ops8function6FnOnce9call_once17hdec4b2eae9093718E, symObjAddr: 0xF20, symBinAddr: 0x12744, symSize: 0x24 }
  - { offsetInCU: 0x53D7, offset: 0x5F865, size: 0x8, addend: 0x0, symName: __ZN4core3ops8function6FnOnce9call_once17he2ee3b148b024726E, symObjAddr: 0xF44, symBinAddr: 0x12768, symSize: 0x24 }
  - { offsetInCU: 0x541B, offset: 0x5F8A9, size: 0x8, addend: 0x0, symName: __ZN4core3ops8function6FnOnce9call_once17he546dc75b74e50b1E, symObjAddr: 0xF68, symBinAddr: 0x1278C, symSize: 0x3C }
  - { offsetInCU: 0x545F, offset: 0x5F8ED, size: 0x8, addend: 0x0, symName: __ZN4core3ops8function6FnOnce9call_once17he7bc356f31ad7fb1E, symObjAddr: 0xFA4, symBinAddr: 0x127C8, symSize: 0x24 }
  - { offsetInCU: 0x54A3, offset: 0x5F931, size: 0x8, addend: 0x0, symName: __ZN4core3ops8function6FnOnce9call_once17hea9186025da3d955E, symObjAddr: 0xFC8, symBinAddr: 0x127EC, symSize: 0x44 }
  - { offsetInCU: 0x54E7, offset: 0x5F975, size: 0x8, addend: 0x0, symName: __ZN4core3ops8function6FnOnce9call_once17hed702cbe88a772a3E, symObjAddr: 0x100C, symBinAddr: 0x12830, symSize: 0x44 }
  - { offsetInCU: 0x552B, offset: 0x5F9B9, size: 0x8, addend: 0x0, symName: __ZN4core3ops8function6FnOnce9call_once17hfab4d7e695ac4d2eE, symObjAddr: 0x1050, symBinAddr: 0x12874, symSize: 0x40 }
  - { offsetInCU: 0x556F, offset: 0x5F9FD, size: 0x8, addend: 0x0, symName: __ZN4core3ops8function6FnOnce9call_once17hfb5400bad20bdad7E, symObjAddr: 0x1090, symBinAddr: 0x128B4, symSize: 0x44 }
  - { offsetInCU: 0x55B3, offset: 0x5FA41, size: 0x8, addend: 0x0, symName: __ZN4core3ops8function6FnOnce9call_once17hfee08dab64b4b4eeE, symObjAddr: 0x10D4, symBinAddr: 0x128F8, symSize: 0x44 }
  - { offsetInCU: 0x6A0C, offset: 0x60E9A, size: 0x8, addend: 0x0, symName: '__ZN69_$LT$pyo3..instance..Py$LT$T$GT$$u20$as$u20$core..ops..drop..Drop$GT$4drop17h3010023157be3f8eE', symObjAddr: 0x38CC, symBinAddr: 0x14F1C, symSize: 0x28 }
  - { offsetInCU: 0x6A3F, offset: 0x60ECD, size: 0x8, addend: 0x0, symName: '__ZN69_$LT$pyo3..instance..Py$LT$T$GT$$u20$as$u20$core..ops..drop..Drop$GT$4drop17h31d7683c4f6a0ecdE', symObjAddr: 0x38F4, symBinAddr: 0x14F44, symSize: 0x28 }
  - { offsetInCU: 0x6A72, offset: 0x60F00, size: 0x8, addend: 0x0, symName: '__ZN69_$LT$pyo3..instance..Py$LT$T$GT$$u20$as$u20$core..ops..drop..Drop$GT$4drop17h409c83c0bf006c59E', symObjAddr: 0x391C, symBinAddr: 0x14F6C, symSize: 0x28 }
  - { offsetInCU: 0x6AA5, offset: 0x60F33, size: 0x8, addend: 0x0, symName: '__ZN69_$LT$pyo3..instance..Py$LT$T$GT$$u20$as$u20$core..ops..drop..Drop$GT$4drop17h5caca62b691f2632E', symObjAddr: 0x3944, symBinAddr: 0x14F94, symSize: 0x28 }
  - { offsetInCU: 0x6AD8, offset: 0x60F66, size: 0x8, addend: 0x0, symName: '__ZN69_$LT$pyo3..instance..Py$LT$T$GT$$u20$as$u20$core..ops..drop..Drop$GT$4drop17h5db966e3464d0912E', symObjAddr: 0x396C, symBinAddr: 0x14FBC, symSize: 0x28 }
  - { offsetInCU: 0x6B0B, offset: 0x60F99, size: 0x8, addend: 0x0, symName: '__ZN69_$LT$pyo3..instance..Py$LT$T$GT$$u20$as$u20$core..ops..drop..Drop$GT$4drop17h6c7aef7a02d53d53E', symObjAddr: 0x3994, symBinAddr: 0x14FE4, symSize: 0x28 }
  - { offsetInCU: 0x6B3E, offset: 0x60FCC, size: 0x8, addend: 0x0, symName: '__ZN69_$LT$pyo3..instance..Py$LT$T$GT$$u20$as$u20$core..ops..drop..Drop$GT$4drop17h6d5a1438a029936eE', symObjAddr: 0x39BC, symBinAddr: 0x1500C, symSize: 0x28 }
  - { offsetInCU: 0x6B71, offset: 0x60FFF, size: 0x8, addend: 0x0, symName: '__ZN69_$LT$pyo3..instance..Py$LT$T$GT$$u20$as$u20$core..ops..drop..Drop$GT$4drop17h8bcb6b68c3b9f4f9E', symObjAddr: 0x39E4, symBinAddr: 0x15034, symSize: 0x28 }
  - { offsetInCU: 0x6BA4, offset: 0x61032, size: 0x8, addend: 0x0, symName: '__ZN69_$LT$pyo3..instance..Py$LT$T$GT$$u20$as$u20$core..ops..drop..Drop$GT$4drop17h99228c302999d8b1E', symObjAddr: 0x3A0C, symBinAddr: 0x1505C, symSize: 0x28 }
  - { offsetInCU: 0x6BD7, offset: 0x61065, size: 0x8, addend: 0x0, symName: '__ZN69_$LT$pyo3..instance..Py$LT$T$GT$$u20$as$u20$core..ops..drop..Drop$GT$4drop17hb01d620a2552edaaE', symObjAddr: 0x3A34, symBinAddr: 0x15084, symSize: 0x28 }
  - { offsetInCU: 0x6C0A, offset: 0x61098, size: 0x8, addend: 0x0, symName: '__ZN69_$LT$pyo3..instance..Py$LT$T$GT$$u20$as$u20$core..ops..drop..Drop$GT$4drop17hb951a668fe2d153bE', symObjAddr: 0x3A5C, symBinAddr: 0x150AC, symSize: 0x28 }
  - { offsetInCU: 0x6C3D, offset: 0x610CB, size: 0x8, addend: 0x0, symName: '__ZN69_$LT$pyo3..instance..Py$LT$T$GT$$u20$as$u20$core..ops..drop..Drop$GT$4drop17he7d5e1c01ed8edcbE', symObjAddr: 0x3A84, symBinAddr: 0x150D4, symSize: 0x28 }
  - { offsetInCU: 0x6C76, offset: 0x61104, size: 0x8, addend: 0x0, symName: '__ZN72_$LT$pyo3..instance..Bound$LT$T$GT$$u20$as$u20$core..ops..drop..Drop$GT$4drop17h07104c317b10ffc5E', symObjAddr: 0x3D74, symBinAddr: 0x153C4, symSize: 0x1A0 }
  - { offsetInCU: 0x6CE5, offset: 0x61173, size: 0x8, addend: 0x0, symName: '__ZN72_$LT$pyo3..instance..Bound$LT$T$GT$$u20$as$u20$core..ops..drop..Drop$GT$4drop17h1a48440eb1194350E', symObjAddr: 0x3F14, symBinAddr: 0x15564, symSize: 0x1A0 }
  - { offsetInCU: 0x6D54, offset: 0x611E2, size: 0x8, addend: 0x0, symName: '__ZN72_$LT$pyo3..instance..Bound$LT$T$GT$$u20$as$u20$core..ops..drop..Drop$GT$4drop17h296c9fdd8a38642aE', symObjAddr: 0x40B4, symBinAddr: 0x15704, symSize: 0x1A0 }
  - { offsetInCU: 0x6DC3, offset: 0x61251, size: 0x8, addend: 0x0, symName: '__ZN72_$LT$pyo3..instance..Bound$LT$T$GT$$u20$as$u20$core..ops..drop..Drop$GT$4drop17h34c4118670bbdf3bE', symObjAddr: 0x4254, symBinAddr: 0x158A4, symSize: 0x1A0 }
  - { offsetInCU: 0x6E32, offset: 0x612C0, size: 0x8, addend: 0x0, symName: '__ZN72_$LT$pyo3..instance..Bound$LT$T$GT$$u20$as$u20$core..ops..drop..Drop$GT$4drop17h50f12c33bc84416aE', symObjAddr: 0x43F4, symBinAddr: 0x15A44, symSize: 0x1A0 }
  - { offsetInCU: 0x6EA1, offset: 0x6132F, size: 0x8, addend: 0x0, symName: '__ZN72_$LT$pyo3..instance..Bound$LT$T$GT$$u20$as$u20$core..ops..drop..Drop$GT$4drop17h6f7a3c7594e0d913E', symObjAddr: 0x4594, symBinAddr: 0x15BE4, symSize: 0x1A0 }
  - { offsetInCU: 0x6F10, offset: 0x6139E, size: 0x8, addend: 0x0, symName: '__ZN72_$LT$pyo3..instance..Bound$LT$T$GT$$u20$as$u20$core..ops..drop..Drop$GT$4drop17h7764a6b1ba191a37E', symObjAddr: 0x4734, symBinAddr: 0x15D84, symSize: 0x1A0 }
  - { offsetInCU: 0x6F7F, offset: 0x6140D, size: 0x8, addend: 0x0, symName: '__ZN72_$LT$pyo3..instance..Bound$LT$T$GT$$u20$as$u20$core..ops..drop..Drop$GT$4drop17h7feabf5a15760c2cE', symObjAddr: 0x48D4, symBinAddr: 0x15F24, symSize: 0x1A0 }
  - { offsetInCU: 0x6FEE, offset: 0x6147C, size: 0x8, addend: 0x0, symName: '__ZN72_$LT$pyo3..instance..Bound$LT$T$GT$$u20$as$u20$core..ops..drop..Drop$GT$4drop17ha74fed80854a7bd6E', symObjAddr: 0x4A74, symBinAddr: 0x160C4, symSize: 0x1A0 }
  - { offsetInCU: 0x705D, offset: 0x614EB, size: 0x8, addend: 0x0, symName: '__ZN72_$LT$pyo3..instance..Bound$LT$T$GT$$u20$as$u20$core..ops..drop..Drop$GT$4drop17ha9fa909ae14e2061E', symObjAddr: 0x4C14, symBinAddr: 0x16264, symSize: 0x1A0 }
  - { offsetInCU: 0x70CC, offset: 0x6155A, size: 0x8, addend: 0x0, symName: '__ZN72_$LT$pyo3..instance..Bound$LT$T$GT$$u20$as$u20$core..ops..drop..Drop$GT$4drop17hca74952c9d7b57c3E', symObjAddr: 0x4DB4, symBinAddr: 0x16404, symSize: 0x1A0 }
  - { offsetInCU: 0x713B, offset: 0x615C9, size: 0x8, addend: 0x0, symName: '__ZN72_$LT$pyo3..instance..Bound$LT$T$GT$$u20$as$u20$core..ops..drop..Drop$GT$4drop17hd8ec30b209180cbcE', symObjAddr: 0x4F54, symBinAddr: 0x165A4, symSize: 0x1A0 }
  - { offsetInCU: 0x71AA, offset: 0x61638, size: 0x8, addend: 0x0, symName: '__ZN72_$LT$pyo3..instance..Bound$LT$T$GT$$u20$as$u20$core..ops..drop..Drop$GT$4drop17hdb25d49bca1395b0E', symObjAddr: 0x50F4, symBinAddr: 0x16744, symSize: 0x1A0 }
  - { offsetInCU: 0x7219, offset: 0x616A7, size: 0x8, addend: 0x0, symName: '__ZN72_$LT$pyo3..instance..Bound$LT$T$GT$$u20$as$u20$core..ops..drop..Drop$GT$4drop17he5d3293b860bf078E', symObjAddr: 0x5294, symBinAddr: 0x168E4, symSize: 0x1A0 }
  - { offsetInCU: 0x7C70, offset: 0x620FE, size: 0x8, addend: 0x0, symName: '__ZN70_$LT$pyo3..pycell..PyRef$LT$T$GT$$u20$as$u20$core..ops..drop..Drop$GT$4drop17h27e1ef8560247b94E', symObjAddr: 0x3B64, symBinAddr: 0x151B4, symSize: 0x2C }
  - { offsetInCU: 0x7CA3, offset: 0x62131, size: 0x8, addend: 0x0, symName: '__ZN70_$LT$pyo3..pycell..PyRef$LT$T$GT$$u20$as$u20$core..ops..drop..Drop$GT$4drop17h3453493a615d7cb1E', symObjAddr: 0x3B90, symBinAddr: 0x151E0, symSize: 0x2C }
  - { offsetInCU: 0x7CD6, offset: 0x62164, size: 0x8, addend: 0x0, symName: '__ZN70_$LT$pyo3..pycell..PyRef$LT$T$GT$$u20$as$u20$core..ops..drop..Drop$GT$4drop17h60b1af2ed08a1b85E', symObjAddr: 0x3BBC, symBinAddr: 0x1520C, symSize: 0x2C }
  - { offsetInCU: 0x7D09, offset: 0x62197, size: 0x8, addend: 0x0, symName: '__ZN70_$LT$pyo3..pycell..PyRef$LT$T$GT$$u20$as$u20$core..ops..drop..Drop$GT$4drop17h7e1ebb3410a86694E', symObjAddr: 0x3BE8, symBinAddr: 0x15238, symSize: 0x2C }
  - { offsetInCU: 0x7D3C, offset: 0x621CA, size: 0x8, addend: 0x0, symName: '__ZN70_$LT$pyo3..pycell..PyRef$LT$T$GT$$u20$as$u20$core..ops..drop..Drop$GT$4drop17h9a413be6a5e889e9E', symObjAddr: 0x3C14, symBinAddr: 0x15264, symSize: 0x2C }
  - { offsetInCU: 0x7D6F, offset: 0x621FD, size: 0x8, addend: 0x0, symName: '__ZN70_$LT$pyo3..pycell..PyRef$LT$T$GT$$u20$as$u20$core..ops..drop..Drop$GT$4drop17ha3b01cdb7555d910E', symObjAddr: 0x3C40, symBinAddr: 0x15290, symSize: 0x2C }
  - { offsetInCU: 0x7DA2, offset: 0x62230, size: 0x8, addend: 0x0, symName: '__ZN70_$LT$pyo3..pycell..PyRef$LT$T$GT$$u20$as$u20$core..ops..drop..Drop$GT$4drop17hafefed4e4f507ab0E', symObjAddr: 0x3C6C, symBinAddr: 0x152BC, symSize: 0x2C }
  - { offsetInCU: 0x7DD5, offset: 0x62263, size: 0x8, addend: 0x0, symName: '__ZN70_$LT$pyo3..pycell..PyRef$LT$T$GT$$u20$as$u20$core..ops..drop..Drop$GT$4drop17hb0b6958d79a9a2a6E', symObjAddr: 0x3C98, symBinAddr: 0x152E8, symSize: 0x2C }
  - { offsetInCU: 0x7E08, offset: 0x62296, size: 0x8, addend: 0x0, symName: '__ZN70_$LT$pyo3..pycell..PyRef$LT$T$GT$$u20$as$u20$core..ops..drop..Drop$GT$4drop17hd5a962756ce2539bE', symObjAddr: 0x3CC4, symBinAddr: 0x15314, symSize: 0x2C }
  - { offsetInCU: 0x7E3B, offset: 0x622C9, size: 0x8, addend: 0x0, symName: '__ZN70_$LT$pyo3..pycell..PyRef$LT$T$GT$$u20$as$u20$core..ops..drop..Drop$GT$4drop17hd8f778768423ff90E', symObjAddr: 0x3CF0, symBinAddr: 0x15340, symSize: 0x2C }
  - { offsetInCU: 0x7E6E, offset: 0x622FC, size: 0x8, addend: 0x0, symName: '__ZN70_$LT$pyo3..pycell..PyRef$LT$T$GT$$u20$as$u20$core..ops..drop..Drop$GT$4drop17hde1915121acf25abE', symObjAddr: 0x3D1C, symBinAddr: 0x1536C, symSize: 0x2C }
  - { offsetInCU: 0x7EA1, offset: 0x6232F, size: 0x8, addend: 0x0, symName: '__ZN70_$LT$pyo3..pycell..PyRef$LT$T$GT$$u20$as$u20$core..ops..drop..Drop$GT$4drop17hfdba9375afc35760E', symObjAddr: 0x3D48, symBinAddr: 0x15398, symSize: 0x2C }
  - { offsetInCU: 0x7EDA, offset: 0x62368, size: 0x8, addend: 0x0, symName: '__ZN73_$LT$pyo3..pycell..PyRefMut$LT$T$GT$$u20$as$u20$core..ops..drop..Drop$GT$4drop17h4f973986b59145b9E', symObjAddr: 0x5434, symBinAddr: 0x16A84, symSize: 0x2C }
  - { offsetInCU: 0x7F0D, offset: 0x6239B, size: 0x8, addend: 0x0, symName: '__ZN73_$LT$pyo3..pycell..PyRefMut$LT$T$GT$$u20$as$u20$core..ops..drop..Drop$GT$4drop17h80e7dafdab824daeE', symObjAddr: 0x5460, symBinAddr: 0x16AB0, symSize: 0x2C }
  - { offsetInCU: 0x7F40, offset: 0x623CE, size: 0x8, addend: 0x0, symName: '__ZN73_$LT$pyo3..pycell..PyRefMut$LT$T$GT$$u20$as$u20$core..ops..drop..Drop$GT$4drop17hcf4e5eaf4bd58cf2E', symObjAddr: 0x548C, symBinAddr: 0x16ADC, symSize: 0x2C }
  - { offsetInCU: 0x95EB, offset: 0x63A79, size: 0x8, addend: 0x0, symName: '__ZN77_$LT$alloc..raw_vec..RawVec$LT$T$C$A$GT$$u20$as$u20$core..ops..drop..Drop$GT$4drop17h09fafb4656171181E', symObjAddr: 0x54B8, symBinAddr: 0x16B08, symSize: 0x34 }
  - { offsetInCU: 0x9627, offset: 0x63AB5, size: 0x8, addend: 0x0, symName: '__ZN77_$LT$alloc..raw_vec..RawVec$LT$T$C$A$GT$$u20$as$u20$core..ops..drop..Drop$GT$4drop17h57487c62e7958390E', symObjAddr: 0x54EC, symBinAddr: 0x16B3C, symSize: 0x34 }
  - { offsetInCU: 0x9663, offset: 0x63AF1, size: 0x8, addend: 0x0, symName: '__ZN77_$LT$alloc..raw_vec..RawVec$LT$T$C$A$GT$$u20$as$u20$core..ops..drop..Drop$GT$4drop17h92b73bc9a3f8fa5dE', symObjAddr: 0x5520, symBinAddr: 0x16B70, symSize: 0x34 }
  - { offsetInCU: 0x969F, offset: 0x63B2D, size: 0x8, addend: 0x0, symName: '__ZN77_$LT$alloc..raw_vec..RawVec$LT$T$C$A$GT$$u20$as$u20$core..ops..drop..Drop$GT$4drop17hadd8c1fe03906d8dE', symObjAddr: 0x5554, symBinAddr: 0x16BA4, symSize: 0x34 }
  - { offsetInCU: 0x982C, offset: 0x63CBA, size: 0x8, addend: 0x0, symName: '__ZN111_$LT$alloc..vec..in_place_drop..InPlaceDstDataSrcBufDrop$LT$Src$C$Dest$GT$$u20$as$u20$core..ops..drop..Drop$GT$4drop17hd1d00609779a24c2E', symObjAddr: 0x0, symBinAddr: 0x11848, symSize: 0xB4 }
  - { offsetInCU: 0x99AE, offset: 0x63E3C, size: 0x8, addend: 0x0, symName: '__ZN89_$LT$alloc..vec..in_place_drop..InPlaceDrop$LT$T$GT$$u20$as$u20$core..ops..drop..Drop$GT$4drop17h5d3fdbd8760a8da3E', symObjAddr: 0x56F0, symBinAddr: 0x16D40, symSize: 0x40 }
  - { offsetInCU: 0x9A6A, offset: 0x63EF8, size: 0x8, addend: 0x0, symName: '__ZN157_$LT$$LT$alloc..vec..into_iter..IntoIter$LT$T$C$A$GT$$u20$as$u20$core..ops..drop..Drop$GT$..drop..DropGuard$LT$T$C$A$GT$$u20$as$u20$core..ops..drop..Drop$GT$4drop17h071cd8c558690af6E', symObjAddr: 0xB4, symBinAddr: 0x118FC, symSize: 0x6C }
  - { offsetInCU: 0x9BAD, offset: 0x6403B, size: 0x8, addend: 0x0, symName: '__ZN157_$LT$$LT$alloc..vec..into_iter..IntoIter$LT$T$C$A$GT$$u20$as$u20$core..ops..drop..Drop$GT$..drop..DropGuard$LT$T$C$A$GT$$u20$as$u20$core..ops..drop..Drop$GT$4drop17h42ad21786af2cacfE', symObjAddr: 0x120, symBinAddr: 0x11968, symSize: 0x6C }
  - { offsetInCU: 0x9CF0, offset: 0x6417E, size: 0x8, addend: 0x0, symName: '__ZN157_$LT$$LT$alloc..vec..into_iter..IntoIter$LT$T$C$A$GT$$u20$as$u20$core..ops..drop..Drop$GT$..drop..DropGuard$LT$T$C$A$GT$$u20$as$u20$core..ops..drop..Drop$GT$4drop17h42b29d2391f26b57E', symObjAddr: 0x18C, symBinAddr: 0x119D4, symSize: 0x6C }
  - { offsetInCU: 0x9EAA, offset: 0x64338, size: 0x8, addend: 0x0, symName: '__ZN86_$LT$alloc..vec..into_iter..IntoIter$LT$T$C$A$GT$$u20$as$u20$core..ops..drop..Drop$GT$4drop17h7e2eff3cbbbe8548E', symObjAddr: 0x5588, symBinAddr: 0x16BD8, symSize: 0x78 }
  - { offsetInCU: 0x9EFC, offset: 0x6438A, size: 0x8, addend: 0x0, symName: '__ZN86_$LT$alloc..vec..into_iter..IntoIter$LT$T$C$A$GT$$u20$as$u20$core..ops..drop..Drop$GT$4drop17hb727538f23daa867E', symObjAddr: 0x5600, symBinAddr: 0x16C50, symSize: 0x78 }
  - { offsetInCU: 0x9F4E, offset: 0x643DC, size: 0x8, addend: 0x0, symName: '__ZN86_$LT$alloc..vec..into_iter..IntoIter$LT$T$C$A$GT$$u20$as$u20$core..ops..drop..Drop$GT$4drop17hd613c832ecddd086E', symObjAddr: 0x5678, symBinAddr: 0x16CC8, symSize: 0x78 }
  - { offsetInCU: 0xA15E, offset: 0x645EC, size: 0x8, addend: 0x0, symName: '__ZN70_$LT$alloc..vec..Vec$LT$T$C$A$GT$$u20$as$u20$core..ops..drop..Drop$GT$4drop17h8a5c20bdfe2ff4b5E', symObjAddr: 0x3AAC, symBinAddr: 0x150FC, symSize: 0x24 }
  - { offsetInCU: 0xA20E, offset: 0x6469C, size: 0x8, addend: 0x0, symName: '__ZN70_$LT$alloc..vec..Vec$LT$T$C$A$GT$$u20$as$u20$core..ops..drop..Drop$GT$4drop17h987e3014c1131117E', symObjAddr: 0x3AD0, symBinAddr: 0x15120, symSize: 0x24 }
  - { offsetInCU: 0xA2BE, offset: 0x6474C, size: 0x8, addend: 0x0, symName: '__ZN70_$LT$alloc..vec..Vec$LT$T$C$A$GT$$u20$as$u20$core..ops..drop..Drop$GT$4drop17hc3f841af366420acE', symObjAddr: 0x3AF4, symBinAddr: 0x15144, symSize: 0x38 }
  - { offsetInCU: 0xA36E, offset: 0x647FC, size: 0x8, addend: 0x0, symName: '__ZN70_$LT$alloc..vec..Vec$LT$T$C$A$GT$$u20$as$u20$core..ops..drop..Drop$GT$4drop17hed2b74b64390f6ebE', symObjAddr: 0x3B2C, symBinAddr: 0x1517C, symSize: 0x38 }
  - { offsetInCU: 0x1E, offset: 0x676BF, size: 0x8, addend: 0x0, symName: '__ZN4pyo35impl_4wrap30IntoPyObjectConverter$LT$T$GT$4wrap17h00e3c0c0aa471f43E', symObjAddr: 0x0, symBinAddr: 0x16D80, symSize: 0x34 }
  - { offsetInCU: 0x2EAB, offset: 0x6A54C, size: 0x8, addend: 0x0, symName: '__ZN4pyo35impl_4wrap62IntoPyObjectConverter$LT$core..result..Result$LT$T$C$E$GT$$GT$12map_into_ptr28_$u7b$$u7b$closure$u7d$$u7d$17h16df65438c3c2a51E', symObjAddr: 0x4D4, symBinAddr: 0x17254, symSize: 0x40 }
  - { offsetInCU: 0x2F03, offset: 0x6A5A4, size: 0x8, addend: 0x0, symName: '__ZN4pyo35impl_4wrap62IntoPyObjectConverter$LT$core..result..Result$LT$T$C$E$GT$$GT$12map_into_ptr28_$u7b$$u7b$closure$u7d$$u7d$17h29a55b712fcb479cE', symObjAddr: 0x514, symBinAddr: 0x17294, symSize: 0x24 }
  - { offsetInCU: 0x2F5A, offset: 0x6A5FB, size: 0x8, addend: 0x0, symName: '__ZN4pyo35impl_4wrap62IntoPyObjectConverter$LT$core..result..Result$LT$T$C$E$GT$$GT$12map_into_ptr28_$u7b$$u7b$closure$u7d$$u7d$17h4dd5af278e62cb10E', symObjAddr: 0x538, symBinAddr: 0x172B8, symSize: 0x2C }
  - { offsetInCU: 0x2FB1, offset: 0x6A652, size: 0x8, addend: 0x0, symName: '__ZN4pyo35impl_4wrap62IntoPyObjectConverter$LT$core..result..Result$LT$T$C$E$GT$$GT$12map_into_ptr28_$u7b$$u7b$closure$u7d$$u7d$17h775d4bee305431a1E', symObjAddr: 0x564, symBinAddr: 0x172E4, symSize: 0x40 }
  - { offsetInCU: 0x3009, offset: 0x6A6AA, size: 0x8, addend: 0x0, symName: '__ZN4pyo35impl_4wrap62IntoPyObjectConverter$LT$core..result..Result$LT$T$C$E$GT$$GT$12map_into_ptr28_$u7b$$u7b$closure$u7d$$u7d$17h8b8ffdc8da12cbb5E', symObjAddr: 0x5A4, symBinAddr: 0x17324, symSize: 0x40 }
  - { offsetInCU: 0x3061, offset: 0x6A702, size: 0x8, addend: 0x0, symName: '__ZN4pyo35impl_4wrap62IntoPyObjectConverter$LT$core..result..Result$LT$T$C$E$GT$$GT$12map_into_ptr28_$u7b$$u7b$closure$u7d$$u7d$17h8df2e713e484a983E', symObjAddr: 0x5E4, symBinAddr: 0x17364, symSize: 0x40 }
  - { offsetInCU: 0x30B9, offset: 0x6A75A, size: 0x8, addend: 0x0, symName: '__ZN4pyo35impl_4wrap62IntoPyObjectConverter$LT$core..result..Result$LT$T$C$E$GT$$GT$12map_into_ptr28_$u7b$$u7b$closure$u7d$$u7d$17ha91bb23f4ca80c4fE', symObjAddr: 0x624, symBinAddr: 0x173A4, symSize: 0x40 }
  - { offsetInCU: 0x3111, offset: 0x6A7B2, size: 0x8, addend: 0x0, symName: '__ZN4pyo35impl_4wrap62IntoPyObjectConverter$LT$core..result..Result$LT$T$C$E$GT$$GT$12map_into_ptr28_$u7b$$u7b$closure$u7d$$u7d$17hac98b0dd1961f37cE', symObjAddr: 0x664, symBinAddr: 0x173E4, symSize: 0x30 }
  - { offsetInCU: 0x3168, offset: 0x6A809, size: 0x8, addend: 0x0, symName: '__ZN4pyo35impl_4wrap62IntoPyObjectConverter$LT$core..result..Result$LT$T$C$E$GT$$GT$12map_into_ptr28_$u7b$$u7b$closure$u7d$$u7d$17hb69d597e3f68a991E', symObjAddr: 0x694, symBinAddr: 0x17414, symSize: 0x3C }
  - { offsetInCU: 0x31BF, offset: 0x6A860, size: 0x8, addend: 0x0, symName: '__ZN4pyo35impl_4wrap62IntoPyObjectConverter$LT$core..result..Result$LT$T$C$E$GT$$GT$12map_into_ptr28_$u7b$$u7b$closure$u7d$$u7d$17hd684616132c89d12E', symObjAddr: 0x6D0, symBinAddr: 0x17450, symSize: 0x40 }
  - { offsetInCU: 0x3217, offset: 0x6A8B8, size: 0x8, addend: 0x0, symName: '__ZN4pyo35impl_4wrap62IntoPyObjectConverter$LT$core..result..Result$LT$T$C$E$GT$$GT$12map_into_ptr28_$u7b$$u7b$closure$u7d$$u7d$17hec6b5f40d518edfdE', symObjAddr: 0x710, symBinAddr: 0x17490, symSize: 0x34 }
  - { offsetInCU: 0x334C, offset: 0x6A9ED, size: 0x8, addend: 0x0, symName: '__ZN4pyo35impl_4wrap82EmptyTupleConverter$LT$core..result..Result$LT$$LP$$RP$$C$pyo3..err..PyErr$GT$$GT$12map_into_ptr28_$u7b$$u7b$closure$u7d$$u7d$17h5edd4259b3496da4E', symObjAddr: 0x848, symBinAddr: 0x175C8, symSize: 0x28 }
  - { offsetInCU: 0x33A2, offset: 0x6AA43, size: 0x8, addend: 0x0, symName: __ZN4pyo35impl_4wrap9converter17h00089a498f3d8e94E, symObjAddr: 0x870, symBinAddr: 0x175F0, symSize: 0x10 }
  - { offsetInCU: 0x33CF, offset: 0x6AA70, size: 0x8, addend: 0x0, symName: __ZN4pyo35impl_4wrap9converter17h06ec7f324b9203e6E, symObjAddr: 0x880, symBinAddr: 0x17600, symSize: 0x10 }
  - { offsetInCU: 0x33FC, offset: 0x6AA9D, size: 0x8, addend: 0x0, symName: __ZN4pyo35impl_4wrap9converter17h1d1596fc57f55c48E, symObjAddr: 0x890, symBinAddr: 0x17610, symSize: 0x10 }
  - { offsetInCU: 0x3429, offset: 0x6AACA, size: 0x8, addend: 0x0, symName: __ZN4pyo35impl_4wrap9converter17h278ea18847ba49f9E, symObjAddr: 0x8A0, symBinAddr: 0x17620, symSize: 0x10 }
  - { offsetInCU: 0x3456, offset: 0x6AAF7, size: 0x8, addend: 0x0, symName: __ZN4pyo35impl_4wrap9converter17h336b5cc4a6455cdcE, symObjAddr: 0x8B0, symBinAddr: 0x17630, symSize: 0x10 }
  - { offsetInCU: 0x3483, offset: 0x6AB24, size: 0x8, addend: 0x0, symName: __ZN4pyo35impl_4wrap9converter17h38d6a24c462ddad1E, symObjAddr: 0x8C0, symBinAddr: 0x17640, symSize: 0x10 }
  - { offsetInCU: 0x34B0, offset: 0x6AB51, size: 0x8, addend: 0x0, symName: __ZN4pyo35impl_4wrap9converter17h45266b2c083f3f26E, symObjAddr: 0x8D0, symBinAddr: 0x17650, symSize: 0x10 }
  - { offsetInCU: 0x34DD, offset: 0x6AB7E, size: 0x8, addend: 0x0, symName: __ZN4pyo35impl_4wrap9converter17h486eab77aca3b276E, symObjAddr: 0x8E0, symBinAddr: 0x17660, symSize: 0x10 }
  - { offsetInCU: 0x350A, offset: 0x6ABAB, size: 0x8, addend: 0x0, symName: __ZN4pyo35impl_4wrap9converter17h5561f626ca4e5d4dE, symObjAddr: 0x8F0, symBinAddr: 0x17670, symSize: 0x10 }
  - { offsetInCU: 0x3537, offset: 0x6ABD8, size: 0x8, addend: 0x0, symName: __ZN4pyo35impl_4wrap9converter17h5b8ff088515d8a72E, symObjAddr: 0x900, symBinAddr: 0x17680, symSize: 0x10 }
  - { offsetInCU: 0x3564, offset: 0x6AC05, size: 0x8, addend: 0x0, symName: __ZN4pyo35impl_4wrap9converter17h5ddc2792b9e55a60E, symObjAddr: 0x910, symBinAddr: 0x17690, symSize: 0x10 }
  - { offsetInCU: 0x3591, offset: 0x6AC32, size: 0x8, addend: 0x0, symName: __ZN4pyo35impl_4wrap9converter17h5e617f7398c63869E, symObjAddr: 0x920, symBinAddr: 0x176A0, symSize: 0x10 }
  - { offsetInCU: 0x35BE, offset: 0x6AC5F, size: 0x8, addend: 0x0, symName: __ZN4pyo35impl_4wrap9converter17h7a094fdb42ca9c78E, symObjAddr: 0x930, symBinAddr: 0x176B0, symSize: 0x10 }
  - { offsetInCU: 0x35EB, offset: 0x6AC8C, size: 0x8, addend: 0x0, symName: __ZN4pyo35impl_4wrap9converter17h946ac1d83a498850E, symObjAddr: 0x940, symBinAddr: 0x176C0, symSize: 0x10 }
  - { offsetInCU: 0x3618, offset: 0x6ACB9, size: 0x8, addend: 0x0, symName: __ZN4pyo35impl_4wrap9converter17h9516474e36a5b643E, symObjAddr: 0x950, symBinAddr: 0x176D0, symSize: 0x10 }
  - { offsetInCU: 0x3645, offset: 0x6ACE6, size: 0x8, addend: 0x0, symName: __ZN4pyo35impl_4wrap9converter17hab8c4bd472edd4f4E, symObjAddr: 0x960, symBinAddr: 0x176E0, symSize: 0x10 }
  - { offsetInCU: 0x3672, offset: 0x6AD13, size: 0x8, addend: 0x0, symName: __ZN4pyo35impl_4wrap9converter17hbde4e1a4b852049dE, symObjAddr: 0x970, symBinAddr: 0x176F0, symSize: 0x10 }
  - { offsetInCU: 0x369F, offset: 0x6AD40, size: 0x8, addend: 0x0, symName: __ZN4pyo35impl_4wrap9converter17hc464ef72bb7b690cE, symObjAddr: 0x980, symBinAddr: 0x17700, symSize: 0x10 }
  - { offsetInCU: 0x36CC, offset: 0x6AD6D, size: 0x8, addend: 0x0, symName: __ZN4pyo35impl_4wrap9converter17hed25ec60c3546990E, symObjAddr: 0x990, symBinAddr: 0x17710, symSize: 0x10 }
  - { offsetInCU: 0x36F9, offset: 0x6AD9A, size: 0x8, addend: 0x0, symName: __ZN4pyo35impl_4wrap9converter17hffa282c1fc24a7c0E, symObjAddr: 0x9A0, symBinAddr: 0x17720, symSize: 0x10 }
  - { offsetInCU: 0x372B, offset: 0x6ADCC, size: 0x8, addend: 0x0, symName: '__ZN81_$LT$pyo3..impl_..wrap..Converter$LT$T$GT$$u20$as$u20$core..ops..deref..Deref$GT$5deref17h139f2999262f18d7E', symObjAddr: 0x9B0, symBinAddr: 0x17730, symSize: 0x14 }
  - { offsetInCU: 0x3760, offset: 0x6AE01, size: 0x8, addend: 0x0, symName: '__ZN81_$LT$pyo3..impl_..wrap..Converter$LT$T$GT$$u20$as$u20$core..ops..deref..Deref$GT$5deref17h175a99a8c7c22ed1E', symObjAddr: 0x9C4, symBinAddr: 0x17744, symSize: 0x14 }
  - { offsetInCU: 0x3795, offset: 0x6AE36, size: 0x8, addend: 0x0, symName: '__ZN81_$LT$pyo3..impl_..wrap..Converter$LT$T$GT$$u20$as$u20$core..ops..deref..Deref$GT$5deref17h1ed027a08a2795edE', symObjAddr: 0x9D8, symBinAddr: 0x17758, symSize: 0x14 }
  - { offsetInCU: 0x37CA, offset: 0x6AE6B, size: 0x8, addend: 0x0, symName: '__ZN81_$LT$pyo3..impl_..wrap..Converter$LT$T$GT$$u20$as$u20$core..ops..deref..Deref$GT$5deref17h4002ee26521de3f9E', symObjAddr: 0x9EC, symBinAddr: 0x1776C, symSize: 0x14 }
  - { offsetInCU: 0x37FF, offset: 0x6AEA0, size: 0x8, addend: 0x0, symName: '__ZN81_$LT$pyo3..impl_..wrap..Converter$LT$T$GT$$u20$as$u20$core..ops..deref..Deref$GT$5deref17h4745fb2125c152cdE', symObjAddr: 0xA00, symBinAddr: 0x17780, symSize: 0x14 }
  - { offsetInCU: 0x3834, offset: 0x6AED5, size: 0x8, addend: 0x0, symName: '__ZN81_$LT$pyo3..impl_..wrap..Converter$LT$T$GT$$u20$as$u20$core..ops..deref..Deref$GT$5deref17h54d7ed65a5609b47E', symObjAddr: 0xA14, symBinAddr: 0x17794, symSize: 0x14 }
  - { offsetInCU: 0x3869, offset: 0x6AF0A, size: 0x8, addend: 0x0, symName: '__ZN81_$LT$pyo3..impl_..wrap..Converter$LT$T$GT$$u20$as$u20$core..ops..deref..Deref$GT$5deref17h5a9fee994a9ce317E', symObjAddr: 0xA28, symBinAddr: 0x177A8, symSize: 0x14 }
  - { offsetInCU: 0x389E, offset: 0x6AF3F, size: 0x8, addend: 0x0, symName: '__ZN81_$LT$pyo3..impl_..wrap..Converter$LT$T$GT$$u20$as$u20$core..ops..deref..Deref$GT$5deref17h5fffb135843222f7E', symObjAddr: 0xA3C, symBinAddr: 0x177BC, symSize: 0x14 }
  - { offsetInCU: 0x38D3, offset: 0x6AF74, size: 0x8, addend: 0x0, symName: '__ZN81_$LT$pyo3..impl_..wrap..Converter$LT$T$GT$$u20$as$u20$core..ops..deref..Deref$GT$5deref17h6a358a9aa31156c8E', symObjAddr: 0xA50, symBinAddr: 0x177D0, symSize: 0x14 }
  - { offsetInCU: 0x3908, offset: 0x6AFA9, size: 0x8, addend: 0x0, symName: '__ZN81_$LT$pyo3..impl_..wrap..Converter$LT$T$GT$$u20$as$u20$core..ops..deref..Deref$GT$5deref17h75445a1ed266acb3E', symObjAddr: 0xA64, symBinAddr: 0x177E4, symSize: 0x14 }
  - { offsetInCU: 0x393D, offset: 0x6AFDE, size: 0x8, addend: 0x0, symName: '__ZN81_$LT$pyo3..impl_..wrap..Converter$LT$T$GT$$u20$as$u20$core..ops..deref..Deref$GT$5deref17h7d5ebf9d60b5b32cE', symObjAddr: 0xA78, symBinAddr: 0x177F8, symSize: 0x14 }
  - { offsetInCU: 0x3972, offset: 0x6B013, size: 0x8, addend: 0x0, symName: '__ZN81_$LT$pyo3..impl_..wrap..Converter$LT$T$GT$$u20$as$u20$core..ops..deref..Deref$GT$5deref17h9d893025b5d0a630E', symObjAddr: 0xA8C, symBinAddr: 0x1780C, symSize: 0x14 }
  - { offsetInCU: 0x39A7, offset: 0x6B048, size: 0x8, addend: 0x0, symName: '__ZN81_$LT$pyo3..impl_..wrap..Converter$LT$T$GT$$u20$as$u20$core..ops..deref..Deref$GT$5deref17ha10b9155177444a6E', symObjAddr: 0xAA0, symBinAddr: 0x17820, symSize: 0x14 }
  - { offsetInCU: 0x39DC, offset: 0x6B07D, size: 0x8, addend: 0x0, symName: '__ZN81_$LT$pyo3..impl_..wrap..Converter$LT$T$GT$$u20$as$u20$core..ops..deref..Deref$GT$5deref17haaffea49fd8b5744E', symObjAddr: 0xAB4, symBinAddr: 0x17834, symSize: 0x14 }
  - { offsetInCU: 0x3A11, offset: 0x6B0B2, size: 0x8, addend: 0x0, symName: '__ZN81_$LT$pyo3..impl_..wrap..Converter$LT$T$GT$$u20$as$u20$core..ops..deref..Deref$GT$5deref17had0e9c76be602b06E', symObjAddr: 0xAC8, symBinAddr: 0x17848, symSize: 0x14 }
  - { offsetInCU: 0x3A46, offset: 0x6B0E7, size: 0x8, addend: 0x0, symName: '__ZN81_$LT$pyo3..impl_..wrap..Converter$LT$T$GT$$u20$as$u20$core..ops..deref..Deref$GT$5deref17had5c2639dbb24c10E', symObjAddr: 0xADC, symBinAddr: 0x1785C, symSize: 0x14 }
  - { offsetInCU: 0x3A7B, offset: 0x6B11C, size: 0x8, addend: 0x0, symName: '__ZN81_$LT$pyo3..impl_..wrap..Converter$LT$T$GT$$u20$as$u20$core..ops..deref..Deref$GT$5deref17hc702e3688a8820fbE', symObjAddr: 0xAF0, symBinAddr: 0x17870, symSize: 0x14 }
  - { offsetInCU: 0x3AB0, offset: 0x6B151, size: 0x8, addend: 0x0, symName: '__ZN81_$LT$pyo3..impl_..wrap..Converter$LT$T$GT$$u20$as$u20$core..ops..deref..Deref$GT$5deref17hd5da9680a8158ebdE', symObjAddr: 0xB04, symBinAddr: 0x17884, symSize: 0x14 }
  - { offsetInCU: 0x3AE5, offset: 0x6B186, size: 0x8, addend: 0x0, symName: '__ZN81_$LT$pyo3..impl_..wrap..Converter$LT$T$GT$$u20$as$u20$core..ops..deref..Deref$GT$5deref17he0f5a23f4c3942d9E', symObjAddr: 0xB18, symBinAddr: 0x17898, symSize: 0x14 }
  - { offsetInCU: 0x3B1A, offset: 0x6B1BB, size: 0x8, addend: 0x0, symName: '__ZN81_$LT$pyo3..impl_..wrap..Converter$LT$T$GT$$u20$as$u20$core..ops..deref..Deref$GT$5deref17hec20980502d8e506E', symObjAddr: 0xB2C, symBinAddr: 0x178AC, symSize: 0x14 }
  - { offsetInCU: 0x3B55, offset: 0x6B1F6, size: 0x8, addend: 0x0, symName: '__ZN91_$LT$pyo3..impl_..wrap..EmptyTupleConverter$LT$T$GT$$u20$as$u20$core..ops..deref..Deref$GT$5deref17h02c9478354eefd2bE', symObjAddr: 0xB40, symBinAddr: 0x178C0, symSize: 0x14 }
  - { offsetInCU: 0x3B8A, offset: 0x6B22B, size: 0x8, addend: 0x0, symName: '__ZN91_$LT$pyo3..impl_..wrap..EmptyTupleConverter$LT$T$GT$$u20$as$u20$core..ops..deref..Deref$GT$5deref17h05125da5c754b25fE', symObjAddr: 0xB54, symBinAddr: 0x178D4, symSize: 0x14 }
  - { offsetInCU: 0x3BBF, offset: 0x6B260, size: 0x8, addend: 0x0, symName: '__ZN91_$LT$pyo3..impl_..wrap..EmptyTupleConverter$LT$T$GT$$u20$as$u20$core..ops..deref..Deref$GT$5deref17h259a335e1d9fa181E', symObjAddr: 0xB68, symBinAddr: 0x178E8, symSize: 0x14 }
  - { offsetInCU: 0x3BF4, offset: 0x6B295, size: 0x8, addend: 0x0, symName: '__ZN91_$LT$pyo3..impl_..wrap..EmptyTupleConverter$LT$T$GT$$u20$as$u20$core..ops..deref..Deref$GT$5deref17h2a0e9577ef646f29E', symObjAddr: 0xB7C, symBinAddr: 0x178FC, symSize: 0x14 }
  - { offsetInCU: 0x3C29, offset: 0x6B2CA, size: 0x8, addend: 0x0, symName: '__ZN91_$LT$pyo3..impl_..wrap..EmptyTupleConverter$LT$T$GT$$u20$as$u20$core..ops..deref..Deref$GT$5deref17h3f155efb92061e75E', symObjAddr: 0xB90, symBinAddr: 0x17910, symSize: 0x14 }
  - { offsetInCU: 0x3C5E, offset: 0x6B2FF, size: 0x8, addend: 0x0, symName: '__ZN91_$LT$pyo3..impl_..wrap..EmptyTupleConverter$LT$T$GT$$u20$as$u20$core..ops..deref..Deref$GT$5deref17h4e9163dc306cadb0E', symObjAddr: 0xBA4, symBinAddr: 0x17924, symSize: 0x14 }
  - { offsetInCU: 0x3C93, offset: 0x6B334, size: 0x8, addend: 0x0, symName: '__ZN91_$LT$pyo3..impl_..wrap..EmptyTupleConverter$LT$T$GT$$u20$as$u20$core..ops..deref..Deref$GT$5deref17h5b9bc789ccb1582aE', symObjAddr: 0xBB8, symBinAddr: 0x17938, symSize: 0x14 }
  - { offsetInCU: 0x3CC8, offset: 0x6B369, size: 0x8, addend: 0x0, symName: '__ZN91_$LT$pyo3..impl_..wrap..EmptyTupleConverter$LT$T$GT$$u20$as$u20$core..ops..deref..Deref$GT$5deref17h5d087ec538aa0f4dE', symObjAddr: 0xBCC, symBinAddr: 0x1794C, symSize: 0x14 }
  - { offsetInCU: 0x3CFD, offset: 0x6B39E, size: 0x8, addend: 0x0, symName: '__ZN91_$LT$pyo3..impl_..wrap..EmptyTupleConverter$LT$T$GT$$u20$as$u20$core..ops..deref..Deref$GT$5deref17h7b377dfdd29edf92E', symObjAddr: 0xBE0, symBinAddr: 0x17960, symSize: 0x14 }
  - { offsetInCU: 0x3D32, offset: 0x6B3D3, size: 0x8, addend: 0x0, symName: '__ZN91_$LT$pyo3..impl_..wrap..EmptyTupleConverter$LT$T$GT$$u20$as$u20$core..ops..deref..Deref$GT$5deref17h7e9970dc2df99048E', symObjAddr: 0xBF4, symBinAddr: 0x17974, symSize: 0x14 }
  - { offsetInCU: 0x3D67, offset: 0x6B408, size: 0x8, addend: 0x0, symName: '__ZN91_$LT$pyo3..impl_..wrap..EmptyTupleConverter$LT$T$GT$$u20$as$u20$core..ops..deref..Deref$GT$5deref17h96c460fb649ff098E', symObjAddr: 0xC08, symBinAddr: 0x17988, symSize: 0x14 }
  - { offsetInCU: 0x3D9C, offset: 0x6B43D, size: 0x8, addend: 0x0, symName: '__ZN91_$LT$pyo3..impl_..wrap..EmptyTupleConverter$LT$T$GT$$u20$as$u20$core..ops..deref..Deref$GT$5deref17ha69cd71192e3bae8E', symObjAddr: 0xC1C, symBinAddr: 0x1799C, symSize: 0x14 }
  - { offsetInCU: 0x3DD1, offset: 0x6B472, size: 0x8, addend: 0x0, symName: '__ZN91_$LT$pyo3..impl_..wrap..EmptyTupleConverter$LT$T$GT$$u20$as$u20$core..ops..deref..Deref$GT$5deref17hb13bd95c206cbce1E', symObjAddr: 0xC30, symBinAddr: 0x179B0, symSize: 0x14 }
  - { offsetInCU: 0x3E06, offset: 0x6B4A7, size: 0x8, addend: 0x0, symName: '__ZN91_$LT$pyo3..impl_..wrap..EmptyTupleConverter$LT$T$GT$$u20$as$u20$core..ops..deref..Deref$GT$5deref17hb7c4fc1a57dc03baE', symObjAddr: 0xC44, symBinAddr: 0x179C4, symSize: 0x14 }
  - { offsetInCU: 0x3E3B, offset: 0x6B4DC, size: 0x8, addend: 0x0, symName: '__ZN91_$LT$pyo3..impl_..wrap..EmptyTupleConverter$LT$T$GT$$u20$as$u20$core..ops..deref..Deref$GT$5deref17hbcf07551ec47a358E', symObjAddr: 0xC58, symBinAddr: 0x179D8, symSize: 0x14 }
  - { offsetInCU: 0x3E70, offset: 0x6B511, size: 0x8, addend: 0x0, symName: '__ZN91_$LT$pyo3..impl_..wrap..EmptyTupleConverter$LT$T$GT$$u20$as$u20$core..ops..deref..Deref$GT$5deref17hc37901ce1886b2cdE', symObjAddr: 0xC6C, symBinAddr: 0x179EC, symSize: 0x14 }
  - { offsetInCU: 0x3EA5, offset: 0x6B546, size: 0x8, addend: 0x0, symName: '__ZN91_$LT$pyo3..impl_..wrap..EmptyTupleConverter$LT$T$GT$$u20$as$u20$core..ops..deref..Deref$GT$5deref17hd800aec9e39b0e21E', symObjAddr: 0xC80, symBinAddr: 0x17A00, symSize: 0x14 }
  - { offsetInCU: 0x3EDA, offset: 0x6B57B, size: 0x8, addend: 0x0, symName: '__ZN91_$LT$pyo3..impl_..wrap..EmptyTupleConverter$LT$T$GT$$u20$as$u20$core..ops..deref..Deref$GT$5deref17hebfa5f74653ee545E', symObjAddr: 0xC94, symBinAddr: 0x17A14, symSize: 0x14 }
  - { offsetInCU: 0x3F0F, offset: 0x6B5B0, size: 0x8, addend: 0x0, symName: '__ZN91_$LT$pyo3..impl_..wrap..EmptyTupleConverter$LT$T$GT$$u20$as$u20$core..ops..deref..Deref$GT$5deref17hf42e005114da427eE', symObjAddr: 0xCA8, symBinAddr: 0x17A28, symSize: 0x14 }
  - { offsetInCU: 0x4E26, offset: 0x6C4C7, size: 0x8, addend: 0x0, symName: '__ZN4pyo35impl_4wrap30IntoPyObjectConverter$LT$T$GT$4wrap17h00e3c0c0aa471f43E', symObjAddr: 0x0, symBinAddr: 0x16D80, symSize: 0x34 }
  - { offsetInCU: 0x4E6D, offset: 0x6C50E, size: 0x8, addend: 0x0, symName: '__ZN4pyo35impl_4wrap30IntoPyObjectConverter$LT$T$GT$4wrap17h25644943056e7d5aE', symObjAddr: 0x34, symBinAddr: 0x16DB4, symSize: 0x14 }
  - { offsetInCU: 0x4EBA, offset: 0x6C55B, size: 0x8, addend: 0x0, symName: '__ZN4pyo35impl_4wrap30IntoPyObjectConverter$LT$T$GT$4wrap17h3877553a5614b77cE', symObjAddr: 0x48, symBinAddr: 0x16DC8, symSize: 0x10 }
  - { offsetInCU: 0x4F00, offset: 0x6C5A1, size: 0x8, addend: 0x0, symName: '__ZN4pyo35impl_4wrap30IntoPyObjectConverter$LT$T$GT$4wrap17h5ab5023065a69680E', symObjAddr: 0x58, symBinAddr: 0x16DD8, symSize: 0x20 }
  - { offsetInCU: 0x5559, offset: 0x6CBFA, size: 0x8, addend: 0x0, symName: '__ZN4pyo35impl_4wrap30IntoPyObjectConverter$LT$T$GT$4wrap17h6045d0cb1f12ae7aE', symObjAddr: 0x78, symBinAddr: 0x16DF8, symSize: 0x2C }
  - { offsetInCU: 0x559F, offset: 0x6CC40, size: 0x8, addend: 0x0, symName: '__ZN4pyo35impl_4wrap30IntoPyObjectConverter$LT$T$GT$4wrap17h6a1a1eafba878dd2E', symObjAddr: 0xA4, symBinAddr: 0x16E24, symSize: 0x1C }
  - { offsetInCU: 0x55E5, offset: 0x6CC86, size: 0x8, addend: 0x0, symName: '__ZN4pyo35impl_4wrap30IntoPyObjectConverter$LT$T$GT$4wrap17hbd2f50a81f2ed06cE', symObjAddr: 0xC0, symBinAddr: 0x16E40, symSize: 0x34 }
  - { offsetInCU: 0x5651, offset: 0x6CCF2, size: 0x8, addend: 0x0, symName: '__ZN4pyo35impl_4wrap30IntoPyObjectConverter$LT$T$GT$4wrap17hd359c384328c1bebE', symObjAddr: 0xF4, symBinAddr: 0x16E74, symSize: 0x34 }
  - { offsetInCU: 0x5890, offset: 0x6CF31, size: 0x8, addend: 0x0, symName: '__ZN4pyo35impl_4wrap62IntoPyObjectConverter$LT$core..result..Result$LT$T$C$E$GT$$GT$12map_into_ptr17h0932a42385f4a4ddE', symObjAddr: 0x128, symBinAddr: 0x16EA8, symSize: 0x54 }
  - { offsetInCU: 0x5915, offset: 0x6CFB6, size: 0x8, addend: 0x0, symName: '__ZN4pyo35impl_4wrap62IntoPyObjectConverter$LT$core..result..Result$LT$T$C$E$GT$$GT$12map_into_ptr17h2811dd0747472f1cE', symObjAddr: 0x17C, symBinAddr: 0x16EFC, symSize: 0x54 }
  - { offsetInCU: 0x5980, offset: 0x6D021, size: 0x8, addend: 0x0, symName: '__ZN4pyo35impl_4wrap62IntoPyObjectConverter$LT$core..result..Result$LT$T$C$E$GT$$GT$12map_into_ptr17h2b5eecbda77050f8E', symObjAddr: 0x1D0, symBinAddr: 0x16F50, symSize: 0x54 }
  - { offsetInCU: 0x59EB, offset: 0x6D08C, size: 0x8, addend: 0x0, symName: '__ZN4pyo35impl_4wrap62IntoPyObjectConverter$LT$core..result..Result$LT$T$C$E$GT$$GT$12map_into_ptr17h4cd31364a696c4d6E', symObjAddr: 0x224, symBinAddr: 0x16FA4, symSize: 0x5C }
  - { offsetInCU: 0x5A56, offset: 0x6D0F7, size: 0x8, addend: 0x0, symName: '__ZN4pyo35impl_4wrap62IntoPyObjectConverter$LT$core..result..Result$LT$T$C$E$GT$$GT$12map_into_ptr17h6dc5c768bd9bb0b2E', symObjAddr: 0x280, symBinAddr: 0x17000, symSize: 0x54 }
  - { offsetInCU: 0x5ADF, offset: 0x6D180, size: 0x8, addend: 0x0, symName: '__ZN4pyo35impl_4wrap62IntoPyObjectConverter$LT$core..result..Result$LT$T$C$E$GT$$GT$12map_into_ptr17h70c88165eac30d4fE', symObjAddr: 0x2D4, symBinAddr: 0x17054, symSize: 0x54 }
  - { offsetInCU: 0x5B4A, offset: 0x6D1EB, size: 0x8, addend: 0x0, symName: '__ZN4pyo35impl_4wrap62IntoPyObjectConverter$LT$core..result..Result$LT$T$C$E$GT$$GT$12map_into_ptr17h77668e7a9183623aE', symObjAddr: 0x328, symBinAddr: 0x170A8, symSize: 0x54 }
  - { offsetInCU: 0x5BB5, offset: 0x6D256, size: 0x8, addend: 0x0, symName: '__ZN4pyo35impl_4wrap62IntoPyObjectConverter$LT$core..result..Result$LT$T$C$E$GT$$GT$12map_into_ptr17ha779b4b7b4701ec6E', symObjAddr: 0x37C, symBinAddr: 0x170FC, symSize: 0x54 }
  - { offsetInCU: 0x5C20, offset: 0x6D2C1, size: 0x8, addend: 0x0, symName: '__ZN4pyo35impl_4wrap62IntoPyObjectConverter$LT$core..result..Result$LT$T$C$E$GT$$GT$12map_into_ptr17hbbd31d9b5f2a0b92E', symObjAddr: 0x3D0, symBinAddr: 0x17150, symSize: 0x5C }
  - { offsetInCU: 0x5C8B, offset: 0x6D32C, size: 0x8, addend: 0x0, symName: '__ZN4pyo35impl_4wrap62IntoPyObjectConverter$LT$core..result..Result$LT$T$C$E$GT$$GT$12map_into_ptr17hcf2c7eaa03f22db2E', symObjAddr: 0x42C, symBinAddr: 0x171AC, symSize: 0x54 }
  - { offsetInCU: 0x5CF6, offset: 0x6D397, size: 0x8, addend: 0x0, symName: '__ZN4pyo35impl_4wrap62IntoPyObjectConverter$LT$core..result..Result$LT$T$C$E$GT$$GT$12map_into_ptr17hf6afa10a2c60f367E', symObjAddr: 0x480, symBinAddr: 0x17200, symSize: 0x54 }
  - { offsetInCU: 0x5D54, offset: 0x6D3F5, size: 0x8, addend: 0x0, symName: '__ZN4pyo35impl_4wrap62IntoPyObjectConverter$LT$core..result..Result$LT$T$C$E$GT$$GT$4wrap17h1c8e99daf9e6921aE', symObjAddr: 0x744, symBinAddr: 0x174C4, symSize: 0x34 }
  - { offsetInCU: 0x5D97, offset: 0x6D438, size: 0x8, addend: 0x0, symName: '__ZN4pyo35impl_4wrap62IntoPyObjectConverter$LT$core..result..Result$LT$T$C$E$GT$$GT$4wrap17h4bf2ad09bea68b2fE', symObjAddr: 0x778, symBinAddr: 0x174F8, symSize: 0x34 }
  - { offsetInCU: 0x5DDA, offset: 0x6D47B, size: 0x8, addend: 0x0, symName: '__ZN4pyo35impl_4wrap62IntoPyObjectConverter$LT$core..result..Result$LT$T$C$E$GT$$GT$4wrap17h9096ae141f7a094aE', symObjAddr: 0x7AC, symBinAddr: 0x1752C, symSize: 0x34 }
  - { offsetInCU: 0x5E1D, offset: 0x6D4BE, size: 0x8, addend: 0x0, symName: '__ZN4pyo35impl_4wrap62IntoPyObjectConverter$LT$core..result..Result$LT$T$C$E$GT$$GT$4wrap17hc316baaed2facfdaE', symObjAddr: 0x7E0, symBinAddr: 0x17560, symSize: 0x34 }
  - { offsetInCU: 0x5E60, offset: 0x6D501, size: 0x8, addend: 0x0, symName: '__ZN4pyo35impl_4wrap62IntoPyObjectConverter$LT$core..result..Result$LT$T$C$E$GT$$GT$4wrap17he753e7996ad034deE', symObjAddr: 0x814, symBinAddr: 0x17594, symSize: 0x34 }
  - { offsetInCU: 0x1E, offset: 0x6D87B, size: 0x8, addend: 0x0, symName: '__ZN103_$LT$pyo3..instance..Bound$LT$pyo3..types..any..PyAny$GT$$u20$as$u20$pyo3..types..any..PyAnyMethods$GT$7is_none17hcce5d17683d06e03E', symObjAddr: 0x0, symBinAddr: 0x17A3C, symSize: 0x4C }
  - { offsetInCU: 0x1CBE, offset: 0x6F51B, size: 0x8, addend: 0x0, symName: '__ZN103_$LT$pyo3..instance..Bound$LT$pyo3..types..any..PyAny$GT$$u20$as$u20$pyo3..types..any..PyAnyMethods$GT$7is_none17hcce5d17683d06e03E', symObjAddr: 0x0, symBinAddr: 0x17A3C, symSize: 0x4C }
  - { offsetInCU: 0x1D33, offset: 0x6F590, size: 0x8, addend: 0x0, symName: '__ZN119_$LT$pyo3..instance..Bound$LT$pyo3..types..typeobject..PyType$GT$$u20$as$u20$pyo3..types..typeobject..PyTypeMethods$GT$11as_type_ptr17hb97bfe59c16e1c44E', symObjAddr: 0x4C, symBinAddr: 0x17A88, symSize: 0x24 }
  - { offsetInCU: 0x1D80, offset: 0x6F5DD, size: 0x8, addend: 0x0, symName: '__ZN123_$LT$pyo3..instance..Bound$LT$pyo3..types..sequence..PySequence$GT$$u20$as$u20$pyo3..types..sequence..PySequenceMethods$GT$3len17h488d9da1330edf4fE', symObjAddr: 0x70, symBinAddr: 0x17AAC, symSize: 0xD4 }
  - { offsetInCU: 0x1E0A, offset: 0x6F667, size: 0x8, addend: 0x0, symName: '__ZN4pyo35types8iterator131_$LT$impl$u20$core..iter..traits..iterator..Iterator$u20$for$u20$pyo3..instance..Bound$LT$pyo3..types..iterator..PyIterator$GT$$GT$4next17hd0eb67548b1beaacE', symObjAddr: 0x170, symBinAddr: 0x17BAC, symSize: 0x30 }
  - { offsetInCU: 0x222B, offset: 0x6FA88, size: 0x8, addend: 0x0, symName: '__ZN129_$LT$pyo3..instance..Bound$LT$numpy..untyped_array..PyUntypedArray$GT$$u20$as$u20$numpy..untyped_array..PyUntypedArrayMethods$GT$12as_array_ptr17hd03b4426078daaa4E', symObjAddr: 0x144, symBinAddr: 0x17B80, symSize: 0x2C }
  - { offsetInCU: 0x23D9, offset: 0x6FC36, size: 0x8, addend: 0x0, symName: '__ZN4pyo38instance36Bound$LT$pyo3..types..any..PyAny$GT$14from_owned_ptr17hdfdbfc9cd35888bdE', symObjAddr: 0x1A0, symBinAddr: 0x17BDC, symSize: 0x2C }
  - { offsetInCU: 0x2421, offset: 0x6FC7E, size: 0x8, addend: 0x0, symName: '__ZN4pyo38instance39Borrowed$LT$pyo3..types..any..PyAny$GT$15from_ptr_or_opt17h14337b3f60a126c6E', symObjAddr: 0x1CC, symBinAddr: 0x17C08, symSize: 0x2C }
  - { offsetInCU: 0x245F, offset: 0x6FCBC, size: 0x8, addend: 0x0, symName: '__ZN4pyo38instance39Borrowed$LT$pyo3..types..any..PyAny$GT$8from_ptr17h9b34e34c8baa486cE', symObjAddr: 0x1F8, symBinAddr: 0x17C34, symSize: 0x34 }
  - { offsetInCU: 0x1E, offset: 0x6FF79, size: 0x8, addend: 0x0, symName: '__ZN233_$LT$$LT$_native..py_config..PyProcessConfig$u20$as$u20$pyo3..impl_..pyclass..PyClassImpl$GT$..items_iter..INTRINSIC_ITEMS..Offset$u20$as$u20$pyo3..impl_..pyclass..OffsetCalculator$LT$_native..py_config..PyProcessConfig$C$f64$GT$$GT$6offset17h4ab2b23b1003ead5E', symObjAddr: 0x0, symBinAddr: 0x17C68, symSize: 0x40 }
  - { offsetInCU: 0x4D, offset: 0x6FFA8, size: 0x8, addend: 0x0, symName: '__ZN7_native9py_config184_$LT$impl$u20$pyo3..impl_..pyclass..PyMethods$LT$_native..py_config..PyGridConfig$GT$$u20$for$u20$pyo3..impl_..pyclass..PyClassImplCollector$LT$_native..py_config..PyGridConfig$GT$$GT$10py_methods5ITEMS17h4040201ef2f9cb64E', symObjAddr: 0x8850, symBinAddr: 0x749C58, symSize: 0x0 }
  - { offsetInCU: 0x5F, offset: 0x6FFBA, size: 0x8, addend: 0x0, symName: '__ZN7_native9py_config184_$LT$impl$u20$pyo3..impl_..pyclass..PyMethods$LT$_native..py_config..PyGridConfig$GT$$u20$for$u20$pyo3..impl_..pyclass..PyClassImplCollector$LT$_native..py_config..PyGridConfig$GT$$GT$10py_methods5ITEMS10trampoline17h1ea019c67759ba13E', symObjAddr: 0x6348, symBinAddr: 0x1DFB0, symSize: 0x4C }
  - { offsetInCU: 0xAB, offset: 0x70006, size: 0x8, addend: 0x0, symName: '__ZN7_native9py_config184_$LT$impl$u20$pyo3..impl_..pyclass..PyMethods$LT$_native..py_config..PyGridConfig$GT$$u20$for$u20$pyo3..impl_..pyclass..PyClassImplCollector$LT$_native..py_config..PyGridConfig$GT$$GT$10py_methods5ITEMS10trampoline17h782c6e18c3170ea3E', symObjAddr: 0x6394, symBinAddr: 0x1DFFC, symSize: 0x44 }
  - { offsetInCU: 0xE8, offset: 0x70043, size: 0x8, addend: 0x0, symName: '__ZN7_native9py_config184_$LT$impl$u20$pyo3..impl_..pyclass..PyMethods$LT$_native..py_config..PyGridConfig$GT$$u20$for$u20$pyo3..impl_..pyclass..PyClassImplCollector$LT$_native..py_config..PyGridConfig$GT$$GT$10py_methods5ITEMS10trampoline17hd3ce52cdc995b982E', symObjAddr: 0x63D8, symBinAddr: 0x1E040, symSize: 0x3C }
  - { offsetInCU: 0x130, offset: 0x7008B, size: 0x8, addend: 0x0, symName: '__ZN7_native9py_config184_$LT$impl$u20$pyo3..impl_..pyclass..PyMethods$LT$_native..py_config..PyMaskConfig$GT$$u20$for$u20$pyo3..impl_..pyclass..PyClassImplCollector$LT$_native..py_config..PyMaskConfig$GT$$GT$10py_methods5ITEMS17h92bcbc5078aab2d8E', symObjAddr: 0x8900, symBinAddr: 0x749D08, symSize: 0x0 }
  - { offsetInCU: 0x142, offset: 0x7009D, size: 0x8, addend: 0x0, symName: '__ZN7_native9py_config184_$LT$impl$u20$pyo3..impl_..pyclass..PyMethods$LT$_native..py_config..PyMaskConfig$GT$$u20$for$u20$pyo3..impl_..pyclass..PyClassImplCollector$LT$_native..py_config..PyMaskConfig$GT$$GT$10py_methods5ITEMS10trampoline17h9f0d681600c0e72cE', symObjAddr: 0x6414, symBinAddr: 0x1E07C, symSize: 0x50 }
  - { offsetInCU: 0x198, offset: 0x700F3, size: 0x8, addend: 0x0, symName: '__ZN7_native9py_config184_$LT$impl$u20$pyo3..impl_..pyclass..PyMethods$LT$_native..py_config..PyMaskConfig$GT$$u20$for$u20$pyo3..impl_..pyclass..PyClassImplCollector$LT$_native..py_config..PyMaskConfig$GT$$GT$10py_methods5ITEMS10trampoline17ha319c0b4d878a422E', symObjAddr: 0x6464, symBinAddr: 0x1E0CC, symSize: 0x50 }
  - { offsetInCU: 0x1EE, offset: 0x70149, size: 0x8, addend: 0x0, symName: '__ZN7_native9py_config184_$LT$impl$u20$pyo3..impl_..pyclass..PyMethods$LT$_native..py_config..PyMaskConfig$GT$$u20$for$u20$pyo3..impl_..pyclass..PyClassImplCollector$LT$_native..py_config..PyMaskConfig$GT$$GT$10py_methods5ITEMS10trampoline17hb156dd6563a69180E', symObjAddr: 0x64B4, symBinAddr: 0x1E11C, symSize: 0x3C }
  - { offsetInCU: 0x234, offset: 0x7018F, size: 0x8, addend: 0x0, symName: '__ZN7_native9py_config188_$LT$impl$u20$pyo3..impl_..pyclass..PyMethods$LT$_native..py_config..PyOpticsConfig$GT$$u20$for$u20$pyo3..impl_..pyclass..PyClassImplCollector$LT$_native..py_config..PyOpticsConfig$GT$$GT$10py_methods5ITEMS17hc160827b6fdc8a69E', symObjAddr: 0x8A00, symBinAddr: 0x749E08, symSize: 0x0 }
  - { offsetInCU: 0x246, offset: 0x701A1, size: 0x8, addend: 0x0, symName: '__ZN7_native9py_config188_$LT$impl$u20$pyo3..impl_..pyclass..PyMethods$LT$_native..py_config..PyOpticsConfig$GT$$u20$for$u20$pyo3..impl_..pyclass..PyClassImplCollector$LT$_native..py_config..PyOpticsConfig$GT$$GT$10py_methods5ITEMS10trampoline17h3344b176486d6f07E', symObjAddr: 0x64F0, symBinAddr: 0x1E158, symSize: 0x50 }
  - { offsetInCU: 0x29C, offset: 0x701F7, size: 0x8, addend: 0x0, symName: '__ZN7_native9py_config188_$LT$impl$u20$pyo3..impl_..pyclass..PyMethods$LT$_native..py_config..PyOpticsConfig$GT$$u20$for$u20$pyo3..impl_..pyclass..PyClassImplCollector$LT$_native..py_config..PyOpticsConfig$GT$$GT$10py_methods5ITEMS10trampoline17h4e88eb23bb7f254eE', symObjAddr: 0x6540, symBinAddr: 0x1E1A8, symSize: 0x50 }
  - { offsetInCU: 0x2F2, offset: 0x7024D, size: 0x8, addend: 0x0, symName: '__ZN7_native9py_config188_$LT$impl$u20$pyo3..impl_..pyclass..PyMethods$LT$_native..py_config..PyOpticsConfig$GT$$u20$for$u20$pyo3..impl_..pyclass..PyClassImplCollector$LT$_native..py_config..PyOpticsConfig$GT$$GT$10py_methods5ITEMS10trampoline17h652f93be4cfbeb7eE', symObjAddr: 0x6590, symBinAddr: 0x1E1F8, symSize: 0x4C }
  - { offsetInCU: 0x33A, offset: 0x70295, size: 0x8, addend: 0x0, symName: '__ZN7_native9py_config188_$LT$impl$u20$pyo3..impl_..pyclass..PyMethods$LT$_native..py_config..PyOpticsConfig$GT$$u20$for$u20$pyo3..impl_..pyclass..PyClassImplCollector$LT$_native..py_config..PyOpticsConfig$GT$$GT$10py_methods5ITEMS10trampoline17hcc320899eb45ada4E', symObjAddr: 0x65DC, symBinAddr: 0x1E244, symSize: 0x3C }
  - { offsetInCU: 0x380, offset: 0x702DB, size: 0x8, addend: 0x0, symName: '__ZN7_native9py_config188_$LT$impl$u20$pyo3..impl_..pyclass..PyMethods$LT$_native..py_config..PyResistConfig$GT$$u20$for$u20$pyo3..impl_..pyclass..PyClassImplCollector$LT$_native..py_config..PyResistConfig$GT$$GT$10py_methods5ITEMS17he421d8da7aefe99dE', symObjAddr: 0x8A80, symBinAddr: 0x749E88, symSize: 0x0 }
  - { offsetInCU: 0x392, offset: 0x702ED, size: 0x8, addend: 0x0, symName: '__ZN7_native9py_config188_$LT$impl$u20$pyo3..impl_..pyclass..PyMethods$LT$_native..py_config..PyResistConfig$GT$$u20$for$u20$pyo3..impl_..pyclass..PyClassImplCollector$LT$_native..py_config..PyResistConfig$GT$$GT$10py_methods5ITEMS10trampoline17h3f9a278b5f546053E', symObjAddr: 0x6618, symBinAddr: 0x1E280, symSize: 0x3C }
  - { offsetInCU: 0x3BE, offset: 0x70319, size: 0x8, addend: 0x0, symName: '__ZN7_native9py_config188_$LT$impl$u20$pyo3..impl_..pyclass..PyMethods$LT$_native..py_config..PyResistConfig$GT$$u20$for$u20$pyo3..impl_..pyclass..PyClassImplCollector$LT$_native..py_config..PyResistConfig$GT$$GT$10py_methods5ITEMS10trampoline17hc2eae9be1c0415ccE', symObjAddr: 0x6654, symBinAddr: 0x1E2BC, symSize: 0x44 }
  - { offsetInCU: 0x3F8, offset: 0x70353, size: 0x8, addend: 0x0, symName: '__ZN7_native9py_config188_$LT$impl$u20$pyo3..impl_..pyclass..PyMethods$LT$_native..py_config..PyResistConfig$GT$$u20$for$u20$pyo3..impl_..pyclass..PyClassImplCollector$LT$_native..py_config..PyResistConfig$GT$$GT$10py_methods5ITEMS10trampoline17hf4e554b5166ec6e2E', symObjAddr: 0x6698, symBinAddr: 0x1E300, symSize: 0x4C }
  - { offsetInCU: 0x45A, offset: 0x703B5, size: 0x8, addend: 0x0, symName: '__ZN7_native9py_config188_$LT$impl$u20$pyo3..impl_..pyclass..PyMethods$LT$_native..py_config..PySourceConfig$GT$$u20$for$u20$pyo3..impl_..pyclass..PyClassImplCollector$LT$_native..py_config..PySourceConfig$GT$$GT$10py_methods5ITEMS17h3cfa9ec66b1e7c74E', symObjAddr: 0x8BC0, symBinAddr: 0x749FC8, symSize: 0x0 }
  - { offsetInCU: 0x46C, offset: 0x703C7, size: 0x8, addend: 0x0, symName: '__ZN7_native9py_config188_$LT$impl$u20$pyo3..impl_..pyclass..PyMethods$LT$_native..py_config..PySourceConfig$GT$$u20$for$u20$pyo3..impl_..pyclass..PyClassImplCollector$LT$_native..py_config..PySourceConfig$GT$$GT$10py_methods5ITEMS10trampoline17h40582d51fc9b8074E', symObjAddr: 0x66E4, symBinAddr: 0x1E34C, symSize: 0x3C }
  - { offsetInCU: 0x498, offset: 0x703F3, size: 0x8, addend: 0x0, symName: '__ZN7_native9py_config188_$LT$impl$u20$pyo3..impl_..pyclass..PyMethods$LT$_native..py_config..PySourceConfig$GT$$u20$for$u20$pyo3..impl_..pyclass..PyClassImplCollector$LT$_native..py_config..PySourceConfig$GT$$GT$10py_methods5ITEMS10trampoline17hd1aa9823ff25b448E', symObjAddr: 0x6720, symBinAddr: 0x1E388, symSize: 0x50 }
  - { offsetInCU: 0x4EE, offset: 0x70449, size: 0x8, addend: 0x0, symName: '__ZN7_native9py_config188_$LT$impl$u20$pyo3..impl_..pyclass..PyMethods$LT$_native..py_config..PySourceConfig$GT$$u20$for$u20$pyo3..impl_..pyclass..PyClassImplCollector$LT$_native..py_config..PySourceConfig$GT$$GT$10py_methods5ITEMS10trampoline17hf6834f822fad05a6E', symObjAddr: 0x6770, symBinAddr: 0x1E3D8, symSize: 0x50 }
  - { offsetInCU: 0x544, offset: 0x7049F, size: 0x8, addend: 0x0, symName: '__ZN7_native9py_config188_$LT$impl$u20$pyo3..impl_..pyclass..PyMethods$LT$_native..py_config..PySourceConfig$GT$$u20$for$u20$pyo3..impl_..pyclass..PyClassImplCollector$LT$_native..py_config..PySourceConfig$GT$$GT$10py_methods5ITEMS10trampoline17hfc57a35598895233E', symObjAddr: 0x67C0, symBinAddr: 0x1E428, symSize: 0x4C }
  - { offsetInCU: 0x5A7, offset: 0x70502, size: 0x8, addend: 0x0, symName: '__ZN7_native9py_config190_$LT$impl$u20$pyo3..impl_..pyclass..PyMethods$LT$_native..py_config..PyProcessConfig$GT$$u20$for$u20$pyo3..impl_..pyclass..PyClassImplCollector$LT$_native..py_config..PyProcessConfig$GT$$GT$10py_methods5ITEMS17h052aec453c27036dE', symObjAddr: 0x8C00, symBinAddr: 0x74A008, symSize: 0x0 }
  - { offsetInCU: 0x5B9, offset: 0x70514, size: 0x8, addend: 0x0, symName: '__ZN7_native9py_config190_$LT$impl$u20$pyo3..impl_..pyclass..PyMethods$LT$_native..py_config..PyProcessConfig$GT$$u20$for$u20$pyo3..impl_..pyclass..PyClassImplCollector$LT$_native..py_config..PyProcessConfig$GT$$GT$10py_methods5ITEMS10trampoline17h5f951f8c50f9204dE', symObjAddr: 0x680C, symBinAddr: 0x1E474, symSize: 0x4C }
  - { offsetInCU: 0x605, offset: 0x70560, size: 0x8, addend: 0x0, symName: '__ZN7_native9py_config190_$LT$impl$u20$pyo3..impl_..pyclass..PyMethods$LT$_native..py_config..PyProcessConfig$GT$$u20$for$u20$pyo3..impl_..pyclass..PyClassImplCollector$LT$_native..py_config..PyProcessConfig$GT$$GT$10py_methods5ITEMS10trampoline17haaae022c1e54a56dE', symObjAddr: 0x6858, symBinAddr: 0x1E4C0, symSize: 0x3C }
  - { offsetInCU: 0x64D, offset: 0x705A8, size: 0x8, addend: 0x0, symName: '__ZN7_native9py_config194_$LT$impl$u20$pyo3..impl_..pyclass..PyMethods$LT$_native..py_config..PyFilmStackConfig$GT$$u20$for$u20$pyo3..impl_..pyclass..PyClassImplCollector$LT$_native..py_config..PyFilmStackConfig$GT$$GT$10py_methods5ITEMS17h79872bb2913e2ad1E', symObjAddr: 0x8CC0, symBinAddr: 0x74A0C8, symSize: 0x0 }
  - { offsetInCU: 0x65F, offset: 0x705BA, size: 0x8, addend: 0x0, symName: '__ZN7_native9py_config194_$LT$impl$u20$pyo3..impl_..pyclass..PyMethods$LT$_native..py_config..PyFilmStackConfig$GT$$u20$for$u20$pyo3..impl_..pyclass..PyClassImplCollector$LT$_native..py_config..PyFilmStackConfig$GT$$GT$10py_methods5ITEMS10trampoline17h02773d9a5a2d6e55E', symObjAddr: 0x6894, symBinAddr: 0x1E4FC, symSize: 0x50 }
  - { offsetInCU: 0x6B5, offset: 0x70610, size: 0x8, addend: 0x0, symName: '__ZN7_native9py_config194_$LT$impl$u20$pyo3..impl_..pyclass..PyMethods$LT$_native..py_config..PyFilmStackConfig$GT$$u20$for$u20$pyo3..impl_..pyclass..PyClassImplCollector$LT$_native..py_config..PyFilmStackConfig$GT$$GT$10py_methods5ITEMS10trampoline17h45b01ca9fce3c12fE', symObjAddr: 0x68E4, symBinAddr: 0x1E54C, symSize: 0x4C }
  - { offsetInCU: 0x6FD, offset: 0x70658, size: 0x8, addend: 0x0, symName: '__ZN7_native9py_config194_$LT$impl$u20$pyo3..impl_..pyclass..PyMethods$LT$_native..py_config..PyFilmStackConfig$GT$$u20$for$u20$pyo3..impl_..pyclass..PyClassImplCollector$LT$_native..py_config..PyFilmStackConfig$GT$$GT$10py_methods5ITEMS10trampoline17h501195c82e1a2ce3E', symObjAddr: 0x6930, symBinAddr: 0x1E598, symSize: 0x50 }
  - { offsetInCU: 0x753, offset: 0x706AE, size: 0x8, addend: 0x0, symName: '__ZN7_native9py_config194_$LT$impl$u20$pyo3..impl_..pyclass..PyMethods$LT$_native..py_config..PyFilmStackConfig$GT$$u20$for$u20$pyo3..impl_..pyclass..PyClassImplCollector$LT$_native..py_config..PyFilmStackConfig$GT$$GT$10py_methods5ITEMS10trampoline17hd9eb400c89be7575E', symObjAddr: 0x6980, symBinAddr: 0x1E5E8, symSize: 0x3C }
  - { offsetInCU: 0x79A, offset: 0x706F5, size: 0x8, addend: 0x0, symName: '__ZN86_$LT$_native..py_config..PyGridConfig$u20$as$u20$pyo3..impl_..pyclass..PyClassImpl$GT$10items_iter15INTRINSIC_ITEMS17h6bbf4cee0a88b69cE', symObjAddr: 0x9020, symBinAddr: 0x6768F0, symSize: 0x0 }
  - { offsetInCU: 0x7BB, offset: 0x70716, size: 0x8, addend: 0x0, symName: '__ZN86_$LT$_native..py_config..PyGridConfig$u20$as$u20$pyo3..impl_..pyclass..PyClassImpl$GT$16lazy_type_object11TYPE_OBJECT17hfe8652908c11c87cE', symObjAddr: 0x9130, symBinAddr: 0x774658, symSize: 0x0 }
  - { offsetInCU: 0x7DC, offset: 0x70737, size: 0x8, addend: 0x0, symName: '__ZN86_$LT$_native..py_config..PyGridConfig$u20$as$u20$pyo3..impl_..pyclass..PyClassImpl$GT$3doc3DOC17h118a4b6e6c630b78E', symObjAddr: 0x9190, symBinAddr: 0x7746B8, symSize: 0x0 }
  - { offsetInCU: 0x7EA, offset: 0x70745, size: 0x8, addend: 0x0, symName: '__ZN86_$LT$_native..py_config..PyGridConfig$u20$as$u20$pyo3..impl_..pyclass..PyClassImpl$GT$10items_iter17h5c36ea82573d1ea0E', symObjAddr: 0x6B54, symBinAddr: 0x1E7BC, symSize: 0x38 }
  - { offsetInCU: 0x827, offset: 0x70782, size: 0x8, addend: 0x0, symName: '__ZN86_$LT$_native..py_config..PyGridConfig$u20$as$u20$pyo3..impl_..pyclass..PyClassImpl$GT$16lazy_type_object17hf66b9f7514bfd3e6E', symObjAddr: 0x6B8C, symBinAddr: 0x1E7F4, symSize: 0xC }
  - { offsetInCU: 0x845, offset: 0x707A0, size: 0x8, addend: 0x0, symName: '__ZN86_$LT$_native..py_config..PyGridConfig$u20$as$u20$pyo3..impl_..pyclass..PyClassImpl$GT$3doc17h9a6bb08861151056E', symObjAddr: 0x6B98, symBinAddr: 0x1E800, symSize: 0x3C }
  - { offsetInCU: 0x9B0, offset: 0x7090B, size: 0x8, addend: 0x0, symName: '__ZN86_$LT$_native..py_config..PyMaskConfig$u20$as$u20$pyo3..impl_..pyclass..PyClassImpl$GT$10items_iter15INTRINSIC_ITEMS17hd791273b19678225E', symObjAddr: 0x9040, symBinAddr: 0x676910, symSize: 0x0 }
  - { offsetInCU: 0x9D0, offset: 0x7092B, size: 0x8, addend: 0x0, symName: '__ZN86_$LT$_native..py_config..PyMaskConfig$u20$as$u20$pyo3..impl_..pyclass..PyClassImpl$GT$16lazy_type_object11TYPE_OBJECT17hb3967bc3df888796E', symObjAddr: 0x91B0, symBinAddr: 0x7746D8, symSize: 0x0 }
  - { offsetInCU: 0x9F0, offset: 0x7094B, size: 0x8, addend: 0x0, symName: '__ZN86_$LT$_native..py_config..PyMaskConfig$u20$as$u20$pyo3..impl_..pyclass..PyClassImpl$GT$3doc3DOC17h5217bce328431cebE', symObjAddr: 0x9210, symBinAddr: 0x774738, symSize: 0x0 }
  - { offsetInCU: 0x9FE, offset: 0x70959, size: 0x8, addend: 0x0, symName: '__ZN86_$LT$_native..py_config..PyMaskConfig$u20$as$u20$pyo3..impl_..pyclass..PyClassImpl$GT$10items_iter17h7142d3b647bbf5beE', symObjAddr: 0x6BD4, symBinAddr: 0x1E83C, symSize: 0x38 }
  - { offsetInCU: 0xA39, offset: 0x70994, size: 0x8, addend: 0x0, symName: '__ZN86_$LT$_native..py_config..PyMaskConfig$u20$as$u20$pyo3..impl_..pyclass..PyClassImpl$GT$16lazy_type_object17h538f99a76ef2e516E', symObjAddr: 0x6C0C, symBinAddr: 0x1E874, symSize: 0xC }
  - { offsetInCU: 0xA56, offset: 0x709B1, size: 0x8, addend: 0x0, symName: '__ZN86_$LT$_native..py_config..PyMaskConfig$u20$as$u20$pyo3..impl_..pyclass..PyClassImpl$GT$3doc17hfe4515c66bc25277E', symObjAddr: 0x6C18, symBinAddr: 0x1E880, symSize: 0x3C }
  - { offsetInCU: 0xB74, offset: 0x70ACF, size: 0x8, addend: 0x0, symName: '__ZN88_$LT$_native..py_config..PyOpticsConfig$u20$as$u20$pyo3..impl_..pyclass..PyClassImpl$GT$10items_iter15INTRINSIC_ITEMS17h425e8d130dd7fc54E', symObjAddr: 0x9060, symBinAddr: 0x676930, symSize: 0x0 }
  - { offsetInCU: 0xB94, offset: 0x70AEF, size: 0x8, addend: 0x0, symName: '__ZN88_$LT$_native..py_config..PyOpticsConfig$u20$as$u20$pyo3..impl_..pyclass..PyClassImpl$GT$16lazy_type_object11TYPE_OBJECT17h969abe0d3bcf390bE', symObjAddr: 0x9230, symBinAddr: 0x774758, symSize: 0x0 }
  - { offsetInCU: 0xBB4, offset: 0x70B0F, size: 0x8, addend: 0x0, symName: '__ZN88_$LT$_native..py_config..PyOpticsConfig$u20$as$u20$pyo3..impl_..pyclass..PyClassImpl$GT$3doc3DOC17h7693dafed276c037E', symObjAddr: 0x9290, symBinAddr: 0x7747B8, symSize: 0x0 }
  - { offsetInCU: 0xBC2, offset: 0x70B1D, size: 0x8, addend: 0x0, symName: '__ZN88_$LT$_native..py_config..PyOpticsConfig$u20$as$u20$pyo3..impl_..pyclass..PyClassImpl$GT$10items_iter17hcbe9d87f1e1fbc45E', symObjAddr: 0x6C78, symBinAddr: 0x1E8E0, symSize: 0x38 }
  - { offsetInCU: 0xBFD, offset: 0x70B58, size: 0x8, addend: 0x0, symName: '__ZN88_$LT$_native..py_config..PyOpticsConfig$u20$as$u20$pyo3..impl_..pyclass..PyClassImpl$GT$16lazy_type_object17hed6e65f4b0ce7551E', symObjAddr: 0x6CB0, symBinAddr: 0x1E918, symSize: 0xC }
  - { offsetInCU: 0xC1A, offset: 0x70B75, size: 0x8, addend: 0x0, symName: '__ZN88_$LT$_native..py_config..PyOpticsConfig$u20$as$u20$pyo3..impl_..pyclass..PyClassImpl$GT$3doc17hd045a9de5cb58773E', symObjAddr: 0x6CBC, symBinAddr: 0x1E924, symSize: 0x3C }
  - { offsetInCU: 0xDA6, offset: 0x70D01, size: 0x8, addend: 0x0, symName: '__ZN88_$LT$_native..py_config..PyResistConfig$u20$as$u20$pyo3..impl_..pyclass..PyClassImpl$GT$10items_iter15INTRINSIC_ITEMS17hc1f478fefe499d4dE', symObjAddr: 0x9080, symBinAddr: 0x676950, symSize: 0x0 }
  - { offsetInCU: 0xDC6, offset: 0x70D21, size: 0x8, addend: 0x0, symName: '__ZN88_$LT$_native..py_config..PyResistConfig$u20$as$u20$pyo3..impl_..pyclass..PyClassImpl$GT$16lazy_type_object11TYPE_OBJECT17h8945066bd9013bf6E', symObjAddr: 0x92B0, symBinAddr: 0x7747D8, symSize: 0x0 }
  - { offsetInCU: 0xDE6, offset: 0x70D41, size: 0x8, addend: 0x0, symName: '__ZN88_$LT$_native..py_config..PyResistConfig$u20$as$u20$pyo3..impl_..pyclass..PyClassImpl$GT$3doc3DOC17hfd00443de6036a87E', symObjAddr: 0x9310, symBinAddr: 0x774838, symSize: 0x0 }
  - { offsetInCU: 0xDF4, offset: 0x70D4F, size: 0x8, addend: 0x0, symName: '__ZN88_$LT$_native..py_config..PyResistConfig$u20$as$u20$pyo3..impl_..pyclass..PyClassImpl$GT$10items_iter17haaef190d16ebc1fcE', symObjAddr: 0x6CF8, symBinAddr: 0x1E960, symSize: 0x38 }
  - { offsetInCU: 0xE2F, offset: 0x70D8A, size: 0x8, addend: 0x0, symName: '__ZN88_$LT$_native..py_config..PyResistConfig$u20$as$u20$pyo3..impl_..pyclass..PyClassImpl$GT$16lazy_type_object17ha53dcf85e41beb1aE', symObjAddr: 0x6D30, symBinAddr: 0x1E998, symSize: 0xC }
  - { offsetInCU: 0xE4C, offset: 0x70DA7, size: 0x8, addend: 0x0, symName: '__ZN88_$LT$_native..py_config..PyResistConfig$u20$as$u20$pyo3..impl_..pyclass..PyClassImpl$GT$3doc17h844a648c613cafb2E', symObjAddr: 0x6D3C, symBinAddr: 0x1E9A4, symSize: 0x3C }
  - { offsetInCU: 0xF5A, offset: 0x70EB5, size: 0x8, addend: 0x0, symName: '__ZN88_$LT$_native..py_config..PySourceConfig$u20$as$u20$pyo3..impl_..pyclass..PyClassImpl$GT$10items_iter15INTRINSIC_ITEMS17h4bafcc01386b3da2E', symObjAddr: 0x90A0, symBinAddr: 0x676970, symSize: 0x0 }
  - { offsetInCU: 0xF7A, offset: 0x70ED5, size: 0x8, addend: 0x0, symName: '__ZN88_$LT$_native..py_config..PySourceConfig$u20$as$u20$pyo3..impl_..pyclass..PyClassImpl$GT$16lazy_type_object11TYPE_OBJECT17h19191659ce50cc2fE', symObjAddr: 0x9330, symBinAddr: 0x774858, symSize: 0x0 }
  - { offsetInCU: 0xF9A, offset: 0x70EF5, size: 0x8, addend: 0x0, symName: '__ZN88_$LT$_native..py_config..PySourceConfig$u20$as$u20$pyo3..impl_..pyclass..PyClassImpl$GT$3doc3DOC17hc94a2d5d26f15168E', symObjAddr: 0x9390, symBinAddr: 0x7748B8, symSize: 0x0 }
  - { offsetInCU: 0xFA8, offset: 0x70F03, size: 0x8, addend: 0x0, symName: '__ZN88_$LT$_native..py_config..PySourceConfig$u20$as$u20$pyo3..impl_..pyclass..PyClassImpl$GT$10items_iter17h8b1b73e85be97312E', symObjAddr: 0x6D78, symBinAddr: 0x1E9E0, symSize: 0x38 }
  - { offsetInCU: 0xFE3, offset: 0x70F3E, size: 0x8, addend: 0x0, symName: '__ZN88_$LT$_native..py_config..PySourceConfig$u20$as$u20$pyo3..impl_..pyclass..PyClassImpl$GT$16lazy_type_object17h0240c44822758034E', symObjAddr: 0x6DB0, symBinAddr: 0x1EA18, symSize: 0xC }
  - { offsetInCU: 0x1000, offset: 0x70F5B, size: 0x8, addend: 0x0, symName: '__ZN88_$LT$_native..py_config..PySourceConfig$u20$as$u20$pyo3..impl_..pyclass..PyClassImpl$GT$3doc17h1f8ec0e958b2f50bE', symObjAddr: 0x6DBC, symBinAddr: 0x1EA24, symSize: 0x3C }
  - { offsetInCU: 0x11B5, offset: 0x71110, size: 0x8, addend: 0x0, symName: '__ZN89_$LT$_native..py_config..PyProcessConfig$u20$as$u20$pyo3..impl_..pyclass..PyClassImpl$GT$10items_iter15INTRINSIC_ITEMS17h117e1eb64e83a8d7E', symObjAddr: 0x8E60, symBinAddr: 0x74A268, symSize: 0x0 }
  - { offsetInCU: 0x11CC, offset: 0x71127, size: 0x8, addend: 0x0, symName: '__ZN233_$LT$$LT$_native..py_config..PyProcessConfig$u20$as$u20$pyo3..impl_..pyclass..PyClassImpl$GT$..items_iter..INTRINSIC_ITEMS..Offset$u20$as$u20$pyo3..impl_..pyclass..OffsetCalculator$LT$_native..py_config..PyProcessConfig$C$f64$GT$$GT$6offset17h4ab2b23b1003ead5E', symObjAddr: 0x0, symBinAddr: 0x17C68, symSize: 0x40 }
  - { offsetInCU: 0x11EF, offset: 0x7114A, size: 0x8, addend: 0x0, symName: '__ZN233_$LT$$LT$_native..py_config..PyProcessConfig$u20$as$u20$pyo3..impl_..pyclass..PyClassImpl$GT$..items_iter..INTRINSIC_ITEMS..Offset$u20$as$u20$pyo3..impl_..pyclass..OffsetCalculator$LT$_native..py_config..PyProcessConfig$C$f64$GT$$GT$6offset17hd112c6a7e83ead86E', symObjAddr: 0x40, symBinAddr: 0x17CA8, symSize: 0x40 }
  - { offsetInCU: 0x1212, offset: 0x7116D, size: 0x8, addend: 0x0, symName: '__ZN233_$LT$$LT$_native..py_config..PyProcessConfig$u20$as$u20$pyo3..impl_..pyclass..PyClassImpl$GT$..items_iter..INTRINSIC_ITEMS..Offset$u20$as$u20$pyo3..impl_..pyclass..OffsetCalculator$LT$_native..py_config..PyProcessConfig$C$f64$GT$$GT$6offset17hf3161af22c30d0f8E', symObjAddr: 0x80, symBinAddr: 0x17CE8, symSize: 0x40 }
  - { offsetInCU: 0x1244, offset: 0x7119F, size: 0x8, addend: 0x0, symName: '__ZN89_$LT$_native..py_config..PyProcessConfig$u20$as$u20$pyo3..impl_..pyclass..PyClassImpl$GT$16lazy_type_object11TYPE_OBJECT17h5848b46b3d4084c1E', symObjAddr: 0x93B0, symBinAddr: 0x7748D8, symSize: 0x0 }
  - { offsetInCU: 0x1264, offset: 0x711BF, size: 0x8, addend: 0x0, symName: '__ZN89_$LT$_native..py_config..PyProcessConfig$u20$as$u20$pyo3..impl_..pyclass..PyClassImpl$GT$3doc3DOC17h5110cb40b41abe47E', symObjAddr: 0x9410, symBinAddr: 0x774938, symSize: 0x0 }
  - { offsetInCU: 0x1272, offset: 0x711CD, size: 0x8, addend: 0x0, symName: '__ZN89_$LT$_native..py_config..PyProcessConfig$u20$as$u20$pyo3..impl_..pyclass..PyClassImpl$GT$10items_iter17he4d87b89e8d8834aE', symObjAddr: 0x6DF8, symBinAddr: 0x1EA60, symSize: 0x38 }
  - { offsetInCU: 0x12AD, offset: 0x71208, size: 0x8, addend: 0x0, symName: '__ZN89_$LT$_native..py_config..PyProcessConfig$u20$as$u20$pyo3..impl_..pyclass..PyClassImpl$GT$16lazy_type_object17h13bdbd6060f89e79E', symObjAddr: 0x6E30, symBinAddr: 0x1EA98, symSize: 0xC }
  - { offsetInCU: 0x12CA, offset: 0x71225, size: 0x8, addend: 0x0, symName: '__ZN89_$LT$_native..py_config..PyProcessConfig$u20$as$u20$pyo3..impl_..pyclass..PyClassImpl$GT$3doc17h9936a83b02be4b0cE', symObjAddr: 0x6E3C, symBinAddr: 0x1EAA4, symSize: 0x3C }
  - { offsetInCU: 0x1419, offset: 0x71374, size: 0x8, addend: 0x0, symName: '__ZN91_$LT$_native..py_config..PyFilmStackConfig$u20$as$u20$pyo3..impl_..pyclass..PyClassImpl$GT$10items_iter15INTRINSIC_ITEMS17h367955dbde2e4b65E', symObjAddr: 0x90C0, symBinAddr: 0x676990, symSize: 0x0 }
  - { offsetInCU: 0x1439, offset: 0x71394, size: 0x8, addend: 0x0, symName: '__ZN91_$LT$_native..py_config..PyFilmStackConfig$u20$as$u20$pyo3..impl_..pyclass..PyClassImpl$GT$16lazy_type_object11TYPE_OBJECT17h1d042909991c1350E', symObjAddr: 0x9430, symBinAddr: 0x774958, symSize: 0x0 }
  - { offsetInCU: 0x1459, offset: 0x713B4, size: 0x8, addend: 0x0, symName: '__ZN91_$LT$_native..py_config..PyFilmStackConfig$u20$as$u20$pyo3..impl_..pyclass..PyClassImpl$GT$3doc3DOC17h476b4a55311e2267E', symObjAddr: 0x9490, symBinAddr: 0x7749B8, symSize: 0x0 }
  - { offsetInCU: 0x1467, offset: 0x713C2, size: 0x8, addend: 0x0, symName: '__ZN91_$LT$_native..py_config..PyFilmStackConfig$u20$as$u20$pyo3..impl_..pyclass..PyClassImpl$GT$10items_iter17hfbca28933ef07100E', symObjAddr: 0x6E78, symBinAddr: 0x1EAE0, symSize: 0x38 }
  - { offsetInCU: 0x14A2, offset: 0x713FD, size: 0x8, addend: 0x0, symName: '__ZN91_$LT$_native..py_config..PyFilmStackConfig$u20$as$u20$pyo3..impl_..pyclass..PyClassImpl$GT$16lazy_type_object17h96fe9d0265739790E', symObjAddr: 0x6EB0, symBinAddr: 0x1EB18, symSize: 0xC }
  - { offsetInCU: 0x14BF, offset: 0x7141A, size: 0x8, addend: 0x0, symName: '__ZN91_$LT$_native..py_config..PyFilmStackConfig$u20$as$u20$pyo3..impl_..pyclass..PyClassImpl$GT$3doc17hd0ae033a5109cf5fE', symObjAddr: 0x6EBC, symBinAddr: 0x1EB24, symSize: 0x3C }
  - { offsetInCU: 0x1605, offset: 0x71560, size: 0x8, addend: 0x0, symName: '__ZN71_$LT$_native..py_config..PyGridConfig$u20$as$u20$core..clone..Clone$GT$5clone17hcfbc866623c5272aE', symObjAddr: 0xC0, symBinAddr: 0x17D28, symSize: 0x24 }
  - { offsetInCU: 0x1639, offset: 0x71594, size: 0x8, addend: 0x0, symName: '__ZN71_$LT$_native..py_config..PyMaskConfig$u20$as$u20$core..clone..Clone$GT$5clone17hf07f88c864a55cdaE', symObjAddr: 0xE4, symBinAddr: 0x17D4C, symSize: 0x44 }
  - { offsetInCU: 0x166B, offset: 0x715C6, size: 0x8, addend: 0x0, symName: '__ZN73_$LT$_native..py_config..PyOpticsConfig$u20$as$u20$core..clone..Clone$GT$5clone17he23309dc14e265c0E', symObjAddr: 0x128, symBinAddr: 0x17D90, symSize: 0x44 }
  - { offsetInCU: 0x169D, offset: 0x715F8, size: 0x8, addend: 0x0, symName: '__ZN73_$LT$_native..py_config..PyResistConfig$u20$as$u20$core..clone..Clone$GT$5clone17hea102fe72b66d256E', symObjAddr: 0x16C, symBinAddr: 0x17DD4, symSize: 0x44 }
  - { offsetInCU: 0x16CF, offset: 0x7162A, size: 0x8, addend: 0x0, symName: '__ZN73_$LT$_native..py_config..PySourceConfig$u20$as$u20$core..clone..Clone$GT$5clone17h1f0cf2c100376300E', symObjAddr: 0x1B0, symBinAddr: 0x17E18, symSize: 0x44 }
  - { offsetInCU: 0x1701, offset: 0x7165C, size: 0x8, addend: 0x0, symName: '__ZN82_$LT$_native..py_config..PyGridConfig$u20$as$u20$pyo3..type_object..PyTypeInfo$GT$15type_object_raw17ha6d8b63a101eaf92E', symObjAddr: 0x69BC, symBinAddr: 0x1E624, symSize: 0x24 }
  - { offsetInCU: 0x1741, offset: 0x7169C, size: 0x8, addend: 0x0, symName: '__ZN82_$LT$_native..py_config..PyMaskConfig$u20$as$u20$pyo3..type_object..PyTypeInfo$GT$15type_object_raw17h85a70c71f4ff4bddE', symObjAddr: 0x69E0, symBinAddr: 0x1E648, symSize: 0x24 }
  - { offsetInCU: 0x177E, offset: 0x716D9, size: 0x8, addend: 0x0, symName: '__ZN83_$LT$_native..py_config..PyMaskConfig$u20$as$u20$pyo3..conversion..IntoPyObject$GT$13into_pyobject17hedb6938894b00394E', symObjAddr: 0x6A04, symBinAddr: 0x1E66C, symSize: 0x40 }
  - { offsetInCU: 0x17CA, offset: 0x71725, size: 0x8, addend: 0x0, symName: '__ZN84_$LT$_native..py_config..PyOpticsConfig$u20$as$u20$pyo3..type_object..PyTypeInfo$GT$15type_object_raw17hbc44c9ddad546625E', symObjAddr: 0x6A44, symBinAddr: 0x1E6AC, symSize: 0x24 }
  - { offsetInCU: 0x1807, offset: 0x71762, size: 0x8, addend: 0x0, symName: '__ZN84_$LT$_native..py_config..PyResistConfig$u20$as$u20$pyo3..type_object..PyTypeInfo$GT$15type_object_raw17ha7acf319609cd82aE', symObjAddr: 0x6A68, symBinAddr: 0x1E6D0, symSize: 0x24 }
  - { offsetInCU: 0x1844, offset: 0x7179F, size: 0x8, addend: 0x0, symName: '__ZN84_$LT$_native..py_config..PySourceConfig$u20$as$u20$pyo3..type_object..PyTypeInfo$GT$15type_object_raw17hfb483466560a57e7E', symObjAddr: 0x6A8C, symBinAddr: 0x1E6F4, symSize: 0x24 }
  - { offsetInCU: 0x1881, offset: 0x717DC, size: 0x8, addend: 0x0, symName: '__ZN85_$LT$_native..py_config..PyProcessConfig$u20$as$u20$pyo3..type_object..PyTypeInfo$GT$15type_object_raw17h90dfcecbc200274fE', symObjAddr: 0x6AB0, symBinAddr: 0x1E718, symSize: 0x24 }
  - { offsetInCU: 0x18BE, offset: 0x71819, size: 0x8, addend: 0x0, symName: '__ZN85_$LT$_native..py_config..PyResistConfig$u20$as$u20$pyo3..conversion..IntoPyObject$GT$13into_pyobject17he34422d3b33ef6baE', symObjAddr: 0x6AD4, symBinAddr: 0x1E73C, symSize: 0x40 }
  - { offsetInCU: 0x190A, offset: 0x71865, size: 0x8, addend: 0x0, symName: '__ZN85_$LT$_native..py_config..PySourceConfig$u20$as$u20$pyo3..conversion..IntoPyObject$GT$13into_pyobject17hfea097fae8f9e233E', symObjAddr: 0x6B14, symBinAddr: 0x1E77C, symSize: 0x40 }
  - { offsetInCU: 0x1956, offset: 0x718B1, size: 0x8, addend: 0x0, symName: '__ZN87_$LT$_native..py_config..PyFilmStackConfig$u20$as$u20$pyo3..type_object..PyTypeInfo$GT$15type_object_raw17h64d491201f612f21E', symObjAddr: 0x6C54, symBinAddr: 0x1E8BC, symSize: 0x24 }
  - { offsetInCU: 0x6212, offset: 0x7616D, size: 0x8, addend: 0x0, symName: __ZN7_native9py_config12PyGridConfig13field_size_nm17he03b74bc5f87b2ecE, symObjAddr: 0x1F4, symBinAddr: 0x17E5C, symSize: 0x24 }
  - { offsetInCU: 0x6235, offset: 0x76190, size: 0x8, addend: 0x0, symName: __ZN7_native9py_config12PyGridConfig20__pymethod___new____17hc423eef43ae24493E, symObjAddr: 0x218, symBinAddr: 0x17E80, symSize: 0x3C8 }
  - { offsetInCU: 0x63EB, offset: 0x76346, size: 0x8, addend: 0x0, symName: __ZN7_native9py_config12PyGridConfig21__pymethod___repr____17h89380abca340811aE, symObjAddr: 0x5E0, symBinAddr: 0x18248, symSize: 0x178 }
  - { offsetInCU: 0x64AD, offset: 0x76408, size: 0x8, addend: 0x0, symName: __ZN7_native9py_config12PyGridConfig21__pymethod_get_size__17h4b518c8996d0bc53E, symObjAddr: 0x758, symBinAddr: 0x183C0, symSize: 0x134 }
  - { offsetInCU: 0x6541, offset: 0x7649C, size: 0x8, addend: 0x0, symName: __ZN7_native9py_config12PyGridConfig25__pymethod_get_pixel_nm__17h9b884a145531e719E, symObjAddr: 0x88C, symBinAddr: 0x184F4, symSize: 0x134 }
  - { offsetInCU: 0x65D5, offset: 0x76530, size: 0x8, addend: 0x0, symName: __ZN7_native9py_config12PyGridConfig26__pymethod_field_size_nm__17hf89dace8f9c779fcE, symObjAddr: 0x9C0, symBinAddr: 0x18628, symSize: 0x214 }
  - { offsetInCU: 0x66CF, offset: 0x7662A, size: 0x8, addend: 0x0, symName: __ZN7_native9py_config12PyGridConfig3new17h6762142b50b787daE, symObjAddr: 0xBD4, symBinAddr: 0x1883C, symSize: 0xD0 }
  - { offsetInCU: 0x6741, offset: 0x7669C, size: 0x8, addend: 0x0, symName: __ZN7_native9py_config12PyGridConfig4size17h6efeebfd383f89efE, symObjAddr: 0xCA4, symBinAddr: 0x1890C, symSize: 0x18 }
  - { offsetInCU: 0x6764, offset: 0x766BF, size: 0x8, addend: 0x0, symName: __ZN7_native9py_config12PyGridConfig8__repr__17hf77703725db9d286E, symObjAddr: 0xCBC, symBinAddr: 0x18924, symSize: 0xD8 }
  - { offsetInCU: 0x67E2, offset: 0x7673D, size: 0x8, addend: 0x0, symName: __ZN7_native9py_config12PyGridConfig8pixel_nm17hb794313cc0782dc4E, symObjAddr: 0xD94, symBinAddr: 0x189FC, symSize: 0x18 }
  - { offsetInCU: 0x6805, offset: 0x76760, size: 0x8, addend: 0x0, symName: __ZN7_native9py_config12PyMaskConfig10line_space17h2c614ccf026789e0E, symObjAddr: 0xDAC, symBinAddr: 0x18A14, symSize: 0x44 }
  - { offsetInCU: 0x6835, offset: 0x76790, size: 0x8, addend: 0x0, symName: __ZN7_native9py_config12PyMaskConfig12contact_hole17h835490d3434a8555E, symObjAddr: 0xDF0, symBinAddr: 0x18A58, symSize: 0x48 }
  - { offsetInCU: 0x6873, offset: 0x767CE, size: 0x8, addend: 0x0, symName: __ZN7_native9py_config12PyMaskConfig21__pymethod___repr____17h097f8af6b7d7627bE, symObjAddr: 0xE38, symBinAddr: 0x18AA0, symSize: 0x178 }
  - { offsetInCU: 0x692D, offset: 0x76888, size: 0x8, addend: 0x0, symName: __ZN7_native9py_config12PyMaskConfig23__pymethod_line_space__17h2f5a2852810a8cd4E, symObjAddr: 0xFB0, symBinAddr: 0x18C18, symSize: 0x3FC }
  - { offsetInCU: 0x6AD0, offset: 0x76A2B, size: 0x8, addend: 0x0, symName: __ZN7_native9py_config12PyMaskConfig25__pymethod_contact_hole__17hc3a2f0086aba3128E, symObjAddr: 0x13AC, symBinAddr: 0x19014, symSize: 0x4A0 }
  - { offsetInCU: 0x6CB4, offset: 0x76C0F, size: 0x8, addend: 0x0, symName: __ZN7_native9py_config12PyMaskConfig8__repr__17h403717872108cab6E, symObjAddr: 0x184C, symBinAddr: 0x194B4, symSize: 0x78 }
  - { offsetInCU: 0x6D3A, offset: 0x76C95, size: 0x8, addend: 0x0, symName: __ZN7_native9py_config14PyOpticsConfig14add_aberration17h7cb53937eddd73eeE, symObjAddr: 0x18C4, symBinAddr: 0x1952C, symSize: 0x2C }
  - { offsetInCU: 0x6D85, offset: 0x76CE0, size: 0x8, addend: 0x0, symName: __ZN7_native9py_config14PyOpticsConfig18numerical_aperture17hc02ccdada5c5ae46E, symObjAddr: 0x18F0, symBinAddr: 0x19558, symSize: 0x18 }
  - { offsetInCU: 0x6DA7, offset: 0x76D02, size: 0x8, addend: 0x0, symName: __ZN7_native9py_config14PyOpticsConfig19rayleigh_resolution17h7e65cc20a9af4653E, symObjAddr: 0x1908, symBinAddr: 0x19570, symSize: 0x28 }
  - { offsetInCU: 0x6DD7, offset: 0x76D32, size: 0x8, addend: 0x0, symName: __ZN7_native9py_config14PyOpticsConfig20__pymethod___new____17hd84dea24066f9dceE, symObjAddr: 0x1930, symBinAddr: 0x19598, symSize: 0x48C }
  - { offsetInCU: 0x6FAF, offset: 0x76F0A, size: 0x8, addend: 0x0, symName: __ZN7_native9py_config14PyOpticsConfig21__pymethod___repr____17h91927e5d9438b943E, symObjAddr: 0x1DBC, symBinAddr: 0x19A24, symSize: 0x178 }
  - { offsetInCU: 0x7069, offset: 0x76FC4, size: 0x8, addend: 0x0, symName: __ZN7_native9py_config14PyOpticsConfig27__pymethod_add_aberration__17h5349c840cd1b96d6E, symObjAddr: 0x1F34, symBinAddr: 0x19B9C, symSize: 0x45C }
  - { offsetInCU: 0x7230, offset: 0x7718B, size: 0x8, addend: 0x0, symName: __ZN7_native9py_config14PyOpticsConfig32__pymethod_rayleigh_resolution__17h53eee2bbd54eeb04E, symObjAddr: 0x2390, symBinAddr: 0x19FF8, symSize: 0x378 }
  - { offsetInCU: 0x73CB, offset: 0x77326, size: 0x8, addend: 0x0, symName: __ZN7_native9py_config14PyOpticsConfig35__pymethod_get_numerical_aperture__17h02d708e31fc1eae2E, symObjAddr: 0x2708, symBinAddr: 0x1A370, symSize: 0x134 }
  - { offsetInCU: 0x7459, offset: 0x773B4, size: 0x8, addend: 0x0, symName: __ZN7_native9py_config14PyOpticsConfig3new17hed2d058313e57461E, symObjAddr: 0x283C, symBinAddr: 0x1A4A4, symSize: 0x90 }
  - { offsetInCU: 0x7497, offset: 0x773F2, size: 0x8, addend: 0x0, symName: __ZN7_native9py_config14PyOpticsConfig8__repr__17ha2b63d1f95f38e1dE, symObjAddr: 0x28CC, symBinAddr: 0x1A534, symSize: 0x90 }
  - { offsetInCU: 0x7510, offset: 0x7746B, size: 0x8, addend: 0x0, symName: __ZN7_native9py_config14PyResistConfig17vuv_fluoropolymer17h3520ed55336b88baE, symObjAddr: 0x295C, symBinAddr: 0x1A5C4, symSize: 0x3C }
  - { offsetInCU: 0x7523, offset: 0x7747E, size: 0x8, addend: 0x0, symName: __ZN7_native9py_config14PyResistConfig20__pymethod___new____17hb238aa899cca4eefE, symObjAddr: 0x2998, symBinAddr: 0x1A600, symSize: 0x68C }
  - { offsetInCU: 0x7797, offset: 0x776F2, size: 0x8, addend: 0x0, symName: __ZN7_native9py_config14PyResistConfig21__pymethod___repr____17h2e02f9f97cc37f16E, symObjAddr: 0x3024, symBinAddr: 0x1AC8C, symSize: 0x178 }
  - { offsetInCU: 0x7851, offset: 0x777AC, size: 0x8, addend: 0x0, symName: __ZN7_native9py_config14PyResistConfig30__pymethod_vuv_fluoropolymer__17h45967078a5367920E, symObjAddr: 0x319C, symBinAddr: 0x1AE04, symSize: 0x140 }
  - { offsetInCU: 0x790D, offset: 0x77868, size: 0x8, addend: 0x0, symName: __ZN7_native9py_config14PyResistConfig3new17he76d54dd8c122d71E, symObjAddr: 0x32DC, symBinAddr: 0x1AF44, symSize: 0x1CC }
  - { offsetInCU: 0x79FA, offset: 0x77955, size: 0x8, addend: 0x0, symName: __ZN7_native9py_config14PyResistConfig8__repr__17h5cc71aa33e73ebd4E, symObjAddr: 0x34A8, symBinAddr: 0x1B110, symSize: 0xC8 }
  - { offsetInCU: 0x7A81, offset: 0x779DC, size: 0x8, addend: 0x0, symName: __ZN7_native9py_config14PySourceConfig12bandwidth_pm17hb8fdd6d2009115c9E, symObjAddr: 0x3570, symBinAddr: 0x1B1D8, symSize: 0x18 }
  - { offsetInCU: 0x7AA3, offset: 0x779FE, size: 0x8, addend: 0x0, symName: __ZN7_native9py_config14PySourceConfig13wavelength_nm17he593a018718e0095E, symObjAddr: 0x3588, symBinAddr: 0x1B1F0, symSize: 0x18 }
  - { offsetInCU: 0x7AC5, offset: 0x77A20, size: 0x8, addend: 0x0, symName: __ZN7_native9py_config14PySourceConfig20__pymethod___new____17hfecf9e44415dc678E, symObjAddr: 0x35A0, symBinAddr: 0x1B208, symSize: 0x534 }
  - { offsetInCU: 0x7CD1, offset: 0x77C2C, size: 0x8, addend: 0x0, symName: __ZN7_native9py_config14PySourceConfig21__pymethod___repr____17h7657dd83ccefbfb6E, symObjAddr: 0x3AD4, symBinAddr: 0x1B73C, symSize: 0x178 }
  - { offsetInCU: 0x7D8B, offset: 0x77CE6, size: 0x8, addend: 0x0, symName: __ZN7_native9py_config14PySourceConfig21__pymethod_f2_laser__17h4754c681f352b0f9E, symObjAddr: 0x3C4C, symBinAddr: 0x1B8B4, symSize: 0x310 }
  - { offsetInCU: 0x7EFA, offset: 0x77E55, size: 0x8, addend: 0x0, symName: __ZN7_native9py_config14PySourceConfig22__pymethod_ar2_laser__17h086118b04574fd3bE, symObjAddr: 0x3F5C, symBinAddr: 0x1BBC4, symSize: 0x310 }
  - { offsetInCU: 0x8069, offset: 0x77FC4, size: 0x8, addend: 0x0, symName: __ZN7_native9py_config14PySourceConfig29__pymethod_get_bandwidth_pm__17hdcc5cfd4e2bf0f57E, symObjAddr: 0x426C, symBinAddr: 0x1BED4, symSize: 0x134 }
  - { offsetInCU: 0x80F7, offset: 0x78052, size: 0x8, addend: 0x0, symName: __ZN7_native9py_config14PySourceConfig30__pymethod_get_wavelength_nm__17h32487e72e486dfd6E, symObjAddr: 0x43A0, symBinAddr: 0x1C008, symSize: 0x134 }
  - { offsetInCU: 0x8185, offset: 0x780E0, size: 0x8, addend: 0x0, symName: __ZN7_native9py_config14PySourceConfig3new17h4dc5e96bbf40f429E, symObjAddr: 0x44D4, symBinAddr: 0x1C13C, symSize: 0xA8 }
  - { offsetInCU: 0x81D1, offset: 0x7812C, size: 0x8, addend: 0x0, symName: __ZN7_native9py_config14PySourceConfig8__repr__17h812579eaa4156768E, symObjAddr: 0x457C, symBinAddr: 0x1C1E4, symSize: 0x8C }
  - { offsetInCU: 0x824A, offset: 0x781A5, size: 0x8, addend: 0x0, symName: __ZN7_native9py_config14PySourceConfig8f2_laser17hdc71e4425ef2dfa1E, symObjAddr: 0x4608, symBinAddr: 0x1C270, symSize: 0x40 }
  - { offsetInCU: 0x826C, offset: 0x781C7, size: 0x8, addend: 0x0, symName: __ZN7_native9py_config14PySourceConfig9ar2_laser17h077c0b82a29c0a98E, symObjAddr: 0x4648, symBinAddr: 0x1C2B0, symSize: 0x40 }
  - { offsetInCU: 0x828E, offset: 0x781E9, size: 0x8, addend: 0x0, symName: __ZN7_native9py_config15PyProcessConfig20__pymethod___new____17he97962c4203373c1E, symObjAddr: 0x4688, symBinAddr: 0x1C2F0, symSize: 0x428 }
  - { offsetInCU: 0x847A, offset: 0x783D5, size: 0x8, addend: 0x0, symName: __ZN7_native9py_config15PyProcessConfig21__pymethod___repr____17h4a3c31ef99457515E, symObjAddr: 0x4AB0, symBinAddr: 0x1C718, symSize: 0x178 }
  - { offsetInCU: 0x853C, offset: 0x78497, size: 0x8, addend: 0x0, symName: __ZN7_native9py_config15PyProcessConfig25__pymethod_set_focus_nm__17h8017862adb034c0aE, symObjAddr: 0x4C28, symBinAddr: 0x1C890, symSize: 0x250 }
  - { offsetInCU: 0x8649, offset: 0x785A4, size: 0x8, addend: 0x0, symName: __ZN7_native9py_config15PyProcessConfig28__pymethod_set_dose_mj_cm2__17h7c775ed9427f91c5E, symObjAddr: 0x4E78, symBinAddr: 0x1CAE0, symSize: 0x250 }
  - { offsetInCU: 0x8756, offset: 0x786B1, size: 0x8, addend: 0x0, symName: __ZN7_native9py_config15PyProcessConfig35__pymethod_set_development_time_s__17h8c73b3007a44c71eE, symObjAddr: 0x50C8, symBinAddr: 0x1CD30, symSize: 0x250 }
  - { offsetInCU: 0x8863, offset: 0x787BE, size: 0x8, addend: 0x0, symName: __ZN7_native9py_config15PyProcessConfig3new17h5679da72afe23231E, symObjAddr: 0x5318, symBinAddr: 0x1CF80, symSize: 0x24 }
  - { offsetInCU: 0x88B1, offset: 0x7880C, size: 0x8, addend: 0x0, symName: __ZN7_native9py_config15PyProcessConfig8__repr__17h6835bdfa7112839eE, symObjAddr: 0x533C, symBinAddr: 0x1CFA4, symSize: 0x84 }
  - { offsetInCU: 0x893B, offset: 0x78896, size: 0x8, addend: 0x0, symName: __ZN7_native9py_config17PyFilmStackConfig13set_substrate17hd90dead894430729E, symObjAddr: 0x53C0, symBinAddr: 0x1D028, symSize: 0x38 }
  - { offsetInCU: 0x8979, offset: 0x788D4, size: 0x8, addend: 0x0, symName: __ZN7_native9py_config17PyFilmStackConfig20__pymethod___new____17hccd312369e799483E, symObjAddr: 0x53F8, symBinAddr: 0x1D060, symSize: 0x200 }
  - { offsetInCU: 0x8AB5, offset: 0x78A10, size: 0x8, addend: 0x0, symName: __ZN7_native9py_config17PyFilmStackConfig21__pymethod___repr____17ha33f824c91b381cfE, symObjAddr: 0x55F8, symBinAddr: 0x1D260, symSize: 0x178 }
  - { offsetInCU: 0x8B6F, offset: 0x78ACA, size: 0x8, addend: 0x0, symName: __ZN7_native9py_config17PyFilmStackConfig22__pymethod_add_layer__17h287e3a85713a05fdE, symObjAddr: 0x5770, symBinAddr: 0x1D3D8, symSize: 0x5FC }
  - { offsetInCU: 0x8D8E, offset: 0x78CE9, size: 0x8, addend: 0x0, symName: __ZN7_native9py_config17PyFilmStackConfig26__pymethod_set_substrate__17hea5daff8ee26a8d0E, symObjAddr: 0x5D6C, symBinAddr: 0x1D9D4, symSize: 0x45C }
  - { offsetInCU: 0x8F55, offset: 0x78EB0, size: 0x8, addend: 0x0, symName: __ZN7_native9py_config17PyFilmStackConfig3new17hd9be6351d6b1d3e3E, symObjAddr: 0x61C8, symBinAddr: 0x1DE30, symSize: 0x3C }
  - { offsetInCU: 0x8F75, offset: 0x78ED0, size: 0x8, addend: 0x0, symName: __ZN7_native9py_config17PyFilmStackConfig8__repr__17h20af0e0ac9204718E, symObjAddr: 0x6204, symBinAddr: 0x1DE6C, symSize: 0x78 }
  - { offsetInCU: 0x8FEE, offset: 0x78F49, size: 0x8, addend: 0x0, symName: __ZN7_native9py_config17PyFilmStackConfig9add_layer17h281ee425703d493fE, symObjAddr: 0x627C, symBinAddr: 0x1DEE4, symSize: 0xCC }
  - { offsetInCU: 0x1E, offset: 0x794B7, size: 0x8, addend: 0x0, symName: __ZN7_native10py_results19PyAerialImageResult11from_grid2d17h0aa7fa896717abbaE, symObjAddr: 0x0, symBinAddr: 0x1EB60, symSize: 0x94 }
  - { offsetInCU: 0x4C, offset: 0x794E5, size: 0x8, addend: 0x0, symName: '__ZN7_native10py_results200_$LT$impl$u20$pyo3..impl_..pyclass..PyMethods$LT$_native..py_results..PyAerialImageResult$GT$$u20$for$u20$pyo3..impl_..pyclass..PyClassImplCollector$LT$_native..py_results..PyAerialImageResult$GT$$GT$10py_methods5ITEMS17h9eeb350ce1c90934E', symObjAddr: 0x2828, symBinAddr: 0x74A538, symSize: 0x0 }
  - { offsetInCU: 0x5E, offset: 0x794F7, size: 0x8, addend: 0x0, symName: '__ZN7_native10py_results200_$LT$impl$u20$pyo3..impl_..pyclass..PyMethods$LT$_native..py_results..PyAerialImageResult$GT$$u20$for$u20$pyo3..impl_..pyclass..PyClassImplCollector$LT$_native..py_results..PyAerialImageResult$GT$$GT$10py_methods5ITEMS10trampoline17h2f6eca8bac6eb1ecE', symObjAddr: 0x1610, symBinAddr: 0x20170, symSize: 0x50 }
  - { offsetInCU: 0xB4, offset: 0x7954D, size: 0x8, addend: 0x0, symName: '__ZN7_native10py_results200_$LT$impl$u20$pyo3..impl_..pyclass..PyMethods$LT$_native..py_results..PyAerialImageResult$GT$$u20$for$u20$pyo3..impl_..pyclass..PyClassImplCollector$LT$_native..py_results..PyAerialImageResult$GT$$GT$10py_methods5ITEMS10trampoline17h8fd8e5a9f9ed3283E', symObjAddr: 0x1660, symBinAddr: 0x201C0, symSize: 0x3C }
  - { offsetInCU: 0xE0, offset: 0x79579, size: 0x8, addend: 0x0, symName: '__ZN7_native10py_results200_$LT$impl$u20$pyo3..impl_..pyclass..PyMethods$LT$_native..py_results..PyAerialImageResult$GT$$u20$for$u20$pyo3..impl_..pyclass..PyClassImplCollector$LT$_native..py_results..PyAerialImageResult$GT$$GT$10py_methods5ITEMS10trampoline17ha73afa0152b46535E', symObjAddr: 0x169C, symBinAddr: 0x201FC, symSize: 0x50 }
  - { offsetInCU: 0x136, offset: 0x795CF, size: 0x8, addend: 0x0, symName: '__ZN7_native10py_results200_$LT$impl$u20$pyo3..impl_..pyclass..PyMethods$LT$_native..py_results..PyAerialImageResult$GT$$u20$for$u20$pyo3..impl_..pyclass..PyClassImplCollector$LT$_native..py_results..PyAerialImageResult$GT$$GT$10py_methods5ITEMS10trampoline17hd86710c17375cf88E', symObjAddr: 0x16EC, symBinAddr: 0x2024C, symSize: 0x44 }
  - { offsetInCU: 0x18A, offset: 0x79623, size: 0x8, addend: 0x0, symName: '__ZN7_native10py_results204_$LT$impl$u20$pyo3..impl_..pyclass..PyMethods$LT$_native..py_results..PyResistProfileResult$GT$$u20$for$u20$pyo3..impl_..pyclass..PyClassImplCollector$LT$_native..py_results..PyResistProfileResult$GT$$GT$10py_methods5ITEMS17hecc24403af72d274E', symObjAddr: 0x2918, symBinAddr: 0x74A628, symSize: 0x0 }
  - { offsetInCU: 0x19C, offset: 0x79635, size: 0x8, addend: 0x0, symName: '__ZN7_native10py_results204_$LT$impl$u20$pyo3..impl_..pyclass..PyMethods$LT$_native..py_results..PyResistProfileResult$GT$$u20$for$u20$pyo3..impl_..pyclass..PyClassImplCollector$LT$_native..py_results..PyResistProfileResult$GT$$GT$10py_methods5ITEMS10trampoline17h01d7d6517f8ead2bE', symObjAddr: 0x1730, symBinAddr: 0x20290, symSize: 0x3C }
  - { offsetInCU: 0x1E2, offset: 0x7967B, size: 0x8, addend: 0x0, symName: '__ZN94_$LT$_native..py_results..PyAerialImageResult$u20$as$u20$pyo3..impl_..pyclass..PyClassImpl$GT$10items_iter15INTRINSIC_ITEMS17h3db53286c312d5ecE', symObjAddr: 0x29D0, symBinAddr: 0x676A80, symSize: 0x0 }
  - { offsetInCU: 0x202, offset: 0x7969B, size: 0x8, addend: 0x0, symName: '__ZN94_$LT$_native..py_results..PyAerialImageResult$u20$as$u20$pyo3..impl_..pyclass..PyClassImpl$GT$16lazy_type_object11TYPE_OBJECT17hcdab1caeaf3129c6E', symObjAddr: 0x2A10, symBinAddr: 0x7749D8, symSize: 0x0 }
  - { offsetInCU: 0x222, offset: 0x796BB, size: 0x8, addend: 0x0, symName: '__ZN94_$LT$_native..py_results..PyAerialImageResult$u20$as$u20$pyo3..impl_..pyclass..PyClassImpl$GT$3doc3DOC17he6f17b02e46ad649E', symObjAddr: 0x2A70, symBinAddr: 0x774A38, symSize: 0x0 }
  - { offsetInCU: 0x230, offset: 0x796C9, size: 0x8, addend: 0x0, symName: '__ZN94_$LT$_native..py_results..PyAerialImageResult$u20$as$u20$pyo3..impl_..pyclass..PyClassImpl$GT$10items_iter17ha868719b3ef4b763E', symObjAddr: 0x1EA0, symBinAddr: 0x20A00, symSize: 0x38 }
  - { offsetInCU: 0x26B, offset: 0x79704, size: 0x8, addend: 0x0, symName: '__ZN94_$LT$_native..py_results..PyAerialImageResult$u20$as$u20$pyo3..impl_..pyclass..PyClassImpl$GT$16lazy_type_object17hf1342e029c1d0d00E', symObjAddr: 0x1ED8, symBinAddr: 0x20A38, symSize: 0xC }
  - { offsetInCU: 0x288, offset: 0x79721, size: 0x8, addend: 0x0, symName: '__ZN94_$LT$_native..py_results..PyAerialImageResult$u20$as$u20$pyo3..impl_..pyclass..PyClassImpl$GT$3doc17hffc1eebd804468ccE', symObjAddr: 0x1EE4, symBinAddr: 0x20A44, symSize: 0x3C }
  - { offsetInCU: 0x4B6, offset: 0x7994F, size: 0x8, addend: 0x0, symName: '__ZN96_$LT$_native..py_results..PyResistProfileResult$u20$as$u20$pyo3..impl_..pyclass..PyClassImpl$GT$10items_iter15INTRINSIC_ITEMS17hd53387a748ab8274E', symObjAddr: 0x29F0, symBinAddr: 0x676AA0, symSize: 0x0 }
  - { offsetInCU: 0x4D6, offset: 0x7996F, size: 0x8, addend: 0x0, symName: '__ZN96_$LT$_native..py_results..PyResistProfileResult$u20$as$u20$pyo3..impl_..pyclass..PyClassImpl$GT$16lazy_type_object11TYPE_OBJECT17h8a0ae3eac68b1099E', symObjAddr: 0x2A90, symBinAddr: 0x774A58, symSize: 0x0 }
  - { offsetInCU: 0x4F6, offset: 0x7998F, size: 0x8, addend: 0x0, symName: '__ZN96_$LT$_native..py_results..PyResistProfileResult$u20$as$u20$pyo3..impl_..pyclass..PyClassImpl$GT$3doc3DOC17h0c70e2f0888bbeacE', symObjAddr: 0x2AF0, symBinAddr: 0x774AB8, symSize: 0x0 }
  - { offsetInCU: 0x504, offset: 0x7999D, size: 0x8, addend: 0x0, symName: '__ZN96_$LT$_native..py_results..PyResistProfileResult$u20$as$u20$pyo3..impl_..pyclass..PyClassImpl$GT$10items_iter17hc036f85524ba085fE', symObjAddr: 0x1F20, symBinAddr: 0x20A80, symSize: 0x38 }
  - { offsetInCU: 0x53F, offset: 0x799D8, size: 0x8, addend: 0x0, symName: '__ZN96_$LT$_native..py_results..PyResistProfileResult$u20$as$u20$pyo3..impl_..pyclass..PyClassImpl$GT$16lazy_type_object17hdcf88a3d997b5ddbE', symObjAddr: 0x1F58, symBinAddr: 0x20AB8, symSize: 0xC }
  - { offsetInCU: 0x55C, offset: 0x799F5, size: 0x8, addend: 0x0, symName: '__ZN96_$LT$_native..py_results..PyResistProfileResult$u20$as$u20$pyo3..impl_..pyclass..PyClassImpl$GT$3doc17h021a432a99888294E', symObjAddr: 0x1F64, symBinAddr: 0x20AC4, symSize: 0x3C }
  - { offsetInCU: 0x6A1, offset: 0x79B3A, size: 0x8, addend: 0x0, symName: '__ZN90_$LT$_native..py_results..PyAerialImageResult$u20$as$u20$pyo3..type_object..PyTypeInfo$GT$15type_object_raw17h8f24aa4e5eb174beE', symObjAddr: 0x1DD8, symBinAddr: 0x20938, symSize: 0x24 }
  - { offsetInCU: 0x6DE, offset: 0x79B77, size: 0x8, addend: 0x0, symName: '__ZN91_$LT$_native..py_results..PyAerialImageResult$u20$as$u20$pyo3..conversion..IntoPyObject$GT$13into_pyobject17hb51a03830ecb91c1E', symObjAddr: 0x1DFC, symBinAddr: 0x2095C, symSize: 0x40 }
  - { offsetInCU: 0x72A, offset: 0x79BC3, size: 0x8, addend: 0x0, symName: '__ZN92_$LT$_native..py_results..PyResistProfileResult$u20$as$u20$pyo3..type_object..PyTypeInfo$GT$15type_object_raw17hb858fc8f209bfc8aE', symObjAddr: 0x1E3C, symBinAddr: 0x2099C, symSize: 0x24 }
  - { offsetInCU: 0x767, offset: 0x79C00, size: 0x8, addend: 0x0, symName: '__ZN93_$LT$_native..py_results..PyResistProfileResult$u20$as$u20$pyo3..conversion..IntoPyObject$GT$13into_pyobject17h5cdece5fc4f42ca1E', symObjAddr: 0x1E60, symBinAddr: 0x209C0, symSize: 0x40 }
  - { offsetInCU: 0x3D64, offset: 0x7D1FD, size: 0x8, addend: 0x0, symName: __ZN7_native10py_results19PyAerialImageResult11from_grid2d17h0aa7fa896717abbaE, symObjAddr: 0x0, symBinAddr: 0x1EB60, symSize: 0x94 }
  - { offsetInCU: 0x3E49, offset: 0x7D2E2, size: 0x8, addend: 0x0, symName: __ZN7_native10py_results19PyAerialImageResult13cross_section17h7876bd04a86a790dE, symObjAddr: 0x94, symBinAddr: 0x1EBF4, symSize: 0x22C }
  - { offsetInCU: 0x3F4C, offset: 0x7D3E5, size: 0x8, addend: 0x0, symName: __ZN7_native10py_results19PyAerialImageResult14image_contrast17hcb2728d65110209dE, symObjAddr: 0x2C0, symBinAddr: 0x1EE20, symSize: 0x24 }
  - { offsetInCU: 0x3F6E, offset: 0x7D407, size: 0x8, addend: 0x0, symName: __ZN7_native10py_results19PyAerialImageResult17__pymethod_nils__17h177bad27699a6839E, symObjAddr: 0x2E4, symBinAddr: 0x1EE44, symSize: 0x38C }
  - { offsetInCU: 0x4109, offset: 0x7D5A2, size: 0x8, addend: 0x0, symName: __ZN7_native10py_results19PyAerialImageResult21__pymethod___repr____17he96b5584f5bbde0dE, symObjAddr: 0x670, symBinAddr: 0x1F1D0, symSize: 0x178 }
  - { offsetInCU: 0x41C3, offset: 0x7D65C, size: 0x8, addend: 0x0, symName: __ZN7_native10py_results19PyAerialImageResult21__pymethod_get_x_nm__17h1322a73986b8773aE, symObjAddr: 0x7E8, symBinAddr: 0x1F348, symSize: 0x134 }
  - { offsetInCU: 0x4251, offset: 0x7D6EA, size: 0x8, addend: 0x0, symName: __ZN7_native10py_results19PyAerialImageResult21__pymethod_get_y_nm__17h989ca6074322df44E, symObjAddr: 0x91C, symBinAddr: 0x1F47C, symSize: 0x134 }
  - { offsetInCU: 0x42DF, offset: 0x7D778, size: 0x8, addend: 0x0, symName: __ZN7_native10py_results19PyAerialImageResult26__pymethod_cross_section__17hadff98d06cb36dd5E, symObjAddr: 0xA50, symBinAddr: 0x1F5B0, symSize: 0x3FC }
  - { offsetInCU: 0x4472, offset: 0x7D90B, size: 0x8, addend: 0x0, symName: __ZN7_native10py_results19PyAerialImageResult26__pymethod_get_intensity__17h7df9b4a1f8deb7a6E, symObjAddr: 0xE4C, symBinAddr: 0x1F9AC, symSize: 0x134 }
  - { offsetInCU: 0x4500, offset: 0x7D999, size: 0x8, addend: 0x0, symName: __ZN7_native10py_results19PyAerialImageResult27__pymethod_image_contrast__17h6968cae8a7b4122bE, symObjAddr: 0xF80, symBinAddr: 0x1FAE0, symSize: 0x214 }
  - { offsetInCU: 0x45F0, offset: 0x7DA89, size: 0x8, addend: 0x0, symName: __ZN7_native10py_results19PyAerialImageResult4nils17hee2a88738b6cc692E, symObjAddr: 0x1194, symBinAddr: 0x1FCF4, symSize: 0x180 }
  - { offsetInCU: 0x46C2, offset: 0x7DB5B, size: 0x8, addend: 0x0, symName: __ZN7_native10py_results19PyAerialImageResult4x_nm17hbc75a79b09ed91bfE, symObjAddr: 0x1314, symBinAddr: 0x1FE74, symSize: 0xCC }
  - { offsetInCU: 0x474D, offset: 0x7DBE6, size: 0x8, addend: 0x0, symName: __ZN7_native10py_results19PyAerialImageResult4y_nm17hc9521ce4d6584b27E, symObjAddr: 0x13E0, symBinAddr: 0x1FF40, symSize: 0xCC }
  - { offsetInCU: 0x47D8, offset: 0x7DC71, size: 0x8, addend: 0x0, symName: __ZN7_native10py_results19PyAerialImageResult8__repr__17h574b6c0ad72b151fE, symObjAddr: 0x14AC, symBinAddr: 0x2000C, symSize: 0x140 }
  - { offsetInCU: 0x4853, offset: 0x7DCEC, size: 0x8, addend: 0x0, symName: __ZN7_native10py_results19PyAerialImageResult9intensity17h1d26ad315eaa35a5E, symObjAddr: 0x15EC, symBinAddr: 0x2014C, symSize: 0x24 }
  - { offsetInCU: 0x488E, offset: 0x7DD27, size: 0x8, addend: 0x0, symName: __ZN7_native10py_results21PyResistProfileResult12from_profile17h0f492b5c8bbe9443E, symObjAddr: 0x176C, symBinAddr: 0x202CC, symSize: 0x54 }
  - { offsetInCU: 0x48BD, offset: 0x7DD56, size: 0x8, addend: 0x0, symName: __ZN7_native10py_results21PyResistProfileResult12thickness_nm17h81699c6ac3bfadf4E, symObjAddr: 0x17C0, symBinAddr: 0x20320, symSize: 0x18 }
  - { offsetInCU: 0x48DF, offset: 0x7DD78, size: 0x8, addend: 0x0, symName: __ZN7_native10py_results21PyResistProfileResult21__pymethod___repr____17hfb55eeede293ca00E, symObjAddr: 0x17D8, symBinAddr: 0x20338, symSize: 0x178 }
  - { offsetInCU: 0x4999, offset: 0x7DE32, size: 0x8, addend: 0x0, symName: __ZN7_native10py_results21PyResistProfileResult21__pymethod_get_x_nm__17h2d8b12cd8ff41235E, symObjAddr: 0x1950, symBinAddr: 0x204B0, symSize: 0x134 }
  - { offsetInCU: 0x4A27, offset: 0x7DEC0, size: 0x8, addend: 0x0, symName: __ZN7_native10py_results21PyResistProfileResult26__pymethod_get_height_nm__17hcfceb35cec113852E, symObjAddr: 0x1A84, symBinAddr: 0x205E4, symSize: 0x134 }
  - { offsetInCU: 0x4AB5, offset: 0x7DF4E, size: 0x8, addend: 0x0, symName: __ZN7_native10py_results21PyResistProfileResult29__pymethod_get_thickness_nm__17h05f54c508e736a28E, symObjAddr: 0x1BB8, symBinAddr: 0x20718, symSize: 0x134 }
  - { offsetInCU: 0x4B43, offset: 0x7DFDC, size: 0x8, addend: 0x0, symName: __ZN7_native10py_results21PyResistProfileResult4x_nm17h294ce564197aa64fE, symObjAddr: 0x1CEC, symBinAddr: 0x2084C, symSize: 0x28 }
  - { offsetInCU: 0x4B7E, offset: 0x7E017, size: 0x8, addend: 0x0, symName: __ZN7_native10py_results21PyResistProfileResult8__repr__17hb1188e8b4e00f3bdE, symObjAddr: 0x1D14, symBinAddr: 0x20874, symSize: 0x9C }
  - { offsetInCU: 0x4BF8, offset: 0x7E091, size: 0x8, addend: 0x0, symName: __ZN7_native10py_results21PyResistProfileResult9height_nm17h29647b69f7085a5aE, symObjAddr: 0x1DB0, symBinAddr: 0x20910, symSize: 0x28 }
  - { offsetInCU: 0x1E, offset: 0x7E2DA, size: 0x8, addend: 0x0, symName: '__ZN102_$LT$core..iter..adapters..zip..Zip$LT$A$C$B$GT$$u20$as$u20$core..iter..traits..iterator..Iterator$GT$4next17hc43cda0c524290a3E', symObjAddr: 0x0, symBinAddr: 0x20B00, symSize: 0x24 }
  - { offsetInCU: 0x853, offset: 0x7EB0F, size: 0x8, addend: 0x0, symName: '__ZN102_$LT$core..iter..adapters..zip..Zip$LT$A$C$B$GT$$u20$as$u20$core..iter..traits..iterator..Iterator$GT$4next17hc43cda0c524290a3E', symObjAddr: 0x0, symBinAddr: 0x20B00, symSize: 0x24 }
  - { offsetInCU: 0x897, offset: 0x7EB53, size: 0x8, addend: 0x0, symName: '__ZN111_$LT$core..iter..adapters..zip..Zip$LT$A$C$B$GT$$u20$as$u20$core..iter..adapters..zip..ZipImpl$LT$A$C$B$GT$$GT$3new17h73b793b1c1dd01fcE', symObjAddr: 0x24, symBinAddr: 0x20B24, symSize: 0x3C }
  - { offsetInCU: 0x8E3, offset: 0x7EB9F, size: 0x8, addend: 0x0, symName: '__ZN111_$LT$core..iter..adapters..zip..Zip$LT$A$C$B$GT$$u20$as$u20$core..iter..adapters..zip..ZipImpl$LT$A$C$B$GT$$GT$4next17h13901e5577a52a9cE', symObjAddr: 0x60, symBinAddr: 0x20B60, symSize: 0xE0 }
  - { offsetInCU: 0xB10, offset: 0x7EDCC, size: 0x8, addend: 0x0, symName: '__ZN63_$LT$I$u20$as$u20$core..iter..traits..collect..IntoIterator$GT$9into_iter17h16edb2d3f520e6a5E', symObjAddr: 0x140, symBinAddr: 0x20C40, symSize: 0x30 }
  - { offsetInCU: 0xB48, offset: 0x7EE04, size: 0x8, addend: 0x0, symName: '__ZN63_$LT$I$u20$as$u20$core..iter..traits..collect..IntoIterator$GT$9into_iter17h934c534a03276fefE', symObjAddr: 0x170, symBinAddr: 0x20C70, symSize: 0x30 }
  - { offsetInCU: 0x1E, offset: 0x80283, size: 0x8, addend: 0x0, symName: '__ZN102_$LT$$RF$mut$u20$alloc..vec..Vec$LT$T$C$A$GT$$u20$as$u20$core..iter..traits..collect..IntoIterator$GT$9into_iter17hf2a252ee6b4f4caaE', symObjAddr: 0x0, symBinAddr: 0x20CA0, symSize: 0x68 }
  - { offsetInCU: 0x16D2, offset: 0x81937, size: 0x8, addend: 0x0, symName: '__ZN4core5slice29_$LT$impl$u20$$u5b$T$u5d$$GT$4iter17h1553c00a6f7aff07E', symObjAddr: 0x8BC, symBinAddr: 0x2155C, symSize: 0x28 }
  - { offsetInCU: 0x3498, offset: 0x836FD, size: 0x8, addend: 0x0, symName: '__ZN102_$LT$$RF$mut$u20$alloc..vec..Vec$LT$T$C$A$GT$$u20$as$u20$core..iter..traits..collect..IntoIterator$GT$9into_iter17hf2a252ee6b4f4caaE', symObjAddr: 0x0, symBinAddr: 0x20CA0, symSize: 0x68 }
  - { offsetInCU: 0x38D3, offset: 0x83B38, size: 0x8, addend: 0x0, symName: '__ZN111_$LT$alloc..vec..Vec$LT$T$GT$$u20$as$u20$alloc..vec..spec_from_iter_nested..SpecFromIterNested$LT$T$C$I$GT$$GT$9from_iter17h0528040f5aaa8e41E', symObjAddr: 0x68, symBinAddr: 0x20D08, symSize: 0x130 }
  - { offsetInCU: 0x3995, offset: 0x83BFA, size: 0x8, addend: 0x0, symName: '__ZN111_$LT$alloc..vec..Vec$LT$T$GT$$u20$as$u20$alloc..vec..spec_from_iter_nested..SpecFromIterNested$LT$T$C$I$GT$$GT$9from_iter17h22027c495e3c8abdE', symObjAddr: 0x198, symBinAddr: 0x20E38, symSize: 0x130 }
  - { offsetInCU: 0x3A57, offset: 0x83CBC, size: 0x8, addend: 0x0, symName: '__ZN111_$LT$alloc..vec..Vec$LT$T$GT$$u20$as$u20$alloc..vec..spec_from_iter_nested..SpecFromIterNested$LT$T$C$I$GT$$GT$9from_iter17h2fb643fcbe9e767aE', symObjAddr: 0x2C8, symBinAddr: 0x20F68, symSize: 0x130 }
  - { offsetInCU: 0x3B19, offset: 0x83D7E, size: 0x8, addend: 0x0, symName: '__ZN111_$LT$alloc..vec..Vec$LT$T$GT$$u20$as$u20$alloc..vec..spec_from_iter_nested..SpecFromIterNested$LT$T$C$I$GT$$GT$9from_iter17h55a734891caa2acbE', symObjAddr: 0x3F8, symBinAddr: 0x21098, symSize: 0x130 }
  - { offsetInCU: 0x3BDB, offset: 0x83E40, size: 0x8, addend: 0x0, symName: '__ZN111_$LT$alloc..vec..Vec$LT$T$GT$$u20$as$u20$alloc..vec..spec_from_iter_nested..SpecFromIterNested$LT$T$C$I$GT$$GT$9from_iter17h7f9bfadcf5a2b6e3E', symObjAddr: 0x528, symBinAddr: 0x211C8, symSize: 0x130 }
  - { offsetInCU: 0x3C9D, offset: 0x83F02, size: 0x8, addend: 0x0, symName: '__ZN111_$LT$alloc..vec..Vec$LT$T$GT$$u20$as$u20$alloc..vec..spec_from_iter_nested..SpecFromIterNested$LT$T$C$I$GT$$GT$9from_iter17haa08d2e184f78457E', symObjAddr: 0x658, symBinAddr: 0x212F8, symSize: 0x130 }
  - { offsetInCU: 0x3D5F, offset: 0x83FC4, size: 0x8, addend: 0x0, symName: '__ZN111_$LT$alloc..vec..Vec$LT$T$GT$$u20$as$u20$alloc..vec..spec_from_iter_nested..SpecFromIterNested$LT$T$C$I$GT$$GT$9from_iter17he56bb92676039d4eE', symObjAddr: 0x788, symBinAddr: 0x21428, symSize: 0x134 }
  - { offsetInCU: 0x4296, offset: 0x844FB, size: 0x8, addend: 0x0, symName: '__ZN5alloc3vec16Vec$LT$T$C$A$GT$14extend_trusted28_$u7b$$u7b$closure$u7d$$u7d$17h3b3dce101f84cb30E', symObjAddr: 0x1354, symBinAddr: 0x21FF4, symSize: 0x30 }
  - { offsetInCU: 0x433E, offset: 0x845A3, size: 0x8, addend: 0x0, symName: '__ZN5alloc3vec16Vec$LT$T$C$A$GT$14extend_trusted28_$u7b$$u7b$closure$u7d$$u7d$17h56bc86292d011035E', symObjAddr: 0x1384, symBinAddr: 0x22024, symSize: 0x30 }
  - { offsetInCU: 0x43E6, offset: 0x8464B, size: 0x8, addend: 0x0, symName: '__ZN5alloc3vec16Vec$LT$T$C$A$GT$14extend_trusted28_$u7b$$u7b$closure$u7d$$u7d$17h65c5d97662ed945fE', symObjAddr: 0x13B4, symBinAddr: 0x22054, symSize: 0x30 }
  - { offsetInCU: 0x448E, offset: 0x846F3, size: 0x8, addend: 0x0, symName: '__ZN5alloc3vec16Vec$LT$T$C$A$GT$14extend_trusted28_$u7b$$u7b$closure$u7d$$u7d$17h77cc044f7770d6b7E', symObjAddr: 0x13E4, symBinAddr: 0x22084, symSize: 0x3C }
  - { offsetInCU: 0x454B, offset: 0x847B0, size: 0x8, addend: 0x0, symName: '__ZN5alloc3vec16Vec$LT$T$C$A$GT$14extend_trusted28_$u7b$$u7b$closure$u7d$$u7d$17h8a028b0f5e63a114E', symObjAddr: 0x1420, symBinAddr: 0x220C0, symSize: 0x30 }
  - { offsetInCU: 0x45F3, offset: 0x84858, size: 0x8, addend: 0x0, symName: '__ZN5alloc3vec16Vec$LT$T$C$A$GT$14extend_trusted28_$u7b$$u7b$closure$u7d$$u7d$17ha07d51ee088b8242E', symObjAddr: 0x1450, symBinAddr: 0x220F0, symSize: 0x30 }
  - { offsetInCU: 0x469B, offset: 0x84900, size: 0x8, addend: 0x0, symName: '__ZN5alloc3vec16Vec$LT$T$C$A$GT$14extend_trusted28_$u7b$$u7b$closure$u7d$$u7d$17hdc250b6336590427E', symObjAddr: 0x1480, symBinAddr: 0x22120, symSize: 0x30 }
  - { offsetInCU: 0x4A8A, offset: 0x84CEF, size: 0x8, addend: 0x0, symName: '__ZN5alloc3vec16in_place_collect108_$LT$impl$u20$alloc..vec..spec_from_iter..SpecFromIter$LT$T$C$I$GT$$u20$for$u20$alloc..vec..Vec$LT$T$GT$$GT$9from_iter17h6e8d6e12c86e6f0cE', symObjAddr: 0x1BC8, symBinAddr: 0x22868, symSize: 0x28 }
  - { offsetInCU: 0x4B4D, offset: 0x84DB2, size: 0x8, addend: 0x0, symName: '__ZN72_$LT$alloc..vec..Vec$LT$T$C$A$GT$$u20$as$u20$core..ops..deref..Deref$GT$5deref17h9666a33aa4ce3056E', symObjAddr: 0x1C88, symBinAddr: 0x22928, symSize: 0x20 }
  - { offsetInCU: 0x4C0A, offset: 0x84E6F, size: 0x8, addend: 0x0, symName: '__ZN72_$LT$alloc..vec..Vec$LT$T$C$A$GT$$u20$as$u20$core..ops..deref..Deref$GT$5deref17hf056ddcb19232a88E', symObjAddr: 0x1CA8, symBinAddr: 0x22948, symSize: 0x20 }
  - { offsetInCU: 0x4D5D, offset: 0x84FC2, size: 0x8, addend: 0x0, symName: '__ZN67_$LT$alloc..vec..Vec$LT$T$C$A$GT$$u20$as$u20$core..clone..Clone$GT$5clone17h1fe8223252353618E', symObjAddr: 0x1BF0, symBinAddr: 0x22890, symSize: 0x4C }
  - { offsetInCU: 0x4EC5, offset: 0x8512A, size: 0x8, addend: 0x0, symName: '__ZN67_$LT$alloc..vec..Vec$LT$T$C$A$GT$$u20$as$u20$core..clone..Clone$GT$5clone17hd40738e01a177b4dE', symObjAddr: 0x1C3C, symBinAddr: 0x228DC, symSize: 0x4C }
  - { offsetInCU: 0x5139, offset: 0x8539E, size: 0x8, addend: 0x0, symName: '__ZN90_$LT$alloc..vec..Vec$LT$T$C$A$GT$$u20$as$u20$core..iter..traits..collect..IntoIterator$GT$9into_iter17h73a8afc0a2cc7dc1E', symObjAddr: 0x1CF0, symBinAddr: 0x22990, symSize: 0xB0 }
  - { offsetInCU: 0x5330, offset: 0x85595, size: 0x8, addend: 0x0, symName: '__ZN90_$LT$alloc..vec..Vec$LT$T$C$A$GT$$u20$as$u20$core..iter..traits..collect..IntoIterator$GT$9into_iter17h9e32c61a480b6377E', symObjAddr: 0x1DA0, symBinAddr: 0x22A40, symSize: 0xA8 }
  - { offsetInCU: 0x5527, offset: 0x8578C, size: 0x8, addend: 0x0, symName: '__ZN90_$LT$alloc..vec..Vec$LT$T$C$A$GT$$u20$as$u20$core..iter..traits..collect..IntoIterator$GT$9into_iter17he23fdb0e7a76855bE', symObjAddr: 0x1E48, symBinAddr: 0x22AE8, symSize: 0xA8 }
  - { offsetInCU: 0x577F, offset: 0x859E4, size: 0x8, addend: 0x0, symName: '__ZN94_$LT$$RF$alloc..vec..Vec$LT$T$C$A$GT$$u20$as$u20$core..iter..traits..collect..IntoIterator$GT$9into_iter17h75fdfc4b3d498cd3E', symObjAddr: 0x1EF0, symBinAddr: 0x22B90, symSize: 0x68 }
  - { offsetInCU: 0x5964, offset: 0x85BC9, size: 0x8, addend: 0x0, symName: '__ZN94_$LT$$RF$alloc..vec..Vec$LT$T$C$A$GT$$u20$as$u20$core..iter..traits..collect..IntoIterator$GT$9into_iter17h99c6cf093dc1fa8bE', symObjAddr: 0x1F58, symBinAddr: 0x22BF8, symSize: 0x60 }
  - { offsetInCU: 0x5B49, offset: 0x85DAE, size: 0x8, addend: 0x0, symName: '__ZN94_$LT$$RF$alloc..vec..Vec$LT$T$C$A$GT$$u20$as$u20$core..iter..traits..collect..IntoIterator$GT$9into_iter17hd1ec424c6d97c94eE', symObjAddr: 0x1FB8, symBinAddr: 0x22C58, symSize: 0x60 }
  - { offsetInCU: 0x5D34, offset: 0x85F99, size: 0x8, addend: 0x0, symName: '__ZN95_$LT$alloc..vec..Vec$LT$T$GT$$u20$as$u20$core..iter..traits..collect..FromIterator$LT$T$GT$$GT$9from_iter17h2960ba916edc7d7eE', symObjAddr: 0x2018, symBinAddr: 0x22CB8, symSize: 0x34 }
  - { offsetInCU: 0x5D75, offset: 0x85FDA, size: 0x8, addend: 0x0, symName: '__ZN95_$LT$alloc..vec..Vec$LT$T$GT$$u20$as$u20$core..iter..traits..collect..FromIterator$LT$T$GT$$GT$9from_iter17h395a8cb2a41ef0ecE', symObjAddr: 0x204C, symBinAddr: 0x22CEC, symSize: 0x34 }
  - { offsetInCU: 0x5DB6, offset: 0x8601B, size: 0x8, addend: 0x0, symName: '__ZN95_$LT$alloc..vec..Vec$LT$T$GT$$u20$as$u20$core..iter..traits..collect..FromIterator$LT$T$GT$$GT$9from_iter17h3ce810a0edd85fbaE', symObjAddr: 0x2080, symBinAddr: 0x22D20, symSize: 0x34 }
  - { offsetInCU: 0x5DF7, offset: 0x8605C, size: 0x8, addend: 0x0, symName: '__ZN95_$LT$alloc..vec..Vec$LT$T$GT$$u20$as$u20$core..iter..traits..collect..FromIterator$LT$T$GT$$GT$9from_iter17h943a9efe899d436fE', symObjAddr: 0x20B4, symBinAddr: 0x22D54, symSize: 0x34 }
  - { offsetInCU: 0x5E38, offset: 0x8609D, size: 0x8, addend: 0x0, symName: '__ZN95_$LT$alloc..vec..Vec$LT$T$GT$$u20$as$u20$core..iter..traits..collect..FromIterator$LT$T$GT$$GT$9from_iter17h9effd4c6b3a848edE', symObjAddr: 0x20E8, symBinAddr: 0x22D88, symSize: 0x34 }
  - { offsetInCU: 0x5E79, offset: 0x860DE, size: 0x8, addend: 0x0, symName: '__ZN95_$LT$alloc..vec..Vec$LT$T$GT$$u20$as$u20$core..iter..traits..collect..FromIterator$LT$T$GT$$GT$9from_iter17haad5268359d9e228E', symObjAddr: 0x211C, symBinAddr: 0x22DBC, symSize: 0x34 }
  - { offsetInCU: 0x5EBA, offset: 0x8611F, size: 0x8, addend: 0x0, symName: '__ZN95_$LT$alloc..vec..Vec$LT$T$GT$$u20$as$u20$core..iter..traits..collect..FromIterator$LT$T$GT$$GT$9from_iter17hbb805370e0374b77E', symObjAddr: 0x2150, symBinAddr: 0x22DF0, symSize: 0x34 }
  - { offsetInCU: 0x5EFB, offset: 0x86160, size: 0x8, addend: 0x0, symName: '__ZN95_$LT$alloc..vec..Vec$LT$T$GT$$u20$as$u20$core..iter..traits..collect..FromIterator$LT$T$GT$$GT$9from_iter17hdb93d8415f755a06E', symObjAddr: 0x2184, symBinAddr: 0x22E24, symSize: 0x34 }
  - { offsetInCU: 0x5F47, offset: 0x861AC, size: 0x8, addend: 0x0, symName: '__ZN97_$LT$alloc..vec..Vec$LT$T$C$A$GT$$u20$as$u20$alloc..vec..spec_extend..SpecExtend$LT$T$C$I$GT$$GT$11spec_extend17h00fc07601fb9ea11E', symObjAddr: 0x21B8, symBinAddr: 0x22E58, symSize: 0x24 }
  - { offsetInCU: 0x5F99, offset: 0x861FE, size: 0x8, addend: 0x0, symName: '__ZN97_$LT$alloc..vec..Vec$LT$T$C$A$GT$$u20$as$u20$alloc..vec..spec_extend..SpecExtend$LT$T$C$I$GT$$GT$11spec_extend17h1db0337c4dd0071eE', symObjAddr: 0x21DC, symBinAddr: 0x22E7C, symSize: 0x24 }
  - { offsetInCU: 0x5FEB, offset: 0x86250, size: 0x8, addend: 0x0, symName: '__ZN97_$LT$alloc..vec..Vec$LT$T$C$A$GT$$u20$as$u20$alloc..vec..spec_extend..SpecExtend$LT$T$C$I$GT$$GT$11spec_extend17h2d5a8f92599667bbE', symObjAddr: 0x2200, symBinAddr: 0x22EA0, symSize: 0x24 }
  - { offsetInCU: 0x603D, offset: 0x862A2, size: 0x8, addend: 0x0, symName: '__ZN97_$LT$alloc..vec..Vec$LT$T$C$A$GT$$u20$as$u20$alloc..vec..spec_extend..SpecExtend$LT$T$C$I$GT$$GT$11spec_extend17h41df9c2e6a875573E', symObjAddr: 0x2224, symBinAddr: 0x22EC4, symSize: 0x24 }
  - { offsetInCU: 0x608F, offset: 0x862F4, size: 0x8, addend: 0x0, symName: '__ZN97_$LT$alloc..vec..Vec$LT$T$C$A$GT$$u20$as$u20$alloc..vec..spec_extend..SpecExtend$LT$T$C$I$GT$$GT$11spec_extend17h8abd2f6a09c22834E', symObjAddr: 0x2248, symBinAddr: 0x22EE8, symSize: 0x24 }
  - { offsetInCU: 0x60E1, offset: 0x86346, size: 0x8, addend: 0x0, symName: '__ZN97_$LT$alloc..vec..Vec$LT$T$C$A$GT$$u20$as$u20$alloc..vec..spec_extend..SpecExtend$LT$T$C$I$GT$$GT$11spec_extend17hda3172dce82dc341E', symObjAddr: 0x226C, symBinAddr: 0x22F0C, symSize: 0x24 }
  - { offsetInCU: 0x6133, offset: 0x86398, size: 0x8, addend: 0x0, symName: '__ZN97_$LT$alloc..vec..Vec$LT$T$C$A$GT$$u20$as$u20$alloc..vec..spec_extend..SpecExtend$LT$T$C$I$GT$$GT$11spec_extend17hdb82f08a8d9b241fE', symObjAddr: 0x2290, symBinAddr: 0x22F30, symSize: 0x24 }
  - { offsetInCU: 0x6191, offset: 0x863F6, size: 0x8, addend: 0x0, symName: '__ZN98_$LT$alloc..vec..Vec$LT$T$GT$$u20$as$u20$alloc..vec..spec_from_iter..SpecFromIter$LT$T$C$I$GT$$GT$9from_iter17h40069848e7cb38dcE', symObjAddr: 0x22B4, symBinAddr: 0x22F54, symSize: 0x14 }
  - { offsetInCU: 0x61D0, offset: 0x86435, size: 0x8, addend: 0x0, symName: '__ZN98_$LT$alloc..vec..Vec$LT$T$GT$$u20$as$u20$alloc..vec..spec_from_iter..SpecFromIter$LT$T$C$I$GT$$GT$9from_iter17h452c4c08264df8f2E', symObjAddr: 0x22C8, symBinAddr: 0x22F68, symSize: 0x14 }
  - { offsetInCU: 0x620F, offset: 0x86474, size: 0x8, addend: 0x0, symName: '__ZN98_$LT$alloc..vec..Vec$LT$T$GT$$u20$as$u20$alloc..vec..spec_from_iter..SpecFromIter$LT$T$C$I$GT$$GT$9from_iter17h50a16221ba74f934E', symObjAddr: 0x22DC, symBinAddr: 0x22F7C, symSize: 0x14 }
  - { offsetInCU: 0x624E, offset: 0x864B3, size: 0x8, addend: 0x0, symName: '__ZN98_$LT$alloc..vec..Vec$LT$T$GT$$u20$as$u20$alloc..vec..spec_from_iter..SpecFromIter$LT$T$C$I$GT$$GT$9from_iter17h6940f21e04a8f14fE', symObjAddr: 0x22F0, symBinAddr: 0x22F90, symSize: 0x14 }
  - { offsetInCU: 0x628D, offset: 0x864F2, size: 0x8, addend: 0x0, symName: '__ZN98_$LT$alloc..vec..Vec$LT$T$GT$$u20$as$u20$alloc..vec..spec_from_iter..SpecFromIter$LT$T$C$I$GT$$GT$9from_iter17h7a6877c0f393effaE', symObjAddr: 0x2304, symBinAddr: 0x22FA4, symSize: 0x14 }
  - { offsetInCU: 0x62CC, offset: 0x86531, size: 0x8, addend: 0x0, symName: '__ZN98_$LT$alloc..vec..Vec$LT$T$GT$$u20$as$u20$alloc..vec..spec_from_iter..SpecFromIter$LT$T$C$I$GT$$GT$9from_iter17he58608cce57f49b4E', symObjAddr: 0x2318, symBinAddr: 0x22FB8, symSize: 0x14 }
  - { offsetInCU: 0x630B, offset: 0x86570, size: 0x8, addend: 0x0, symName: '__ZN98_$LT$alloc..vec..Vec$LT$T$GT$$u20$as$u20$alloc..vec..spec_from_iter..SpecFromIter$LT$T$C$I$GT$$GT$9from_iter17hede82622c980a504E', symObjAddr: 0x232C, symBinAddr: 0x22FCC, symSize: 0x14 }
  - { offsetInCU: 0x6ADC, offset: 0x86D41, size: 0x8, addend: 0x0, symName: __ZN4pyo310conversion15IntoPyObjectExt17into_bound_py_any17hc73781bda668960aE, symObjAddr: 0x8E4, symBinAddr: 0x21584, symSize: 0xE0 }
  - { offsetInCU: 0x6B6F, offset: 0x86DD4, size: 0x8, addend: 0x0, symName: '__ZN57_$LT$T$u20$as$u20$pyo3..conversion..FromPyObjectBound$GT$20from_py_object_bound17h5c2f2d68f0547de2E', symObjAddr: 0xA80, symBinAddr: 0x21720, symSize: 0x34 }
  - { offsetInCU: 0x6BBC, offset: 0x86E21, size: 0x8, addend: 0x0, symName: '__ZN4pyo311conversions3std3vec85_$LT$impl$u20$pyo3..conversion..IntoPyObject$u20$for$u20$alloc..vec..Vec$LT$T$GT$$GT$13into_pyobject17hbc33e6473d9ef472E', symObjAddr: 0x9C4, symBinAddr: 0x21664, symSize: 0x34 }
  - { offsetInCU: 0x6C1E, offset: 0x86E83, size: 0x8, addend: 0x0, symName: '__ZN4pyo35types8sequence85_$LT$impl$u20$pyo3..conversion..FromPyObject$u20$for$u20$alloc..vec..Vec$LT$T$GT$$GT$13extract_bound17h9461d0a650a33c71E', symObjAddr: 0x9F8, symBinAddr: 0x21698, symSize: 0x88 }
  - { offsetInCU: 0x6C82, offset: 0x86EE7, size: 0x8, addend: 0x0, symName: '__ZN80_$LT$T$u20$as$u20$pyo3..impl_..extract_argument..PyFunctionArgument$LT$_$GT$$GT$7extract17he599c476f2fd509aE', symObjAddr: 0x1CC8, symBinAddr: 0x22968, symSize: 0x28 }
  - { offsetInCU: 0x6F5D, offset: 0x871C2, size: 0x8, addend: 0x0, symName: '__ZN5alloc3vec12Vec$LT$T$GT$3new17h226e74dab42606caE', symObjAddr: 0xAB4, symBinAddr: 0x21754, symSize: 0x14 }
  - { offsetInCU: 0x6F7A, offset: 0x871DF, size: 0x8, addend: 0x0, symName: '__ZN5alloc3vec12Vec$LT$T$GT$3new17h9c08b1f969be269aE', symObjAddr: 0xAC8, symBinAddr: 0x21768, symSize: 0x14 }
  - { offsetInCU: 0x6FCB, offset: 0x87230, size: 0x8, addend: 0x0, symName: '__ZN5alloc3vec12Vec$LT$T$GT$3new17hccbd384a78b1f9a1E', symObjAddr: 0xADC, symBinAddr: 0x2177C, symSize: 0x14 }
  - { offsetInCU: 0x715F, offset: 0x873C4, size: 0x8, addend: 0x0, symName: '__ZN5alloc3vec12Vec$LT$T$GT$3new17hf1820b050de408f7E', symObjAddr: 0xAF0, symBinAddr: 0x21790, symSize: 0x14 }
  - { offsetInCU: 0x73B1, offset: 0x87616, size: 0x8, addend: 0x0, symName: '__ZN5alloc3vec16Vec$LT$T$C$A$GT$14extend_trusted17h68c57762c08550b6E', symObjAddr: 0xB04, symBinAddr: 0x217A4, symSize: 0x130 }
  - { offsetInCU: 0x75A5, offset: 0x8780A, size: 0x8, addend: 0x0, symName: '__ZN5alloc3vec16Vec$LT$T$C$A$GT$14extend_trusted17hb4849f8bc2193f1aE', symObjAddr: 0xC34, symBinAddr: 0x218D4, symSize: 0x130 }
  - { offsetInCU: 0x7799, offset: 0x879FE, size: 0x8, addend: 0x0, symName: '__ZN5alloc3vec16Vec$LT$T$C$A$GT$14extend_trusted17hbe51d0c5d4b2607bE', symObjAddr: 0xD64, symBinAddr: 0x21A04, symSize: 0x130 }
  - { offsetInCU: 0x799A, offset: 0x87BFF, size: 0x8, addend: 0x0, symName: '__ZN5alloc3vec16Vec$LT$T$C$A$GT$14extend_trusted17hd1a8e7e7de872ff8E', symObjAddr: 0xE94, symBinAddr: 0x21B34, symSize: 0x130 }
  - { offsetInCU: 0x7B8E, offset: 0x87DF3, size: 0x8, addend: 0x0, symName: '__ZN5alloc3vec16Vec$LT$T$C$A$GT$14extend_trusted17hd5ba457c15d3171fE', symObjAddr: 0xFC4, symBinAddr: 0x21C64, symSize: 0x130 }
  - { offsetInCU: 0x7DA9, offset: 0x8800E, size: 0x8, addend: 0x0, symName: '__ZN5alloc3vec16Vec$LT$T$C$A$GT$14extend_trusted17he5e3e4967b533279E', symObjAddr: 0x10F4, symBinAddr: 0x21D94, symSize: 0x130 }
  - { offsetInCU: 0x7F9D, offset: 0x88202, size: 0x8, addend: 0x0, symName: '__ZN5alloc3vec16Vec$LT$T$C$A$GT$14extend_trusted17hfb5523514adf2204E', symObjAddr: 0x1224, symBinAddr: 0x21EC4, symSize: 0x130 }
  - { offsetInCU: 0x8257, offset: 0x884BC, size: 0x8, addend: 0x0, symName: '__ZN5alloc3vec16Vec$LT$T$C$A$GT$3len17h3133b8bc01eb7e62E', symObjAddr: 0x14B0, symBinAddr: 0x22150, symSize: 0x18 }
  - { offsetInCU: 0x8299, offset: 0x884FE, size: 0x8, addend: 0x0, symName: '__ZN5alloc3vec16Vec$LT$T$C$A$GT$3len17h8ffe6037b514bdafE', symObjAddr: 0x14C8, symBinAddr: 0x22168, symSize: 0x18 }
  - { offsetInCU: 0x82DB, offset: 0x88540, size: 0x8, addend: 0x0, symName: '__ZN5alloc3vec16Vec$LT$T$C$A$GT$3len17hadefb2f94b7625caE', symObjAddr: 0x14E0, symBinAddr: 0x22180, symSize: 0x18 }
  - { offsetInCU: 0x831D, offset: 0x88582, size: 0x8, addend: 0x0, symName: '__ZN5alloc3vec16Vec$LT$T$C$A$GT$3len17hd74bc83a237e1ae1E', symObjAddr: 0x14F8, symBinAddr: 0x22198, symSize: 0x18 }
  - { offsetInCU: 0x835F, offset: 0x885C4, size: 0x8, addend: 0x0, symName: '__ZN5alloc3vec16Vec$LT$T$C$A$GT$4push17h231fa2e24a55e8d0E', symObjAddr: 0x1510, symBinAddr: 0x221B0, symSize: 0x30 }
  - { offsetInCU: 0x83B0, offset: 0x88615, size: 0x8, addend: 0x0, symName: '__ZN5alloc3vec16Vec$LT$T$C$A$GT$4push17h3052d3c63f8b60b1E', symObjAddr: 0x1540, symBinAddr: 0x221E0, symSize: 0x24 }
  - { offsetInCU: 0x8402, offset: 0x88667, size: 0x8, addend: 0x0, symName: '__ZN5alloc3vec16Vec$LT$T$C$A$GT$4push17h538e0e8f34a00213E', symObjAddr: 0x1564, symBinAddr: 0x22204, symSize: 0x24 }
  - { offsetInCU: 0x8447, offset: 0x886AC, size: 0x8, addend: 0x0, symName: '__ZN5alloc3vec16Vec$LT$T$C$A$GT$4push17h6f3a27fc2cfa59ccE', symObjAddr: 0x1588, symBinAddr: 0x22228, symSize: 0x24 }
  - { offsetInCU: 0x8499, offset: 0x886FE, size: 0x8, addend: 0x0, symName: '__ZN5alloc3vec16Vec$LT$T$C$A$GT$4push17h8f2402627e2258f7E', symObjAddr: 0x15AC, symBinAddr: 0x2224C, symSize: 0x24 }
  - { offsetInCU: 0x8509, offset: 0x8876E, size: 0x8, addend: 0x0, symName: '__ZN5alloc3vec16Vec$LT$T$C$A$GT$4push17ha2cc566c38890f90E', symObjAddr: 0x15D0, symBinAddr: 0x22270, symSize: 0x2C }
  - { offsetInCU: 0x8586, offset: 0x887EB, size: 0x8, addend: 0x0, symName: '__ZN5alloc3vec16Vec$LT$T$C$A$GT$8is_empty17h051cfee1ab516361E', symObjAddr: 0x15FC, symBinAddr: 0x2229C, symSize: 0x20 }
  - { offsetInCU: 0x860B, offset: 0x88870, size: 0x8, addend: 0x0, symName: '__ZN5alloc3vec16Vec$LT$T$C$A$GT$8is_empty17h30bbe602ab4069cbE', symObjAddr: 0x161C, symBinAddr: 0x222BC, symSize: 0x20 }
  - { offsetInCU: 0x8772, offset: 0x889D7, size: 0x8, addend: 0x0, symName: '__ZN5alloc3vec16Vec$LT$T$C$A$GT$8push_mut17h00fd6567d397c6deE', symObjAddr: 0x163C, symBinAddr: 0x222DC, symSize: 0xE0 }
  - { offsetInCU: 0x8A09, offset: 0x88C6E, size: 0x8, addend: 0x0, symName: '__ZN5alloc3vec16Vec$LT$T$C$A$GT$8push_mut17h082e1b05628ab2a5E', symObjAddr: 0x171C, symBinAddr: 0x223BC, symSize: 0xDC }
  - { offsetInCU: 0x8C6E, offset: 0x88ED3, size: 0x8, addend: 0x0, symName: '__ZN5alloc3vec16Vec$LT$T$C$A$GT$8push_mut17h615b310dd0c241c3E', symObjAddr: 0x17F8, symBinAddr: 0x22498, symSize: 0xE4 }
  - { offsetInCU: 0x8F07, offset: 0x8916C, size: 0x8, addend: 0x0, symName: '__ZN5alloc3vec16Vec$LT$T$C$A$GT$8push_mut17h723bb33534f65814E', symObjAddr: 0x18DC, symBinAddr: 0x2257C, symSize: 0x108 }
  - { offsetInCU: 0x919F, offset: 0x89404, size: 0x8, addend: 0x0, symName: '__ZN5alloc3vec16Vec$LT$T$C$A$GT$8push_mut17h7320f9d4f20dfdc3E', symObjAddr: 0x19E4, symBinAddr: 0x22684, symSize: 0x108 }
  - { offsetInCU: 0x9436, offset: 0x8969B, size: 0x8, addend: 0x0, symName: '__ZN5alloc3vec16Vec$LT$T$C$A$GT$8push_mut17hd1078ef36a9c44b9E', symObjAddr: 0x1AEC, symBinAddr: 0x2278C, symSize: 0xDC }
  - { offsetInCU: 0x1E, offset: 0x8AC71, size: 0x8, addend: 0x0, symName: '__ZN96_$LT$pyo3..pycell..impl_..BorrowChecker$u20$as$u20$pyo3..pycell..impl_..PyClassBorrowChecker$GT$3new17hb3d6c70647a16a7eE', symObjAddr: 0x0, symBinAddr: 0x22FE0, symSize: 0x40 }
  - { offsetInCU: 0x3F, offset: 0x8AC92, size: 0x8, addend: 0x0, symName: '__ZN96_$LT$pyo3..pycell..impl_..BorrowChecker$u20$as$u20$pyo3..pycell..impl_..PyClassBorrowChecker$GT$3new17hb3d6c70647a16a7eE', symObjAddr: 0x0, symBinAddr: 0x22FE0, symSize: 0x40 }
  - { offsetInCU: 0x1E, offset: 0x8AD4D, size: 0x8, addend: 0x0, symName: __ZN4pyo310conversion15IntoPyObjectExt17into_bound_py_any17h478678419d3aef25E, symObjAddr: 0x0, symBinAddr: 0x23020, symSize: 0xE4 }
  - { offsetInCU: 0x86B, offset: 0x8B59A, size: 0x8, addend: 0x0, symName: '__ZN50_$LT$T$u20$as$u20$core..convert..Into$LT$U$GT$$GT$4into17h16f4da7d6bf52ebaE', symObjAddr: 0x788, symBinAddr: 0x237A8, symSize: 0x14 }
  - { offsetInCU: 0x8AC, offset: 0x8B5DB, size: 0x8, addend: 0x0, symName: '__ZN50_$LT$T$u20$as$u20$core..convert..Into$LT$U$GT$$GT$4into17h1e106ddcf693f3cdE', symObjAddr: 0x79C, symBinAddr: 0x237BC, symSize: 0x14 }
  - { offsetInCU: 0x8ED, offset: 0x8B61C, size: 0x8, addend: 0x0, symName: '__ZN50_$LT$T$u20$as$u20$core..convert..Into$LT$U$GT$$GT$4into17h2e3d64fdfef146f5E', symObjAddr: 0x7B0, symBinAddr: 0x237D0, symSize: 0x24 }
  - { offsetInCU: 0x92D, offset: 0x8B65C, size: 0x8, addend: 0x0, symName: '__ZN50_$LT$T$u20$as$u20$core..convert..Into$LT$U$GT$$GT$4into17h3186731cd0a07227E', symObjAddr: 0x7D4, symBinAddr: 0x237F4, symSize: 0x14 }
  - { offsetInCU: 0x96E, offset: 0x8B69D, size: 0x8, addend: 0x0, symName: '__ZN50_$LT$T$u20$as$u20$core..convert..Into$LT$U$GT$$GT$4into17h67eff078e6ad4d73E', symObjAddr: 0x7E8, symBinAddr: 0x23808, symSize: 0x14 }
  - { offsetInCU: 0x9AF, offset: 0x8B6DE, size: 0x8, addend: 0x0, symName: '__ZN50_$LT$T$u20$as$u20$core..convert..Into$LT$U$GT$$GT$4into17h8039b8e9a6df3c6fE', symObjAddr: 0x7FC, symBinAddr: 0x2381C, symSize: 0x14 }
  - { offsetInCU: 0x9F0, offset: 0x8B71F, size: 0x8, addend: 0x0, symName: '__ZN50_$LT$T$u20$as$u20$core..convert..Into$LT$U$GT$$GT$4into17hd570a0bb7f54ab95E', symObjAddr: 0x810, symBinAddr: 0x23830, symSize: 0x14 }
  - { offsetInCU: 0x21E7, offset: 0x8CF16, size: 0x8, addend: 0x0, symName: __ZN4pyo310conversion15IntoPyObjectExt17into_bound_py_any17h478678419d3aef25E, symObjAddr: 0x0, symBinAddr: 0x23020, symSize: 0xE4 }
  - { offsetInCU: 0x2274, offset: 0x8CFA3, size: 0x8, addend: 0x0, symName: __ZN4pyo310conversion15IntoPyObjectExt17into_bound_py_any17h4d5b6a3c8dd0bc3aE, symObjAddr: 0xE4, symBinAddr: 0x23104, symSize: 0xE4 }
  - { offsetInCU: 0x2301, offset: 0x8D030, size: 0x8, addend: 0x0, symName: __ZN4pyo310conversion15IntoPyObjectExt17into_bound_py_any17h8a918e5c57c9f497E, symObjAddr: 0x1C8, symBinAddr: 0x231E8, symSize: 0xE4 }
  - { offsetInCU: 0x2394, offset: 0x8D0C3, size: 0x8, addend: 0x0, symName: '__ZN52_$LT$T$u20$as$u20$pyo3..conversion..FromPyObject$GT$13extract_bound17h200f82e8dc8dd6ebE', symObjAddr: 0x824, symBinAddr: 0x23844, symSize: 0x148 }
  - { offsetInCU: 0x2440, offset: 0x8D16F, size: 0x8, addend: 0x0, symName: '__ZN52_$LT$T$u20$as$u20$pyo3..conversion..FromPyObject$GT$13extract_bound17h58aff1f36ffd4b50E', symObjAddr: 0x96C, symBinAddr: 0x2398C, symSize: 0x150 }
  - { offsetInCU: 0x24EC, offset: 0x8D21B, size: 0x8, addend: 0x0, symName: '__ZN52_$LT$T$u20$as$u20$pyo3..conversion..FromPyObject$GT$13extract_bound17h6a478ec6250d43fdE', symObjAddr: 0xABC, symBinAddr: 0x23ADC, symSize: 0x154 }
  - { offsetInCU: 0x2598, offset: 0x8D2C7, size: 0x8, addend: 0x0, symName: '__ZN52_$LT$T$u20$as$u20$pyo3..conversion..FromPyObject$GT$13extract_bound17h781c435aee1739d5E', symObjAddr: 0xC10, symBinAddr: 0x23C30, symSize: 0x148 }
  - { offsetInCU: 0x2644, offset: 0x8D373, size: 0x8, addend: 0x0, symName: '__ZN52_$LT$T$u20$as$u20$pyo3..conversion..FromPyObject$GT$13extract_bound17hda2fb61732734dd0E', symObjAddr: 0xD58, symBinAddr: 0x23D78, symSize: 0x148 }
  - { offsetInCU: 0x26F6, offset: 0x8D425, size: 0x8, addend: 0x0, symName: '__ZN57_$LT$T$u20$as$u20$pyo3..conversion..FromPyObjectBound$GT$20from_py_object_bound17h009b8b68862e72e9E', symObjAddr: 0xF9C, symBinAddr: 0x23FBC, symSize: 0x34 }
  - { offsetInCU: 0x272D, offset: 0x8D45C, size: 0x8, addend: 0x0, symName: '__ZN57_$LT$T$u20$as$u20$pyo3..conversion..FromPyObjectBound$GT$20from_py_object_bound17h123b618b36c794daE', symObjAddr: 0xFD0, symBinAddr: 0x23FF0, symSize: 0x34 }
  - { offsetInCU: 0x2764, offset: 0x8D493, size: 0x8, addend: 0x0, symName: '__ZN57_$LT$T$u20$as$u20$pyo3..conversion..FromPyObjectBound$GT$20from_py_object_bound17h7399a7efe9336b10E', symObjAddr: 0x1004, symBinAddr: 0x24024, symSize: 0x34 }
  - { offsetInCU: 0x279B, offset: 0x8D4CA, size: 0x8, addend: 0x0, symName: '__ZN57_$LT$T$u20$as$u20$pyo3..conversion..FromPyObjectBound$GT$20from_py_object_bound17h80f94e3ffe542257E', symObjAddr: 0x1038, symBinAddr: 0x24058, symSize: 0x34 }
  - { offsetInCU: 0x27D2, offset: 0x8D501, size: 0x8, addend: 0x0, symName: '__ZN57_$LT$T$u20$as$u20$pyo3..conversion..FromPyObjectBound$GT$20from_py_object_bound17hd7b8c7a8611e9b1cE', symObjAddr: 0x106C, symBinAddr: 0x2408C, symSize: 0x34 }
  - { offsetInCU: 0x2815, offset: 0x8D544, size: 0x8, addend: 0x0, symName: __ZN4pyo311type_object10PyTypeInfo10is_type_of17h09a219092a41a359E, symObjAddr: 0x2AC, symBinAddr: 0x232CC, symSize: 0x50 }
  - { offsetInCU: 0x284A, offset: 0x8D579, size: 0x8, addend: 0x0, symName: __ZN4pyo311type_object10PyTypeInfo10is_type_of17h0e1988fc83dceea4E, symObjAddr: 0x2FC, symBinAddr: 0x2331C, symSize: 0x50 }
  - { offsetInCU: 0x287F, offset: 0x8D5AE, size: 0x8, addend: 0x0, symName: __ZN4pyo311type_object10PyTypeInfo10is_type_of17h3473c492c5cfa282E, symObjAddr: 0x34C, symBinAddr: 0x2336C, symSize: 0x50 }
  - { offsetInCU: 0x28B4, offset: 0x8D5E3, size: 0x8, addend: 0x0, symName: __ZN4pyo311type_object10PyTypeInfo10is_type_of17h402b78f9cb300250E, symObjAddr: 0x39C, symBinAddr: 0x233BC, symSize: 0x50 }
  - { offsetInCU: 0x28E9, offset: 0x8D618, size: 0x8, addend: 0x0, symName: __ZN4pyo311type_object10PyTypeInfo10is_type_of17h51e8769049f488b6E, symObjAddr: 0x3EC, symBinAddr: 0x2340C, symSize: 0x50 }
  - { offsetInCU: 0x291E, offset: 0x8D64D, size: 0x8, addend: 0x0, symName: __ZN4pyo311type_object10PyTypeInfo10is_type_of17hae77f0585099a2dcE, symObjAddr: 0x43C, symBinAddr: 0x2345C, symSize: 0x50 }
  - { offsetInCU: 0x2953, offset: 0x8D682, size: 0x8, addend: 0x0, symName: __ZN4pyo311type_object10PyTypeInfo10is_type_of17he7c6be52e65ecce8E, symObjAddr: 0x48C, symBinAddr: 0x234AC, symSize: 0x50 }
  - { offsetInCU: 0x298E, offset: 0x8D6BD, size: 0x8, addend: 0x0, symName: '__ZN52_$LT$T$u20$as$u20$pyo3..type_object..PyTypeCheck$GT$10type_check17h2bc65a24de6e2841E', symObjAddr: 0xEA0, symBinAddr: 0x23EC0, symSize: 0x24 }
  - { offsetInCU: 0x29C3, offset: 0x8D6F2, size: 0x8, addend: 0x0, symName: '__ZN52_$LT$T$u20$as$u20$pyo3..type_object..PyTypeCheck$GT$10type_check17h45c7b7b47cdbdd33E', symObjAddr: 0xEC4, symBinAddr: 0x23EE4, symSize: 0x24 }
  - { offsetInCU: 0x29F8, offset: 0x8D727, size: 0x8, addend: 0x0, symName: '__ZN52_$LT$T$u20$as$u20$pyo3..type_object..PyTypeCheck$GT$10type_check17h880991f33a3eee31E', symObjAddr: 0xEE8, symBinAddr: 0x23F08, symSize: 0x24 }
  - { offsetInCU: 0x2A2D, offset: 0x8D75C, size: 0x8, addend: 0x0, symName: '__ZN52_$LT$T$u20$as$u20$pyo3..type_object..PyTypeCheck$GT$10type_check17h914b122c3d08cf11E', symObjAddr: 0xF0C, symBinAddr: 0x23F2C, symSize: 0x24 }
  - { offsetInCU: 0x2A62, offset: 0x8D791, size: 0x8, addend: 0x0, symName: '__ZN52_$LT$T$u20$as$u20$pyo3..type_object..PyTypeCheck$GT$10type_check17hc26ba04400773715E', symObjAddr: 0xF30, symBinAddr: 0x23F50, symSize: 0x24 }
  - { offsetInCU: 0x2A97, offset: 0x8D7C6, size: 0x8, addend: 0x0, symName: '__ZN52_$LT$T$u20$as$u20$pyo3..type_object..PyTypeCheck$GT$10type_check17hf3611c8dbbb10a87E', symObjAddr: 0xF54, symBinAddr: 0x23F74, symSize: 0x24 }
  - { offsetInCU: 0x2ACC, offset: 0x8D7FB, size: 0x8, addend: 0x0, symName: '__ZN52_$LT$T$u20$as$u20$pyo3..type_object..PyTypeCheck$GT$10type_check17hfa1f08f815f3dfe4E', symObjAddr: 0xF78, symBinAddr: 0x23F98, symSize: 0x24 }
  - { offsetInCU: 0x2B0D, offset: 0x8D83C, size: 0x8, addend: 0x0, symName: '__ZN4pyo312pyclass_init130_$LT$impl$u20$pyo3..impl_..callback..IntoPyCallbackOutput$LT$pyo3..pyclass_init..PyClassInitializer$LT$T$GT$$GT$$u20$for$u20$U$GT$7convert17h0c9af42d4f798317E', symObjAddr: 0x4DC, symBinAddr: 0x234FC, symSize: 0x60 }
  - { offsetInCU: 0x2B6B, offset: 0x8D89A, size: 0x8, addend: 0x0, symName: '__ZN4pyo312pyclass_init130_$LT$impl$u20$pyo3..impl_..callback..IntoPyCallbackOutput$LT$pyo3..pyclass_init..PyClassInitializer$LT$T$GT$$GT$$u20$for$u20$U$GT$7convert17h1047b2cd5bde6854E', symObjAddr: 0x53C, symBinAddr: 0x2355C, symSize: 0x6C }
  - { offsetInCU: 0x2BC7, offset: 0x8D8F6, size: 0x8, addend: 0x0, symName: '__ZN4pyo312pyclass_init130_$LT$impl$u20$pyo3..impl_..callback..IntoPyCallbackOutput$LT$pyo3..pyclass_init..PyClassInitializer$LT$T$GT$$GT$$u20$for$u20$U$GT$7convert17h3de4b8f1c93cbe71E', symObjAddr: 0x5A8, symBinAddr: 0x235C8, symSize: 0x68 }
  - { offsetInCU: 0x2C25, offset: 0x8D954, size: 0x8, addend: 0x0, symName: '__ZN4pyo312pyclass_init130_$LT$impl$u20$pyo3..impl_..callback..IntoPyCallbackOutput$LT$pyo3..pyclass_init..PyClassInitializer$LT$T$GT$$GT$$u20$for$u20$U$GT$7convert17h59370d1be13c1b59E', symObjAddr: 0x610, symBinAddr: 0x23630, symSize: 0x60 }
  - { offsetInCU: 0x2C83, offset: 0x8D9B2, size: 0x8, addend: 0x0, symName: '__ZN4pyo312pyclass_init130_$LT$impl$u20$pyo3..impl_..callback..IntoPyCallbackOutput$LT$pyo3..pyclass_init..PyClassInitializer$LT$T$GT$$GT$$u20$for$u20$U$GT$7convert17hd3d7c22ad1a48551E', symObjAddr: 0x670, symBinAddr: 0x23690, symSize: 0x4C }
  - { offsetInCU: 0x2CDE, offset: 0x8DA0D, size: 0x8, addend: 0x0, symName: '__ZN4pyo312pyclass_init130_$LT$impl$u20$pyo3..impl_..callback..IntoPyCallbackOutput$LT$pyo3..pyclass_init..PyClassInitializer$LT$T$GT$$GT$$u20$for$u20$U$GT$7convert17he4a6a4d610fbd06eE', symObjAddr: 0x6BC, symBinAddr: 0x236DC, symSize: 0x5C }
  - { offsetInCU: 0x3175, offset: 0x8DEA4, size: 0x8, addend: 0x0, symName: __ZN4pyo35impl_7pyclass11PyClassImpl11dict_offset17h2596082aa05be595E, symObjAddr: 0x718, symBinAddr: 0x23738, symSize: 0x8 }
  - { offsetInCU: 0x319C, offset: 0x8DECB, size: 0x8, addend: 0x0, symName: __ZN4pyo35impl_7pyclass11PyClassImpl11dict_offset17h814d531cd12431c7E, symObjAddr: 0x720, symBinAddr: 0x23740, symSize: 0x8 }
  - { offsetInCU: 0x31C3, offset: 0x8DEF2, size: 0x8, addend: 0x0, symName: __ZN4pyo35impl_7pyclass11PyClassImpl11dict_offset17h8761c17d878338c2E, symObjAddr: 0x728, symBinAddr: 0x23748, symSize: 0x8 }
  - { offsetInCU: 0x31EA, offset: 0x8DF19, size: 0x8, addend: 0x0, symName: __ZN4pyo35impl_7pyclass11PyClassImpl11dict_offset17h9d1e802a2bf077aeE, symObjAddr: 0x730, symBinAddr: 0x23750, symSize: 0x8 }
  - { offsetInCU: 0x3211, offset: 0x8DF40, size: 0x8, addend: 0x0, symName: __ZN4pyo35impl_7pyclass11PyClassImpl11dict_offset17hbc9a573c889480daE, symObjAddr: 0x738, symBinAddr: 0x23758, symSize: 0x8 }
  - { offsetInCU: 0x3238, offset: 0x8DF67, size: 0x8, addend: 0x0, symName: __ZN4pyo35impl_7pyclass11PyClassImpl11dict_offset17hcaba70a22a9b5a90E, symObjAddr: 0x740, symBinAddr: 0x23760, symSize: 0x8 }
  - { offsetInCU: 0x325F, offset: 0x8DF8E, size: 0x8, addend: 0x0, symName: __ZN4pyo35impl_7pyclass11PyClassImpl11dict_offset17hd8db2cbc63a94695E, symObjAddr: 0x748, symBinAddr: 0x23768, symSize: 0x8 }
  - { offsetInCU: 0x3286, offset: 0x8DFB5, size: 0x8, addend: 0x0, symName: __ZN4pyo35impl_7pyclass11PyClassImpl15weaklist_offset17h2d3e028100e9f5baE, symObjAddr: 0x750, symBinAddr: 0x23770, symSize: 0x8 }
  - { offsetInCU: 0x32AD, offset: 0x8DFDC, size: 0x8, addend: 0x0, symName: __ZN4pyo35impl_7pyclass11PyClassImpl15weaklist_offset17h65f62ed515f02ef5E, symObjAddr: 0x758, symBinAddr: 0x23778, symSize: 0x8 }
  - { offsetInCU: 0x32D4, offset: 0x8E003, size: 0x8, addend: 0x0, symName: __ZN4pyo35impl_7pyclass11PyClassImpl15weaklist_offset17h9cbc0055f25d20c4E, symObjAddr: 0x760, symBinAddr: 0x23780, symSize: 0x8 }
  - { offsetInCU: 0x32FB, offset: 0x8E02A, size: 0x8, addend: 0x0, symName: __ZN4pyo35impl_7pyclass11PyClassImpl15weaklist_offset17haca97f81728a19c5E, symObjAddr: 0x768, symBinAddr: 0x23788, symSize: 0x8 }
  - { offsetInCU: 0x3322, offset: 0x8E051, size: 0x8, addend: 0x0, symName: __ZN4pyo35impl_7pyclass11PyClassImpl15weaklist_offset17had51c4c68f453405E, symObjAddr: 0x770, symBinAddr: 0x23790, symSize: 0x8 }
  - { offsetInCU: 0x3349, offset: 0x8E078, size: 0x8, addend: 0x0, symName: __ZN4pyo35impl_7pyclass11PyClassImpl15weaklist_offset17hc23e4d54f597f4deE, symObjAddr: 0x778, symBinAddr: 0x23798, symSize: 0x8 }
  - { offsetInCU: 0x3370, offset: 0x8E09F, size: 0x8, addend: 0x0, symName: __ZN4pyo35impl_7pyclass11PyClassImpl15weaklist_offset17he870866eb3064124E, symObjAddr: 0x780, symBinAddr: 0x237A0, symSize: 0x8 }
  - { offsetInCU: 0x3475, offset: 0x8E1A4, size: 0x8, addend: 0x0, symName: '__ZN80_$LT$T$u20$as$u20$pyo3..impl_..extract_argument..PyFunctionArgument$LT$_$GT$$GT$7extract17h814306c192bb556cE', symObjAddr: 0x13AC, symBinAddr: 0x243CC, symSize: 0x28 }
  - { offsetInCU: 0x34B4, offset: 0x8E1E3, size: 0x8, addend: 0x0, symName: '__ZN80_$LT$T$u20$as$u20$pyo3..impl_..extract_argument..PyFunctionArgument$LT$_$GT$$GT$7extract17h9801af30d24f640fE', symObjAddr: 0x13D4, symBinAddr: 0x243F4, symSize: 0x28 }
  - { offsetInCU: 0x34F3, offset: 0x8E222, size: 0x8, addend: 0x0, symName: '__ZN80_$LT$T$u20$as$u20$pyo3..impl_..extract_argument..PyFunctionArgument$LT$_$GT$$GT$7extract17hb23d01a34f5e3eeeE', symObjAddr: 0x13FC, symBinAddr: 0x2441C, symSize: 0x28 }
  - { offsetInCU: 0x3532, offset: 0x8E261, size: 0x8, addend: 0x0, symName: '__ZN80_$LT$T$u20$as$u20$pyo3..impl_..extract_argument..PyFunctionArgument$LT$_$GT$$GT$7extract17hb91f350cb45105a2E', symObjAddr: 0x1424, symBinAddr: 0x24444, symSize: 0x28 }
  - { offsetInCU: 0x3571, offset: 0x8E2A0, size: 0x8, addend: 0x0, symName: '__ZN80_$LT$T$u20$as$u20$pyo3..impl_..extract_argument..PyFunctionArgument$LT$_$GT$$GT$7extract17hb9fdbc85adcaca0cE', symObjAddr: 0x144C, symBinAddr: 0x2446C, symSize: 0x28 }
  - { offsetInCU: 0x3D38, offset: 0x8EA67, size: 0x8, addend: 0x0, symName: '__ZN7_native9py_config12PyGridConfig20__pymethod___new____28_$u7b$$u7b$closure$u7d$$u7d$17h15213bcf9aaf7e90E', symObjAddr: 0x10A0, symBinAddr: 0x240C0, symSize: 0x18 }
  - { offsetInCU: 0x3D62, offset: 0x8EA91, size: 0x8, addend: 0x0, symName: '__ZN7_native9py_config12PyGridConfig20__pymethod___new____28_$u7b$$u7b$closure$u7d$$u7d$17hb5bda8f51d8a1b8cE', symObjAddr: 0x10B8, symBinAddr: 0x240D8, symSize: 0x14 }
  - { offsetInCU: 0x3DA6, offset: 0x8EAD5, size: 0x8, addend: 0x0, symName: '__ZN7_native9py_config12PyGridConfig3new28_$u7b$$u7b$closure$u7d$$u7d$17hd0a0db219ed116feE', symObjAddr: 0x10CC, symBinAddr: 0x240EC, symSize: 0x6C }
  - { offsetInCU: 0x3DF3, offset: 0x8EB22, size: 0x8, addend: 0x0, symName: '__ZN7_native9py_config14PyOpticsConfig20__pymethod___new____28_$u7b$$u7b$closure$u7d$$u7d$17h0fbc42e9d60ef80dE', symObjAddr: 0x1138, symBinAddr: 0x24158, symSize: 0x14 }
  - { offsetInCU: 0x3E1B, offset: 0x8EB4A, size: 0x8, addend: 0x0, symName: '__ZN7_native9py_config14PyOpticsConfig20__pymethod___new____28_$u7b$$u7b$closure$u7d$$u7d$17h6e29bc8bbd6c75f8E', symObjAddr: 0x114C, symBinAddr: 0x2416C, symSize: 0x14 }
  - { offsetInCU: 0x3E43, offset: 0x8EB72, size: 0x8, addend: 0x0, symName: '__ZN7_native9py_config14PyOpticsConfig20__pymethod___new____28_$u7b$$u7b$closure$u7d$$u7d$17hbcca3c75fdbf299fE', symObjAddr: 0x1160, symBinAddr: 0x24180, symSize: 0x24 }
  - { offsetInCU: 0x3E8C, offset: 0x8EBBB, size: 0x8, addend: 0x0, symName: '__ZN7_native9py_config14PyResistConfig20__pymethod___new____28_$u7b$$u7b$closure$u7d$$u7d$17h2c6d9e70a8118d74E', symObjAddr: 0x1184, symBinAddr: 0x241A4, symSize: 0x1C }
  - { offsetInCU: 0x3EB4, offset: 0x8EBE3, size: 0x8, addend: 0x0, symName: '__ZN7_native9py_config14PyResistConfig20__pymethod___new____28_$u7b$$u7b$closure$u7d$$u7d$17h3355417eebfe5d87E', symObjAddr: 0x11A0, symBinAddr: 0x241C0, symSize: 0x20 }
  - { offsetInCU: 0x3EDC, offset: 0x8EC0B, size: 0x8, addend: 0x0, symName: '__ZN7_native9py_config14PyResistConfig20__pymethod___new____28_$u7b$$u7b$closure$u7d$$u7d$17h370a35a6524f3d0cE', symObjAddr: 0x11C0, symBinAddr: 0x241E0, symSize: 0x20 }
  - { offsetInCU: 0x3F04, offset: 0x8EC33, size: 0x8, addend: 0x0, symName: '__ZN7_native9py_config14PyResistConfig20__pymethod___new____28_$u7b$$u7b$closure$u7d$$u7d$17h5a0d6690fe874022E', symObjAddr: 0x11E0, symBinAddr: 0x24200, symSize: 0x20 }
  - { offsetInCU: 0x3F2C, offset: 0x8EC5B, size: 0x8, addend: 0x0, symName: '__ZN7_native9py_config14PyResistConfig20__pymethod___new____28_$u7b$$u7b$closure$u7d$$u7d$17he85bb66cae4ce73aE', symObjAddr: 0x1200, symBinAddr: 0x24220, symSize: 0x24 }
  - { offsetInCU: 0x3F54, offset: 0x8EC83, size: 0x8, addend: 0x0, symName: '__ZN7_native9py_config14PyResistConfig20__pymethod___new____28_$u7b$$u7b$closure$u7d$$u7d$17hf66101879604d75eE', symObjAddr: 0x1224, symBinAddr: 0x24244, symSize: 0x14 }
  - { offsetInCU: 0x3FB2, offset: 0x8ECE1, size: 0x8, addend: 0x0, symName: '__ZN7_native9py_config14PySourceConfig20__pymethod___new____28_$u7b$$u7b$closure$u7d$$u7d$17h75e9ad6d0452d4efE', symObjAddr: 0x1238, symBinAddr: 0x24258, symSize: 0x20 }
  - { offsetInCU: 0x3FDA, offset: 0x8ED09, size: 0x8, addend: 0x0, symName: '__ZN7_native9py_config14PySourceConfig20__pymethod___new____28_$u7b$$u7b$closure$u7d$$u7d$17h762d9a263d1cde5aE', symObjAddr: 0x1258, symBinAddr: 0x24278, symSize: 0x18 }
  - { offsetInCU: 0x4002, offset: 0x8ED31, size: 0x8, addend: 0x0, symName: '__ZN7_native9py_config14PySourceConfig20__pymethod___new____28_$u7b$$u7b$closure$u7d$$u7d$17h9b2ce0d4f31baa2fE', symObjAddr: 0x1270, symBinAddr: 0x24290, symSize: 0x24 }
  - { offsetInCU: 0x402A, offset: 0x8ED59, size: 0x8, addend: 0x0, symName: '__ZN7_native9py_config14PySourceConfig20__pymethod___new____28_$u7b$$u7b$closure$u7d$$u7d$17h9d47c5d67941b8d6E', symObjAddr: 0x1294, symBinAddr: 0x242B4, symSize: 0x1C }
  - { offsetInCU: 0x4074, offset: 0x8EDA3, size: 0x8, addend: 0x0, symName: '__ZN7_native9py_config14PySourceConfig21__pymethod_f2_laser__28_$u7b$$u7b$closure$u7d$$u7d$17h89f5c95e60c3470eE', symObjAddr: 0x12B0, symBinAddr: 0x242D0, symSize: 0x1C }
  - { offsetInCU: 0x40A9, offset: 0x8EDD8, size: 0x8, addend: 0x0, symName: '__ZN7_native9py_config14PySourceConfig22__pymethod_ar2_laser__28_$u7b$$u7b$closure$u7d$$u7d$17h5d5374982740cd93E', symObjAddr: 0x12CC, symBinAddr: 0x242EC, symSize: 0x1C }
  - { offsetInCU: 0x40E4, offset: 0x8EE13, size: 0x8, addend: 0x0, symName: '__ZN7_native9py_config15PyProcessConfig20__pymethod___new____28_$u7b$$u7b$closure$u7d$$u7d$17h24572c1d744f4f2bE', symObjAddr: 0x12E8, symBinAddr: 0x24308, symSize: 0x14 }
  - { offsetInCU: 0x410E, offset: 0x8EE3D, size: 0x8, addend: 0x0, symName: '__ZN7_native9py_config15PyProcessConfig20__pymethod___new____28_$u7b$$u7b$closure$u7d$$u7d$17h545904444d340748E', symObjAddr: 0x12FC, symBinAddr: 0x2431C, symSize: 0x18 }
  - { offsetInCU: 0x4138, offset: 0x8EE67, size: 0x8, addend: 0x0, symName: '__ZN7_native9py_config15PyProcessConfig20__pymethod___new____28_$u7b$$u7b$closure$u7d$$u7d$17hb16847dbb623d637E', symObjAddr: 0x1314, symBinAddr: 0x24334, symSize: 0x14 }
  - { offsetInCU: 0x4183, offset: 0x8EEB2, size: 0x8, addend: 0x0, symName: '__ZN7_native9py_config15PyProcessConfig25__pymethod_set_focus_nm__28_$u7b$$u7b$closure$u7d$$u7d$17hc142c81d206f69caE', symObjAddr: 0x1328, symBinAddr: 0x24348, symSize: 0x2C }
  - { offsetInCU: 0x41B8, offset: 0x8EEE7, size: 0x8, addend: 0x0, symName: '__ZN7_native9py_config15PyProcessConfig28__pymethod_set_dose_mj_cm2__28_$u7b$$u7b$closure$u7d$$u7d$17h60b7d4e947800ca1E', symObjAddr: 0x1354, symBinAddr: 0x24374, symSize: 0x2C }
  - { offsetInCU: 0x41ED, offset: 0x8EF1C, size: 0x8, addend: 0x0, symName: '__ZN7_native9py_config15PyProcessConfig35__pymethod_set_development_time_s__28_$u7b$$u7b$closure$u7d$$u7d$17h68795e5a24f5d2e6E', symObjAddr: 0x1380, symBinAddr: 0x243A0, symSize: 0x2C }
  - { offsetInCU: 0x4228, offset: 0x8EF57, size: 0x8, addend: 0x0, symName: '__ZN86_$LT$_native..py_config..PyGridConfig$u20$as$u20$pyo3..impl_..pyclass..PyClassImpl$GT$3doc28_$u7b$$u7b$closure$u7d$$u7d$17h98ebd0a4d3a49a9aE', symObjAddr: 0x1474, symBinAddr: 0x24494, symSize: 0x54 }
  - { offsetInCU: 0x4283, offset: 0x8EFB2, size: 0x8, addend: 0x0, symName: '__ZN86_$LT$_native..py_config..PyMaskConfig$u20$as$u20$pyo3..impl_..pyclass..PyClassImpl$GT$3doc28_$u7b$$u7b$closure$u7d$$u7d$17h689356a68fd6d4b6E', symObjAddr: 0x14C8, symBinAddr: 0x244E8, symSize: 0x58 }
  - { offsetInCU: 0x42DB, offset: 0x8F00A, size: 0x8, addend: 0x0, symName: '__ZN88_$LT$_native..py_config..PyOpticsConfig$u20$as$u20$pyo3..impl_..pyclass..PyClassImpl$GT$3doc28_$u7b$$u7b$closure$u7d$$u7d$17h6b596f8714f1eda3E', symObjAddr: 0x1520, symBinAddr: 0x24540, symSize: 0x54 }
  - { offsetInCU: 0x4333, offset: 0x8F062, size: 0x8, addend: 0x0, symName: '__ZN88_$LT$_native..py_config..PyResistConfig$u20$as$u20$pyo3..impl_..pyclass..PyClassImpl$GT$3doc28_$u7b$$u7b$closure$u7d$$u7d$17h126b3db8e8023f3eE', symObjAddr: 0x1574, symBinAddr: 0x24594, symSize: 0x54 }
  - { offsetInCU: 0x438B, offset: 0x8F0BA, size: 0x8, addend: 0x0, symName: '__ZN88_$LT$_native..py_config..PySourceConfig$u20$as$u20$pyo3..impl_..pyclass..PyClassImpl$GT$3doc28_$u7b$$u7b$closure$u7d$$u7d$17ha094cbda90138686E', symObjAddr: 0x15C8, symBinAddr: 0x245E8, symSize: 0x54 }
  - { offsetInCU: 0x43E8, offset: 0x8F117, size: 0x8, addend: 0x0, symName: '__ZN89_$LT$_native..py_config..PyProcessConfig$u20$as$u20$pyo3..impl_..pyclass..PyClassImpl$GT$10items_iter15INTRINSIC_ITEMS28_$u7b$$u7b$closure$u7d$$u7d$17h6c1e58cf8e168491E', symObjAddr: 0x161C, symBinAddr: 0x2463C, symSize: 0x44 }
  - { offsetInCU: 0x4412, offset: 0x8F141, size: 0x8, addend: 0x0, symName: '__ZN89_$LT$_native..py_config..PyProcessConfig$u20$as$u20$pyo3..impl_..pyclass..PyClassImpl$GT$10items_iter15INTRINSIC_ITEMS28_$u7b$$u7b$closure$u7d$$u7d$17hda58448e891367acE', symObjAddr: 0x1660, symBinAddr: 0x24680, symSize: 0x44 }
  - { offsetInCU: 0x443C, offset: 0x8F16B, size: 0x8, addend: 0x0, symName: '__ZN89_$LT$_native..py_config..PyProcessConfig$u20$as$u20$pyo3..impl_..pyclass..PyClassImpl$GT$10items_iter15INTRINSIC_ITEMS28_$u7b$$u7b$closure$u7d$$u7d$17hf5ffc5e84772ae27E', symObjAddr: 0x16A4, symBinAddr: 0x246C4, symSize: 0x44 }
  - { offsetInCU: 0x4482, offset: 0x8F1B1, size: 0x8, addend: 0x0, symName: '__ZN89_$LT$_native..py_config..PyProcessConfig$u20$as$u20$pyo3..impl_..pyclass..PyClassImpl$GT$3doc28_$u7b$$u7b$closure$u7d$$u7d$17h6598c7a40a035631E', symObjAddr: 0x16E8, symBinAddr: 0x24708, symSize: 0x54 }
  - { offsetInCU: 0x44DA, offset: 0x8F209, size: 0x8, addend: 0x0, symName: '__ZN91_$LT$_native..py_config..PyFilmStackConfig$u20$as$u20$pyo3..impl_..pyclass..PyClassImpl$GT$3doc28_$u7b$$u7b$closure$u7d$$u7d$17h232e9743db8d0cb6E', symObjAddr: 0x173C, symBinAddr: 0x2475C, symSize: 0x54 }
  - { offsetInCU: 0x1E, offset: 0x906E0, size: 0x8, addend: 0x0, symName: '__ZN59_$LT$alloc..alloc..Global$u20$as$u20$core..clone..Clone$GT$5clone17h7822f4c93398a10fE', symObjAddr: 0x0, symBinAddr: 0x247B0, symSize: 0x10 }
  - { offsetInCU: 0xBFD, offset: 0x912BF, size: 0x8, addend: 0x0, symName: '__ZN59_$LT$alloc..alloc..Global$u20$as$u20$core..clone..Clone$GT$5clone17h7822f4c93398a10fE', symObjAddr: 0x0, symBinAddr: 0x247B0, symSize: 0x10 }
  - { offsetInCU: 0xD52, offset: 0x91414, size: 0x8, addend: 0x0, symName: __ZN5alloc5alloc15exchange_malloc17hb496e68e8740530fE, symObjAddr: 0x10, symBinAddr: 0x247C0, symSize: 0xB0 }
  - { offsetInCU: 0x10DE, offset: 0x917A0, size: 0x8, addend: 0x0, symName: __ZN5alloc5alloc6Global18alloc_impl_runtime17h8861a1fdccb05d64E, symObjAddr: 0xC0, symBinAddr: 0x24870, symSize: 0x194 }
  - { offsetInCU: 0x1619, offset: 0x91CDB, size: 0x8, addend: 0x0, symName: __ZN5alloc5alloc6Global19shrink_impl_runtime17h358ef96ff63a5506E, symObjAddr: 0x254, symBinAddr: 0x24A04, symSize: 0x304 }
  - { offsetInCU: 0x1E, offset: 0x9238A, size: 0x8, addend: 0x0, symName: __ZN5alloc3fmt6format17h74a1851825c5eb74E, symObjAddr: 0x0, symBinAddr: 0x24D08, symSize: 0xD8 }
  - { offsetInCU: 0x536, offset: 0x928A2, size: 0x8, addend: 0x0, symName: __ZN5alloc3fmt6format17h74a1851825c5eb74E, symObjAddr: 0x0, symBinAddr: 0x24D08, symSize: 0xD8 }
  - { offsetInCU: 0x1E, offset: 0x92A52, size: 0x8, addend: 0x0, symName: '__ZN4core4iter6traits8iterator8Iterator8for_each4call28_$u7b$$u7b$closure$u7d$$u7d$17h359d75a7d020f216E', symObjAddr: 0x0, symBinAddr: 0x24DE0, symSize: 0x28 }
  - { offsetInCU: 0x4E, offset: 0x92A82, size: 0x8, addend: 0x0, symName: '__ZN4core4iter6traits8iterator8Iterator8for_each4call28_$u7b$$u7b$closure$u7d$$u7d$17h359d75a7d020f216E', symObjAddr: 0x0, symBinAddr: 0x24DE0, symSize: 0x28 }
  - { offsetInCU: 0xA6, offset: 0x92ADA, size: 0x8, addend: 0x0, symName: '__ZN4core4iter6traits8iterator8Iterator8for_each4call28_$u7b$$u7b$closure$u7d$$u7d$17h4d4146de6a259e5bE', symObjAddr: 0x28, symBinAddr: 0x24E08, symSize: 0x28 }
  - { offsetInCU: 0xFE, offset: 0x92B32, size: 0x8, addend: 0x0, symName: '__ZN4core4iter6traits8iterator8Iterator8for_each4call28_$u7b$$u7b$closure$u7d$$u7d$17h5305ea46668dd4e7E', symObjAddr: 0x50, symBinAddr: 0x24E30, symSize: 0x28 }
  - { offsetInCU: 0x156, offset: 0x92B8A, size: 0x8, addend: 0x0, symName: '__ZN4core4iter6traits8iterator8Iterator8for_each4call28_$u7b$$u7b$closure$u7d$$u7d$17h6a6ccc42ad4586e7E', symObjAddr: 0x78, symBinAddr: 0x24E58, symSize: 0x2C }
  - { offsetInCU: 0x1AE, offset: 0x92BE2, size: 0x8, addend: 0x0, symName: '__ZN4core4iter6traits8iterator8Iterator8for_each4call28_$u7b$$u7b$closure$u7d$$u7d$17h6c0ee681a17166d8E', symObjAddr: 0xA4, symBinAddr: 0x24E84, symSize: 0x28 }
  - { offsetInCU: 0x206, offset: 0x92C3A, size: 0x8, addend: 0x0, symName: '__ZN4core4iter6traits8iterator8Iterator8for_each4call28_$u7b$$u7b$closure$u7d$$u7d$17h826cdd5b19dc2034E', symObjAddr: 0xCC, symBinAddr: 0x24EAC, symSize: 0x28 }
  - { offsetInCU: 0x25E, offset: 0x92C92, size: 0x8, addend: 0x0, symName: '__ZN4core4iter6traits8iterator8Iterator8for_each4call28_$u7b$$u7b$closure$u7d$$u7d$17hf3777714baa2bc47E', symObjAddr: 0xF4, symBinAddr: 0x24ED4, symSize: 0x28 }
  - { offsetInCU: 0x1E, offset: 0x92EAC, size: 0x8, addend: 0x0, symName: __ZN4pyo35types4list17try_new_from_iter17h3a315d381d6d3180E, symObjAddr: 0x0, symBinAddr: 0x24EFC, symSize: 0x2C8 }
  - { offsetInCU: 0x17BB, offset: 0x94649, size: 0x8, addend: 0x0, symName: __ZN4pyo35types4list17try_new_from_iter17h3a315d381d6d3180E, symObjAddr: 0x0, symBinAddr: 0x24EFC, symSize: 0x2C8 }
  - { offsetInCU: 0x18E1, offset: 0x9476F, size: 0x8, addend: 0x0, symName: '__ZN4pyo35types4list17try_new_from_iter28_$u7b$$u7b$closure$u7d$$u7d$17h8dc9ff68a6406533E', symObjAddr: 0x2C8, symBinAddr: 0x251C4, symSize: 0x114 }
  - { offsetInCU: 0x1E, offset: 0x952EA, size: 0x8, addend: 0x0, symName: '__ZN4core3f6421_$LT$impl$u20$f64$GT$3abs17h03a334546433a4cdE', symObjAddr: 0x0, symBinAddr: 0x252D8, symSize: 0x1C }
  - { offsetInCU: 0x3A, offset: 0x95306, size: 0x8, addend: 0x0, symName: '__ZN4core3f6421_$LT$impl$u20$f64$GT$3abs17h03a334546433a4cdE', symObjAddr: 0x0, symBinAddr: 0x252D8, symSize: 0x1C }
  - { offsetInCU: 0xD9, offset: 0x953A5, size: 0x8, addend: 0x0, symName: '__ZN4core3f6421_$LT$impl$u20$f64$GT$5clamp17h7b9da8891255dce2E', symObjAddr: 0x1C, symBinAddr: 0x252F4, symSize: 0x104 }
  - { offsetInCU: 0x1E, offset: 0x95893, size: 0x8, addend: 0x0, symName: '__ZN8nalgebra4base12construction205_$LT$impl$u20$nalgebra..base..matrix..Matrix$LT$T$C$R$C$C$C$$LT$nalgebra..base..default_allocator..DefaultAllocator$u20$as$u20$nalgebra..base..allocator..Allocator$LT$R$C$C$GT$$GT$..Buffer$LT$T$GT$$GT$$GT$13zeros_generic17h9f8d0606a4e44ac1E', symObjAddr: 0x0, symBinAddr: 0x253F8, symSize: 0x40 }
  - { offsetInCU: 0x48F, offset: 0x95D04, size: 0x8, addend: 0x0, symName: '__ZN8nalgebra4base12construction205_$LT$impl$u20$nalgebra..base..matrix..Matrix$LT$T$C$R$C$C$C$$LT$nalgebra..base..default_allocator..DefaultAllocator$u20$as$u20$nalgebra..base..allocator..Allocator$LT$R$C$C$GT$$GT$..Buffer$LT$T$GT$$GT$$GT$13zeros_generic17h9f8d0606a4e44ac1E', symObjAddr: 0x0, symBinAddr: 0x253F8, symSize: 0x40 }
  - { offsetInCU: 0x4DA, offset: 0x95D4F, size: 0x8, addend: 0x0, symName: '__ZN8nalgebra4base12construction205_$LT$impl$u20$nalgebra..base..matrix..Matrix$LT$T$C$R$C$C$C$$LT$nalgebra..base..default_allocator..DefaultAllocator$u20$as$u20$nalgebra..base..allocator..Allocator$LT$R$C$C$GT$$GT$..Buffer$LT$T$GT$$GT$$GT$20from_element_generic17h1399454479bd2a0cE', symObjAddr: 0x40, symBinAddr: 0x25438, symSize: 0x120 }
  - { offsetInCU: 0x5B8, offset: 0x95E2D, size: 0x8, addend: 0x0, symName: '__ZN8nalgebra4base12construction205_$LT$impl$u20$nalgebra..base..matrix..Matrix$LT$T$C$R$C$C$C$$LT$nalgebra..base..default_allocator..DefaultAllocator$u20$as$u20$nalgebra..base..allocator..Allocator$LT$R$C$C$GT$$GT$..Buffer$LT$T$GT$$GT$$GT$21from_iterator_generic17h26046a98bad223b8E', symObjAddr: 0x160, symBinAddr: 0x25558, symSize: 0x74 }
  - { offsetInCU: 0x658, offset: 0x95ECD, size: 0x8, addend: 0x0, symName: '__ZN8nalgebra4base12construction240_$LT$impl$u20$nalgebra..base..matrix..Matrix$LT$T$C$nalgebra..base..dimension..Dyn$C$nalgebra..base..dimension..Dyn$C$nalgebra..base..vec_storage..VecStorage$LT$T$C$nalgebra..base..dimension..Dyn$C$nalgebra..base..dimension..Dyn$GT$$GT$$GT$5zeros17hbf3f02cee288e77aE', symObjAddr: 0x1D4, symBinAddr: 0x255CC, symSize: 0x24 }
  - { offsetInCU: 0x1E, offset: 0x95F26, size: 0x8, addend: 0x0, symName: '__ZN103_$LT$alloc..vec..into_iter..IntoIter$LT$T$C$A$GT$$u20$as$u20$core..iter..traits..iterator..Iterator$GT$4next17h6961d4da0f4afe74E', symObjAddr: 0x0, symBinAddr: 0x255F0, symSize: 0x94 }
  - { offsetInCU: 0x20F3, offset: 0x97FFB, size: 0x8, addend: 0x0, symName: __ZN4core4iter6traits10exact_size17ExactSizeIterator3len17hf1aab2b4109bb4f3E, symObjAddr: 0x6E4, symBinAddr: 0x25CD4, symSize: 0xB8 }
  - { offsetInCU: 0x2375, offset: 0x9827D, size: 0x8, addend: 0x0, symName: __ZN4core4iter6traits8iterator8Iterator3map17h6641df8731ef8712E, symObjAddr: 0x79C, symBinAddr: 0x25D8C, symSize: 0x28 }
  - { offsetInCU: 0x23E2, offset: 0x982EA, size: 0x8, addend: 0x0, symName: __ZN4core4iter6traits8iterator8Iterator3map17h7b63f371071d8f65E, symObjAddr: 0x7C4, symBinAddr: 0x25DB4, symSize: 0x28 }
  - { offsetInCU: 0x317F, offset: 0x99087, size: 0x8, addend: 0x0, symName: '__ZN103_$LT$alloc..vec..into_iter..IntoIter$LT$T$C$A$GT$$u20$as$u20$core..iter..traits..iterator..Iterator$GT$4next17h6961d4da0f4afe74E', symObjAddr: 0x0, symBinAddr: 0x255F0, symSize: 0x94 }
  - { offsetInCU: 0x32D9, offset: 0x991E1, size: 0x8, addend: 0x0, symName: '__ZN103_$LT$alloc..vec..into_iter..IntoIter$LT$T$C$A$GT$$u20$as$u20$core..iter..traits..iterator..Iterator$GT$4next17hd16e2ce9b1add4dbE', symObjAddr: 0x94, symBinAddr: 0x25684, symSize: 0xAC }
  - { offsetInCU: 0x3437, offset: 0x9933F, size: 0x8, addend: 0x0, symName: '__ZN103_$LT$alloc..vec..into_iter..IntoIter$LT$T$C$A$GT$$u20$as$u20$core..iter..traits..iterator..Iterator$GT$8try_fold17h629040e934e8d518E', symObjAddr: 0x140, symBinAddr: 0x25730, symSize: 0x19C }
  - { offsetInCU: 0x3617, offset: 0x9951F, size: 0x8, addend: 0x0, symName: '__ZN103_$LT$alloc..vec..into_iter..IntoIter$LT$T$C$A$GT$$u20$as$u20$core..iter..traits..iterator..Iterator$GT$8try_fold17hcc4518037b1dac56E', symObjAddr: 0x2DC, symBinAddr: 0x258CC, symSize: 0x1D8 }
  - { offsetInCU: 0x37DC, offset: 0x996E4, size: 0x8, addend: 0x0, symName: '__ZN103_$LT$alloc..vec..into_iter..IntoIter$LT$T$C$A$GT$$u20$as$u20$core..iter..traits..iterator..Iterator$GT$9size_hint17h8e250eec7d6f7254E', symObjAddr: 0x4B4, symBinAddr: 0x25AA4, symSize: 0xB4 }
  - { offsetInCU: 0x38F5, offset: 0x997FD, size: 0x8, addend: 0x0, symName: '__ZN103_$LT$alloc..vec..into_iter..IntoIter$LT$T$C$A$GT$$u20$as$u20$core..iter..traits..iterator..Iterator$GT$9size_hint17hb6b2ce208bdf3e39E', symObjAddr: 0x568, symBinAddr: 0x25B58, symSize: 0xB4 }
  - { offsetInCU: 0x3A0E, offset: 0x99916, size: 0x8, addend: 0x0, symName: '__ZN103_$LT$alloc..vec..into_iter..IntoIter$LT$T$C$A$GT$$u20$as$u20$core..iter..traits..iterator..Iterator$GT$9size_hint17he61a3bc3563bbe9dE', symObjAddr: 0x61C, symBinAddr: 0x25C0C, symSize: 0xB4 }
  - { offsetInCU: 0x3B2D, offset: 0x99A35, size: 0x8, addend: 0x0, symName: '__ZN104_$LT$alloc..vec..into_iter..IntoIter$LT$T$GT$$u20$as$u20$alloc..vec..in_place_collect..AsVecIntoIter$GT$12as_into_iter17h243b24a320403ba3E', symObjAddr: 0x6D0, symBinAddr: 0x25CC0, symSize: 0x14 }
  - { offsetInCU: 0x3D2B, offset: 0x99C33, size: 0x8, addend: 0x0, symName: '__ZN97_$LT$alloc..vec..into_iter..IntoIter$LT$T$C$A$GT$$u20$as$u20$core..iter..adapters..SourceIter$GT$8as_inner17h49e7cc74e9ca91f8E', symObjAddr: 0xAD0, symBinAddr: 0x260C0, symSize: 0x14 }
  - { offsetInCU: 0x4281, offset: 0x9A189, size: 0x8, addend: 0x0, symName: '__ZN5alloc3vec9into_iter21IntoIter$LT$T$C$A$GT$16as_raw_mut_slice17h2d6b3d01c52e298fE', symObjAddr: 0x7EC, symBinAddr: 0x25DDC, symSize: 0xCC }
  - { offsetInCU: 0x43D1, offset: 0x9A2D9, size: 0x8, addend: 0x0, symName: '__ZN5alloc3vec9into_iter21IntoIter$LT$T$C$A$GT$16as_raw_mut_slice17h6c00dcaca2909af4E', symObjAddr: 0x8B8, symBinAddr: 0x25EA8, symSize: 0xCC }
  - { offsetInCU: 0x4521, offset: 0x9A429, size: 0x8, addend: 0x0, symName: '__ZN5alloc3vec9into_iter21IntoIter$LT$T$C$A$GT$16as_raw_mut_slice17hbd027bc50519ca2eE', symObjAddr: 0x984, symBinAddr: 0x25F74, symSize: 0xCC }
  - { offsetInCU: 0x4695, offset: 0x9A59D, size: 0x8, addend: 0x0, symName: '__ZN5alloc3vec9into_iter21IntoIter$LT$T$C$A$GT$32forget_allocation_drop_remaining17h451972f1e909e315E', symObjAddr: 0xA50, symBinAddr: 0x26040, symSize: 0x80 }
  - { offsetInCU: 0x1E, offset: 0x9A8E5, size: 0x8, addend: 0x0, symName: '__ZN63_$LT$I$u20$as$u20$core..iter..traits..collect..IntoIterator$GT$9into_iter17h49988f43f7991fcbE', symObjAddr: 0x0, symBinAddr: 0x260D4, symSize: 0x18 }
  - { offsetInCU: 0x853, offset: 0x9B11A, size: 0x8, addend: 0x0, symName: '__ZN63_$LT$I$u20$as$u20$core..iter..traits..collect..IntoIterator$GT$9into_iter17h49988f43f7991fcbE', symObjAddr: 0x0, symBinAddr: 0x260D4, symSize: 0x18 }
  - { offsetInCU: 0x1E, offset: 0x9C0E3, size: 0x8, addend: 0x0, symName: __ZN4core3fmt9Arguments3new17h28fc3310ceddd92bE, symObjAddr: 0x0, symBinAddr: 0x260EC, symSize: 0x1C }
  - { offsetInCU: 0x3ED, offset: 0x9C4B2, size: 0x8, addend: 0x0, symName: __ZN4core3fmt9Arguments3new17h28fc3310ceddd92bE, symObjAddr: 0x0, symBinAddr: 0x260EC, symSize: 0x1C }
  - { offsetInCU: 0x453, offset: 0x9C518, size: 0x8, addend: 0x0, symName: __ZN4core3fmt9Arguments3new17h41c4309ab3171df7E, symObjAddr: 0x1C, symBinAddr: 0x26108, symSize: 0x1C }
  - { offsetInCU: 0x4B9, offset: 0x9C57E, size: 0x8, addend: 0x0, symName: __ZN4core3fmt9Arguments3new17h9642db96ae6bac01E, symObjAddr: 0x38, symBinAddr: 0x26124, symSize: 0x1C }
  - { offsetInCU: 0x51F, offset: 0x9C5E4, size: 0x8, addend: 0x0, symName: __ZN4core3fmt9Arguments3new17hc13893d948b6b7b1E, symObjAddr: 0x54, symBinAddr: 0x26140, symSize: 0x1C }
  - { offsetInCU: 0x56B, offset: 0x9C630, size: 0x8, addend: 0x0, symName: __ZN4core3fmt9Arguments3new17hd6dc4531c73ca625E, symObjAddr: 0x70, symBinAddr: 0x2615C, symSize: 0x1C }
  - { offsetInCU: 0x5D1, offset: 0x9C696, size: 0x8, addend: 0x0, symName: __ZN4core3fmt9Arguments3new17heaab67bee613ee4bE, symObjAddr: 0x8C, symBinAddr: 0x26178, symSize: 0x1C }
  - { offsetInCU: 0x1E, offset: 0x9C6E6, size: 0x8, addend: 0x0, symName: '__ZN57_$LT$$u5b$T$u5d$$u20$as$u20$numpy..convert..ToPyArray$GT$10to_pyarray17h01fad2ff96d988a8E', symObjAddr: 0x0, symBinAddr: 0x26194, symSize: 0x28 }
  - { offsetInCU: 0x1216, offset: 0x9D8DE, size: 0x8, addend: 0x0, symName: '__ZN57_$LT$$u5b$T$u5d$$u20$as$u20$numpy..convert..ToPyArray$GT$10to_pyarray17h01fad2ff96d988a8E', symObjAddr: 0x0, symBinAddr: 0x26194, symSize: 0x28 }
  - { offsetInCU: 0x1E, offset: 0x9DFA5, size: 0x8, addend: 0x0, symName: __ZN8pyo3_ffi7cpython10listobject15PyList_SET_ITEM17hb7ff70516ffb431cE, symObjAddr: 0x0, symBinAddr: 0x261BC, symSize: 0x110 }
  - { offsetInCU: 0x638, offset: 0x9E5BF, size: 0x8, addend: 0x0, symName: __ZN8pyo3_ffi7cpython10listobject15PyList_SET_ITEM17hb7ff70516ffb431cE, symObjAddr: 0x0, symBinAddr: 0x261BC, symSize: 0x110 }
  - { offsetInCU: 0x1E, offset: 0x9F591, size: 0x8, addend: 0x0, symName: '__ZN111_$LT$T$u20$as$u20$pyo3..impl_..callback..IntoPyCallbackOutput$LT$$BP$mut$u20$pyo3_ffi..object..PyObject$GT$$GT$7convert17hb01d7cb4ed70411cE', symObjAddr: 0x0, symBinAddr: 0x262CC, symSize: 0x30 }
  - { offsetInCU: 0x1621, offset: 0xA0B94, size: 0x8, addend: 0x0, symName: '__ZN111_$LT$T$u20$as$u20$pyo3..impl_..callback..IntoPyCallbackOutput$LT$$BP$mut$u20$pyo3_ffi..object..PyObject$GT$$GT$7convert17hb01d7cb4ed70411cE', symObjAddr: 0x0, symBinAddr: 0x262CC, symSize: 0x30 }
  - { offsetInCU: 0x166F, offset: 0xA0BE2, size: 0x8, addend: 0x0, symName: '__ZN111_$LT$T$u20$as$u20$pyo3..impl_..callback..IntoPyCallbackOutput$LT$$BP$mut$u20$pyo3_ffi..object..PyObject$GT$$GT$7convert17he6335977a857adc9E', symObjAddr: 0x30, symBinAddr: 0x262FC, symSize: 0x30 }
  - { offsetInCU: 0x16BE, offset: 0xA0C31, size: 0x8, addend: 0x0, symName: __ZN4pyo35impl_8callback7convert17h06aae18eb6a5fa57E, symObjAddr: 0x60, symBinAddr: 0x2632C, symSize: 0x20 }
  - { offsetInCU: 0x1715, offset: 0xA0C88, size: 0x8, addend: 0x0, symName: __ZN4pyo35impl_8callback7convert17h0cc04e08b0880bbbE, symObjAddr: 0x80, symBinAddr: 0x2634C, symSize: 0x20 }
  - { offsetInCU: 0x176C, offset: 0xA0CDF, size: 0x8, addend: 0x0, symName: __ZN4pyo35impl_8callback7convert17h3d5311c984e3de89E, symObjAddr: 0xA0, symBinAddr: 0x2636C, symSize: 0x24 }
  - { offsetInCU: 0x17C3, offset: 0xA0D36, size: 0x8, addend: 0x0, symName: __ZN4pyo35impl_8callback7convert17h5a557be36fc6d58dE, symObjAddr: 0xC4, symBinAddr: 0x26390, symSize: 0x1C }
  - { offsetInCU: 0x181A, offset: 0xA0D8D, size: 0x8, addend: 0x0, symName: __ZN4pyo35impl_8callback7convert17hda2383a65d397aa7E, symObjAddr: 0xE0, symBinAddr: 0x263AC, symSize: 0x34 }
  - { offsetInCU: 0x1872, offset: 0xA0DE5, size: 0x8, addend: 0x0, symName: __ZN4pyo35impl_8callback7convert17hf8f7cfab1c46959bE, symObjAddr: 0x114, symBinAddr: 0x263E0, symSize: 0x24 }
  - { offsetInCU: 0x1E, offset: 0xA192C, size: 0x8, addend: 0x0, symName: '__ZN106_$LT$core..result..Result$LT$T$C$E$GT$$u20$as$u20$pyo3..impl_..callback..IntoPyCallbackOutput$LT$U$GT$$GT$7convert17h2efc05c414e83719E', symObjAddr: 0x0, symBinAddr: 0x26404, symSize: 0xF0 }
  - { offsetInCU: 0x1988, offset: 0xA3296, size: 0x8, addend: 0x0, symName: '__ZN153_$LT$core..result..Result$LT$T$C$F$GT$$u20$as$u20$core..ops..try_trait..FromResidual$LT$core..result..Result$LT$core..convert..Infallible$C$E$GT$$GT$$GT$13from_residual17h0008598df43a2910E', symObjAddr: 0x39C, symBinAddr: 0x267A0, symSize: 0x6C }
  - { offsetInCU: 0x1A0E, offset: 0xA331C, size: 0x8, addend: 0x0, symName: '__ZN153_$LT$core..result..Result$LT$T$C$F$GT$$u20$as$u20$core..ops..try_trait..FromResidual$LT$core..result..Result$LT$core..convert..Infallible$C$E$GT$$GT$$GT$13from_residual17h12a915d4ad54ac50E', symObjAddr: 0x408, symBinAddr: 0x2680C, symSize: 0x6C }
  - { offsetInCU: 0x1A94, offset: 0xA33A2, size: 0x8, addend: 0x0, symName: '__ZN153_$LT$core..result..Result$LT$T$C$F$GT$$u20$as$u20$core..ops..try_trait..FromResidual$LT$core..result..Result$LT$core..convert..Infallible$C$E$GT$$GT$$GT$13from_residual17h144641c2e46db3fdE', symObjAddr: 0x474, symBinAddr: 0x26878, symSize: 0x6C }
  - { offsetInCU: 0x1B1A, offset: 0xA3428, size: 0x8, addend: 0x0, symName: '__ZN153_$LT$core..result..Result$LT$T$C$F$GT$$u20$as$u20$core..ops..try_trait..FromResidual$LT$core..result..Result$LT$core..convert..Infallible$C$E$GT$$GT$$GT$13from_residual17h22b0fd8e6a1b386dE', symObjAddr: 0x4E0, symBinAddr: 0x268E4, symSize: 0x64 }
  - { offsetInCU: 0x1B82, offset: 0xA3490, size: 0x8, addend: 0x0, symName: '__ZN153_$LT$core..result..Result$LT$T$C$F$GT$$u20$as$u20$core..ops..try_trait..FromResidual$LT$core..result..Result$LT$core..convert..Infallible$C$E$GT$$GT$$GT$13from_residual17h245fdfcb9015b9a8E', symObjAddr: 0x544, symBinAddr: 0x26948, symSize: 0x64 }
  - { offsetInCU: 0x1BEA, offset: 0xA34F8, size: 0x8, addend: 0x0, symName: '__ZN153_$LT$core..result..Result$LT$T$C$F$GT$$u20$as$u20$core..ops..try_trait..FromResidual$LT$core..result..Result$LT$core..convert..Infallible$C$E$GT$$GT$$GT$13from_residual17h254ccc79f373f9a6E', symObjAddr: 0x5A8, symBinAddr: 0x269AC, symSize: 0x4C }
  - { offsetInCU: 0x1C51, offset: 0xA355F, size: 0x8, addend: 0x0, symName: '__ZN153_$LT$core..result..Result$LT$T$C$F$GT$$u20$as$u20$core..ops..try_trait..FromResidual$LT$core..result..Result$LT$core..convert..Infallible$C$E$GT$$GT$$GT$13from_residual17h27c2bdf87e1785c9E', symObjAddr: 0x5F4, symBinAddr: 0x269F8, symSize: 0x64 }
  - { offsetInCU: 0x1CB9, offset: 0xA35C7, size: 0x8, addend: 0x0, symName: '__ZN153_$LT$core..result..Result$LT$T$C$F$GT$$u20$as$u20$core..ops..try_trait..FromResidual$LT$core..result..Result$LT$core..convert..Infallible$C$E$GT$$GT$$GT$13from_residual17h2944b2839cf7e459E', symObjAddr: 0x658, symBinAddr: 0x26A5C, symSize: 0x6C }
  - { offsetInCU: 0x1D3F, offset: 0xA364D, size: 0x8, addend: 0x0, symName: '__ZN153_$LT$core..result..Result$LT$T$C$F$GT$$u20$as$u20$core..ops..try_trait..FromResidual$LT$core..result..Result$LT$core..convert..Infallible$C$E$GT$$GT$$GT$13from_residual17h29ce56f54b365b63E', symObjAddr: 0x6C4, symBinAddr: 0x26AC8, symSize: 0x6C }
  - { offsetInCU: 0x1DC5, offset: 0xA36D3, size: 0x8, addend: 0x0, symName: '__ZN153_$LT$core..result..Result$LT$T$C$F$GT$$u20$as$u20$core..ops..try_trait..FromResidual$LT$core..result..Result$LT$core..convert..Infallible$C$E$GT$$GT$$GT$13from_residual17h30a0ec0a6c7790deE', symObjAddr: 0x730, symBinAddr: 0x26B34, symSize: 0x64 }
  - { offsetInCU: 0x1E2D, offset: 0xA373B, size: 0x8, addend: 0x0, symName: '__ZN153_$LT$core..result..Result$LT$T$C$F$GT$$u20$as$u20$core..ops..try_trait..FromResidual$LT$core..result..Result$LT$core..convert..Infallible$C$E$GT$$GT$$GT$13from_residual17h36407dc2019df4caE', symObjAddr: 0x794, symBinAddr: 0x26B98, symSize: 0x64 }
  - { offsetInCU: 0x1E95, offset: 0xA37A3, size: 0x8, addend: 0x0, symName: '__ZN153_$LT$core..result..Result$LT$T$C$F$GT$$u20$as$u20$core..ops..try_trait..FromResidual$LT$core..result..Result$LT$core..convert..Infallible$C$E$GT$$GT$$GT$13from_residual17h3acc3968b2c19d1cE', symObjAddr: 0x7F8, symBinAddr: 0x26BFC, symSize: 0x64 }
  - { offsetInCU: 0x1EFD, offset: 0xA380B, size: 0x8, addend: 0x0, symName: '__ZN153_$LT$core..result..Result$LT$T$C$F$GT$$u20$as$u20$core..ops..try_trait..FromResidual$LT$core..result..Result$LT$core..convert..Infallible$C$E$GT$$GT$$GT$13from_residual17h3bdc1ecc69e228e0E', symObjAddr: 0x85C, symBinAddr: 0x26C60, symSize: 0x6C }
  - { offsetInCU: 0x1F83, offset: 0xA3891, size: 0x8, addend: 0x0, symName: '__ZN153_$LT$core..result..Result$LT$T$C$F$GT$$u20$as$u20$core..ops..try_trait..FromResidual$LT$core..result..Result$LT$core..convert..Infallible$C$E$GT$$GT$$GT$13from_residual17h41323642e7e06ba5E', symObjAddr: 0x8C8, symBinAddr: 0x26CCC, symSize: 0x6C }
  - { offsetInCU: 0x2009, offset: 0xA3917, size: 0x8, addend: 0x0, symName: '__ZN153_$LT$core..result..Result$LT$T$C$F$GT$$u20$as$u20$core..ops..try_trait..FromResidual$LT$core..result..Result$LT$core..convert..Infallible$C$E$GT$$GT$$GT$13from_residual17h49dfd07793e54c6aE', symObjAddr: 0x934, symBinAddr: 0x26D38, symSize: 0x64 }
  - { offsetInCU: 0x2071, offset: 0xA397F, size: 0x8, addend: 0x0, symName: '__ZN153_$LT$core..result..Result$LT$T$C$F$GT$$u20$as$u20$core..ops..try_trait..FromResidual$LT$core..result..Result$LT$core..convert..Infallible$C$E$GT$$GT$$GT$13from_residual17h4b5e4e3eaf00bc90E', symObjAddr: 0x998, symBinAddr: 0x26D9C, symSize: 0x6C }
  - { offsetInCU: 0x20F7, offset: 0xA3A05, size: 0x8, addend: 0x0, symName: '__ZN153_$LT$core..result..Result$LT$T$C$F$GT$$u20$as$u20$core..ops..try_trait..FromResidual$LT$core..result..Result$LT$core..convert..Infallible$C$E$GT$$GT$$GT$13from_residual17h586cf070e880708eE', symObjAddr: 0xA04, symBinAddr: 0x26E08, symSize: 0x6C }
  - { offsetInCU: 0x217D, offset: 0xA3A8B, size: 0x8, addend: 0x0, symName: '__ZN153_$LT$core..result..Result$LT$T$C$F$GT$$u20$as$u20$core..ops..try_trait..FromResidual$LT$core..result..Result$LT$core..convert..Infallible$C$E$GT$$GT$$GT$13from_residual17h5dfd102bea72d45cE', symObjAddr: 0xA70, symBinAddr: 0x26E74, symSize: 0x64 }
  - { offsetInCU: 0x21E5, offset: 0xA3AF3, size: 0x8, addend: 0x0, symName: '__ZN153_$LT$core..result..Result$LT$T$C$F$GT$$u20$as$u20$core..ops..try_trait..FromResidual$LT$core..result..Result$LT$core..convert..Infallible$C$E$GT$$GT$$GT$13from_residual17h6444e1d4ec77b451E', symObjAddr: 0xAD4, symBinAddr: 0x26ED8, symSize: 0x4C }
  - { offsetInCU: 0x224C, offset: 0xA3B5A, size: 0x8, addend: 0x0, symName: '__ZN153_$LT$core..result..Result$LT$T$C$F$GT$$u20$as$u20$core..ops..try_trait..FromResidual$LT$core..result..Result$LT$core..convert..Infallible$C$E$GT$$GT$$GT$13from_residual17h69b4dbeb8e313095E', symObjAddr: 0xB20, symBinAddr: 0x26F24, symSize: 0x6C }
  - { offsetInCU: 0x22D2, offset: 0xA3BE0, size: 0x8, addend: 0x0, symName: '__ZN153_$LT$core..result..Result$LT$T$C$F$GT$$u20$as$u20$core..ops..try_trait..FromResidual$LT$core..result..Result$LT$core..convert..Infallible$C$E$GT$$GT$$GT$13from_residual17h6d366825120961ecE', symObjAddr: 0xB8C, symBinAddr: 0x26F90, symSize: 0x64 }
  - { offsetInCU: 0x233A, offset: 0xA3C48, size: 0x8, addend: 0x0, symName: '__ZN153_$LT$core..result..Result$LT$T$C$F$GT$$u20$as$u20$core..ops..try_trait..FromResidual$LT$core..result..Result$LT$core..convert..Infallible$C$E$GT$$GT$$GT$13from_residual17h6f8b3b0d7c0d58c2E', symObjAddr: 0xBF0, symBinAddr: 0x26FF4, symSize: 0x6C }
  - { offsetInCU: 0x23C0, offset: 0xA3CCE, size: 0x8, addend: 0x0, symName: '__ZN153_$LT$core..result..Result$LT$T$C$F$GT$$u20$as$u20$core..ops..try_trait..FromResidual$LT$core..result..Result$LT$core..convert..Infallible$C$E$GT$$GT$$GT$13from_residual17h702c2c54f1278572E', symObjAddr: 0xC5C, symBinAddr: 0x27060, symSize: 0x6C }
  - { offsetInCU: 0x2446, offset: 0xA3D54, size: 0x8, addend: 0x0, symName: '__ZN153_$LT$core..result..Result$LT$T$C$F$GT$$u20$as$u20$core..ops..try_trait..FromResidual$LT$core..result..Result$LT$core..convert..Infallible$C$E$GT$$GT$$GT$13from_residual17h751e27bd7e2fab46E', symObjAddr: 0xCC8, symBinAddr: 0x270CC, symSize: 0x4C }
  - { offsetInCU: 0x24AD, offset: 0xA3DBB, size: 0x8, addend: 0x0, symName: '__ZN153_$LT$core..result..Result$LT$T$C$F$GT$$u20$as$u20$core..ops..try_trait..FromResidual$LT$core..result..Result$LT$core..convert..Infallible$C$E$GT$$GT$$GT$13from_residual17h7a9a5176f93f0b69E', symObjAddr: 0xD14, symBinAddr: 0x27118, symSize: 0x64 }
  - { offsetInCU: 0x2515, offset: 0xA3E23, size: 0x8, addend: 0x0, symName: '__ZN153_$LT$core..result..Result$LT$T$C$F$GT$$u20$as$u20$core..ops..try_trait..FromResidual$LT$core..result..Result$LT$core..convert..Infallible$C$E$GT$$GT$$GT$13from_residual17h8020e30d32eaa402E', symObjAddr: 0xD78, symBinAddr: 0x2717C, symSize: 0x6C }
  - { offsetInCU: 0x259B, offset: 0xA3EA9, size: 0x8, addend: 0x0, symName: '__ZN153_$LT$core..result..Result$LT$T$C$F$GT$$u20$as$u20$core..ops..try_trait..FromResidual$LT$core..result..Result$LT$core..convert..Infallible$C$E$GT$$GT$$GT$13from_residual17h8028b52f3ac6c651E', symObjAddr: 0xDE4, symBinAddr: 0x271E8, symSize: 0x6C }
  - { offsetInCU: 0x2621, offset: 0xA3F2F, size: 0x8, addend: 0x0, symName: '__ZN153_$LT$core..result..Result$LT$T$C$F$GT$$u20$as$u20$core..ops..try_trait..FromResidual$LT$core..result..Result$LT$core..convert..Infallible$C$E$GT$$GT$$GT$13from_residual17h84c70bde9a06d986E', symObjAddr: 0xE50, symBinAddr: 0x27254, symSize: 0x6C }
  - { offsetInCU: 0x26A7, offset: 0xA3FB5, size: 0x8, addend: 0x0, symName: '__ZN153_$LT$core..result..Result$LT$T$C$F$GT$$u20$as$u20$core..ops..try_trait..FromResidual$LT$core..result..Result$LT$core..convert..Infallible$C$E$GT$$GT$$GT$13from_residual17h8b875e0f8dd0e6b3E', symObjAddr: 0xEBC, symBinAddr: 0x272C0, symSize: 0x64 }
  - { offsetInCU: 0x270F, offset: 0xA401D, size: 0x8, addend: 0x0, symName: '__ZN153_$LT$core..result..Result$LT$T$C$F$GT$$u20$as$u20$core..ops..try_trait..FromResidual$LT$core..result..Result$LT$core..convert..Infallible$C$E$GT$$GT$$GT$13from_residual17h8e3acd2389c16008E', symObjAddr: 0xF20, symBinAddr: 0x27324, symSize: 0x6C }
  - { offsetInCU: 0x2795, offset: 0xA40A3, size: 0x8, addend: 0x0, symName: '__ZN153_$LT$core..result..Result$LT$T$C$F$GT$$u20$as$u20$core..ops..try_trait..FromResidual$LT$core..result..Result$LT$core..convert..Infallible$C$E$GT$$GT$$GT$13from_residual17h90b40ca0d192a1b9E', symObjAddr: 0xF8C, symBinAddr: 0x27390, symSize: 0x6C }
  - { offsetInCU: 0x281B, offset: 0xA4129, size: 0x8, addend: 0x0, symName: '__ZN153_$LT$core..result..Result$LT$T$C$F$GT$$u20$as$u20$core..ops..try_trait..FromResidual$LT$core..result..Result$LT$core..convert..Infallible$C$E$GT$$GT$$GT$13from_residual17h93ed23bc764af797E', symObjAddr: 0xFF8, symBinAddr: 0x273FC, symSize: 0x6C }
  - { offsetInCU: 0x28A1, offset: 0xA41AF, size: 0x8, addend: 0x0, symName: '__ZN153_$LT$core..result..Result$LT$T$C$F$GT$$u20$as$u20$core..ops..try_trait..FromResidual$LT$core..result..Result$LT$core..convert..Infallible$C$E$GT$$GT$$GT$13from_residual17h94ffeb8e58e0d225E', symObjAddr: 0x1064, symBinAddr: 0x27468, symSize: 0x6C }
  - { offsetInCU: 0x2927, offset: 0xA4235, size: 0x8, addend: 0x0, symName: '__ZN153_$LT$core..result..Result$LT$T$C$F$GT$$u20$as$u20$core..ops..try_trait..FromResidual$LT$core..result..Result$LT$core..convert..Infallible$C$E$GT$$GT$$GT$13from_residual17h95c956968635cf5aE', symObjAddr: 0x10D0, symBinAddr: 0x274D4, symSize: 0x6C }
  - { offsetInCU: 0x29AD, offset: 0xA42BB, size: 0x8, addend: 0x0, symName: '__ZN153_$LT$core..result..Result$LT$T$C$F$GT$$u20$as$u20$core..ops..try_trait..FromResidual$LT$core..result..Result$LT$core..convert..Infallible$C$E$GT$$GT$$GT$13from_residual17h96c2e2425805d2ebE', symObjAddr: 0x113C, symBinAddr: 0x27540, symSize: 0x64 }
  - { offsetInCU: 0x2A15, offset: 0xA4323, size: 0x8, addend: 0x0, symName: '__ZN153_$LT$core..result..Result$LT$T$C$F$GT$$u20$as$u20$core..ops..try_trait..FromResidual$LT$core..result..Result$LT$core..convert..Infallible$C$E$GT$$GT$$GT$13from_residual17h96e2a778184e3fafE', symObjAddr: 0x11A0, symBinAddr: 0x275A4, symSize: 0x6C }
  - { offsetInCU: 0x2A9B, offset: 0xA43A9, size: 0x8, addend: 0x0, symName: '__ZN153_$LT$core..result..Result$LT$T$C$F$GT$$u20$as$u20$core..ops..try_trait..FromResidual$LT$core..result..Result$LT$core..convert..Infallible$C$E$GT$$GT$$GT$13from_residual17had6e38f02584320aE', symObjAddr: 0x120C, symBinAddr: 0x27610, symSize: 0x4C }
  - { offsetInCU: 0x2B02, offset: 0xA4410, size: 0x8, addend: 0x0, symName: '__ZN153_$LT$core..result..Result$LT$T$C$F$GT$$u20$as$u20$core..ops..try_trait..FromResidual$LT$core..result..Result$LT$core..convert..Infallible$C$E$GT$$GT$$GT$13from_residual17hae42c5ba185a9bf4E', symObjAddr: 0x1258, symBinAddr: 0x2765C, symSize: 0x64 }
  - { offsetInCU: 0x2B6A, offset: 0xA4478, size: 0x8, addend: 0x0, symName: '__ZN153_$LT$core..result..Result$LT$T$C$F$GT$$u20$as$u20$core..ops..try_trait..FromResidual$LT$core..result..Result$LT$core..convert..Infallible$C$E$GT$$GT$$GT$13from_residual17hb260045887af5f33E', symObjAddr: 0x12BC, symBinAddr: 0x276C0, symSize: 0x6C }
  - { offsetInCU: 0x2BF0, offset: 0xA44FE, size: 0x8, addend: 0x0, symName: '__ZN153_$LT$core..result..Result$LT$T$C$F$GT$$u20$as$u20$core..ops..try_trait..FromResidual$LT$core..result..Result$LT$core..convert..Infallible$C$E$GT$$GT$$GT$13from_residual17hb65907708cb5096aE', symObjAddr: 0x1328, symBinAddr: 0x2772C, symSize: 0x6C }
  - { offsetInCU: 0x2C76, offset: 0xA4584, size: 0x8, addend: 0x0, symName: '__ZN153_$LT$core..result..Result$LT$T$C$F$GT$$u20$as$u20$core..ops..try_trait..FromResidual$LT$core..result..Result$LT$core..convert..Infallible$C$E$GT$$GT$$GT$13from_residual17hba60574f8eae0b50E', symObjAddr: 0x1394, symBinAddr: 0x27798, symSize: 0x6C }
  - { offsetInCU: 0x2CFC, offset: 0xA460A, size: 0x8, addend: 0x0, symName: '__ZN153_$LT$core..result..Result$LT$T$C$F$GT$$u20$as$u20$core..ops..try_trait..FromResidual$LT$core..result..Result$LT$core..convert..Infallible$C$E$GT$$GT$$GT$13from_residual17hba83b3e14d360966E', symObjAddr: 0x1400, symBinAddr: 0x27804, symSize: 0x6C }
  - { offsetInCU: 0x2D82, offset: 0xA4690, size: 0x8, addend: 0x0, symName: '__ZN153_$LT$core..result..Result$LT$T$C$F$GT$$u20$as$u20$core..ops..try_trait..FromResidual$LT$core..result..Result$LT$core..convert..Infallible$C$E$GT$$GT$$GT$13from_residual17hbc7096d91a53d0cbE', symObjAddr: 0x146C, symBinAddr: 0x27870, symSize: 0x4C }
  - { offsetInCU: 0x2DE9, offset: 0xA46F7, size: 0x8, addend: 0x0, symName: '__ZN153_$LT$core..result..Result$LT$T$C$F$GT$$u20$as$u20$core..ops..try_trait..FromResidual$LT$core..result..Result$LT$core..convert..Infallible$C$E$GT$$GT$$GT$13from_residual17hbd28d25d388f4cd1E', symObjAddr: 0x14B8, symBinAddr: 0x278BC, symSize: 0x64 }
  - { offsetInCU: 0x2E51, offset: 0xA475F, size: 0x8, addend: 0x0, symName: '__ZN153_$LT$core..result..Result$LT$T$C$F$GT$$u20$as$u20$core..ops..try_trait..FromResidual$LT$core..result..Result$LT$core..convert..Infallible$C$E$GT$$GT$$GT$13from_residual17hc556525def56d40dE', symObjAddr: 0x151C, symBinAddr: 0x27920, symSize: 0x64 }
  - { offsetInCU: 0x2EB9, offset: 0xA47C7, size: 0x8, addend: 0x0, symName: '__ZN153_$LT$core..result..Result$LT$T$C$F$GT$$u20$as$u20$core..ops..try_trait..FromResidual$LT$core..result..Result$LT$core..convert..Infallible$C$E$GT$$GT$$GT$13from_residual17hc57ed7d102d8ba91E', symObjAddr: 0x1580, symBinAddr: 0x27984, symSize: 0x6C }
  - { offsetInCU: 0x2F3F, offset: 0xA484D, size: 0x8, addend: 0x0, symName: '__ZN153_$LT$core..result..Result$LT$T$C$F$GT$$u20$as$u20$core..ops..try_trait..FromResidual$LT$core..result..Result$LT$core..convert..Infallible$C$E$GT$$GT$$GT$13from_residual17hc7bc981d0e446ed4E', symObjAddr: 0x15EC, symBinAddr: 0x279F0, symSize: 0x6C }
  - { offsetInCU: 0x2FC5, offset: 0xA48D3, size: 0x8, addend: 0x0, symName: '__ZN153_$LT$core..result..Result$LT$T$C$F$GT$$u20$as$u20$core..ops..try_trait..FromResidual$LT$core..result..Result$LT$core..convert..Infallible$C$E$GT$$GT$$GT$13from_residual17hc977a58e0b729af1E', symObjAddr: 0x1658, symBinAddr: 0x27A5C, symSize: 0x6C }
  - { offsetInCU: 0x304B, offset: 0xA4959, size: 0x8, addend: 0x0, symName: '__ZN153_$LT$core..result..Result$LT$T$C$F$GT$$u20$as$u20$core..ops..try_trait..FromResidual$LT$core..result..Result$LT$core..convert..Infallible$C$E$GT$$GT$$GT$13from_residual17hc9e5cb9b494d324dE', symObjAddr: 0x16C4, symBinAddr: 0x27AC8, symSize: 0x4C }
  - { offsetInCU: 0x30B2, offset: 0xA49C0, size: 0x8, addend: 0x0, symName: '__ZN153_$LT$core..result..Result$LT$T$C$F$GT$$u20$as$u20$core..ops..try_trait..FromResidual$LT$core..result..Result$LT$core..convert..Infallible$C$E$GT$$GT$$GT$13from_residual17hcda67d4ddbf3575aE', symObjAddr: 0x1710, symBinAddr: 0x27B14, symSize: 0x64 }
  - { offsetInCU: 0x311A, offset: 0xA4A28, size: 0x8, addend: 0x0, symName: '__ZN153_$LT$core..result..Result$LT$T$C$F$GT$$u20$as$u20$core..ops..try_trait..FromResidual$LT$core..result..Result$LT$core..convert..Infallible$C$E$GT$$GT$$GT$13from_residual17hd01d19f50f05112bE', symObjAddr: 0x1774, symBinAddr: 0x27B78, symSize: 0x64 }
  - { offsetInCU: 0x3182, offset: 0xA4A90, size: 0x8, addend: 0x0, symName: '__ZN153_$LT$core..result..Result$LT$T$C$F$GT$$u20$as$u20$core..ops..try_trait..FromResidual$LT$core..result..Result$LT$core..convert..Infallible$C$E$GT$$GT$$GT$13from_residual17he2174b81bf78a12eE', symObjAddr: 0x17E0, symBinAddr: 0x27BDC, symSize: 0x6C }
  - { offsetInCU: 0x3208, offset: 0xA4B16, size: 0x8, addend: 0x0, symName: '__ZN153_$LT$core..result..Result$LT$T$C$F$GT$$u20$as$u20$core..ops..try_trait..FromResidual$LT$core..result..Result$LT$core..convert..Infallible$C$E$GT$$GT$$GT$13from_residual17he58cfcbf7bc12326E', symObjAddr: 0x184C, symBinAddr: 0x27C48, symSize: 0x6C }
  - { offsetInCU: 0x328E, offset: 0xA4B9C, size: 0x8, addend: 0x0, symName: '__ZN153_$LT$core..result..Result$LT$T$C$F$GT$$u20$as$u20$core..ops..try_trait..FromResidual$LT$core..result..Result$LT$core..convert..Infallible$C$E$GT$$GT$$GT$13from_residual17he751bdbafa287591E', symObjAddr: 0x18B8, symBinAddr: 0x27CB4, symSize: 0x64 }
  - { offsetInCU: 0x32F6, offset: 0xA4C04, size: 0x8, addend: 0x0, symName: '__ZN153_$LT$core..result..Result$LT$T$C$F$GT$$u20$as$u20$core..ops..try_trait..FromResidual$LT$core..result..Result$LT$core..convert..Infallible$C$E$GT$$GT$$GT$13from_residual17hea24f6c41e607d3fE', symObjAddr: 0x191C, symBinAddr: 0x27D18, symSize: 0x64 }
  - { offsetInCU: 0x335E, offset: 0xA4C6C, size: 0x8, addend: 0x0, symName: '__ZN153_$LT$core..result..Result$LT$T$C$F$GT$$u20$as$u20$core..ops..try_trait..FromResidual$LT$core..result..Result$LT$core..convert..Infallible$C$E$GT$$GT$$GT$13from_residual17hecda4b6a5ca1864cE', symObjAddr: 0x1980, symBinAddr: 0x27D7C, symSize: 0x6C }
  - { offsetInCU: 0x33E4, offset: 0xA4CF2, size: 0x8, addend: 0x0, symName: '__ZN153_$LT$core..result..Result$LT$T$C$F$GT$$u20$as$u20$core..ops..try_trait..FromResidual$LT$core..result..Result$LT$core..convert..Infallible$C$E$GT$$GT$$GT$13from_residual17heeb7a0c001f01469E', symObjAddr: 0x19EC, symBinAddr: 0x27DE8, symSize: 0x6C }
  - { offsetInCU: 0x346A, offset: 0xA4D78, size: 0x8, addend: 0x0, symName: '__ZN153_$LT$core..result..Result$LT$T$C$F$GT$$u20$as$u20$core..ops..try_trait..FromResidual$LT$core..result..Result$LT$core..convert..Infallible$C$E$GT$$GT$$GT$13from_residual17hf384314629ab6d97E', symObjAddr: 0x1A58, symBinAddr: 0x27E54, symSize: 0x6C }
  - { offsetInCU: 0x34F0, offset: 0xA4DFE, size: 0x8, addend: 0x0, symName: '__ZN153_$LT$core..result..Result$LT$T$C$F$GT$$u20$as$u20$core..ops..try_trait..FromResidual$LT$core..result..Result$LT$core..convert..Infallible$C$E$GT$$GT$$GT$13from_residual17hf9cd4767e64ea2b6E', symObjAddr: 0x1AC4, symBinAddr: 0x27EC0, symSize: 0x6C }
  - { offsetInCU: 0x3576, offset: 0xA4E84, size: 0x8, addend: 0x0, symName: '__ZN153_$LT$core..result..Result$LT$T$C$F$GT$$u20$as$u20$core..ops..try_trait..FromResidual$LT$core..result..Result$LT$core..convert..Infallible$C$E$GT$$GT$$GT$13from_residual17hfe25a66795872e90E', symObjAddr: 0x1B30, symBinAddr: 0x27F2C, symSize: 0x64 }
  - { offsetInCU: 0x73F0, offset: 0xA8CFE, size: 0x8, addend: 0x0, symName: '__ZN79_$LT$core..result..Result$LT$T$C$E$GT$$u20$as$u20$core..ops..try_trait..Try$GT$11from_output17h32c33abbe30f4de3E', symObjAddr: 0x4924, symBinAddr: 0x2AD20, symSize: 0x1C }
  - { offsetInCU: 0x7430, offset: 0xA8D3E, size: 0x8, addend: 0x0, symName: '__ZN79_$LT$core..result..Result$LT$T$C$E$GT$$u20$as$u20$core..ops..try_trait..Try$GT$11from_output17hef94fbca8872beeeE', symObjAddr: 0x4940, symBinAddr: 0x2AD3C, symSize: 0x18 }
  - { offsetInCU: 0x7470, offset: 0xA8D7E, size: 0x8, addend: 0x0, symName: '__ZN79_$LT$core..result..Result$LT$T$C$E$GT$$u20$as$u20$core..ops..try_trait..Try$GT$6branch17h005687b7959276dbE', symObjAddr: 0x4958, symBinAddr: 0x2AD54, symSize: 0xB8 }
  - { offsetInCU: 0x74EE, offset: 0xA8DFC, size: 0x8, addend: 0x0, symName: '__ZN79_$LT$core..result..Result$LT$T$C$E$GT$$u20$as$u20$core..ops..try_trait..Try$GT$6branch17h06d1d0936e349bd3E', symObjAddr: 0x4A10, symBinAddr: 0x2AE0C, symSize: 0x88 }
  - { offsetInCU: 0x756C, offset: 0xA8E7A, size: 0x8, addend: 0x0, symName: '__ZN79_$LT$core..result..Result$LT$T$C$E$GT$$u20$as$u20$core..ops..try_trait..Try$GT$6branch17h0b57626cb99a4d7fE', symObjAddr: 0x4A98, symBinAddr: 0x2AE94, symSize: 0x90 }
  - { offsetInCU: 0x75E9, offset: 0xA8EF7, size: 0x8, addend: 0x0, symName: '__ZN79_$LT$core..result..Result$LT$T$C$E$GT$$u20$as$u20$core..ops..try_trait..Try$GT$6branch17h0d60d6d89dc2190aE', symObjAddr: 0x4B28, symBinAddr: 0x2AF24, symSize: 0xAC }
  - { offsetInCU: 0x7666, offset: 0xA8F74, size: 0x8, addend: 0x0, symName: '__ZN79_$LT$core..result..Result$LT$T$C$E$GT$$u20$as$u20$core..ops..try_trait..Try$GT$6branch17h10d9d1f2fb06405fE', symObjAddr: 0x4BD4, symBinAddr: 0x2AFD0, symSize: 0xB4 }
  - { offsetInCU: 0x76E4, offset: 0xA8FF2, size: 0x8, addend: 0x0, symName: '__ZN79_$LT$core..result..Result$LT$T$C$E$GT$$u20$as$u20$core..ops..try_trait..Try$GT$6branch17h14346160e95eab8eE', symObjAddr: 0x4C88, symBinAddr: 0x2B084, symSize: 0x88 }
  - { offsetInCU: 0x7762, offset: 0xA9070, size: 0x8, addend: 0x0, symName: '__ZN79_$LT$core..result..Result$LT$T$C$E$GT$$u20$as$u20$core..ops..try_trait..Try$GT$6branch17h17f76718d8230e7dE', symObjAddr: 0x4D10, symBinAddr: 0x2B10C, symSize: 0xC8 }
  - { offsetInCU: 0x77E0, offset: 0xA90EE, size: 0x8, addend: 0x0, symName: '__ZN79_$LT$core..result..Result$LT$T$C$E$GT$$u20$as$u20$core..ops..try_trait..Try$GT$6branch17h2960afce1cf02f49E', symObjAddr: 0x4DD8, symBinAddr: 0x2B1D4, symSize: 0xA0 }
  - { offsetInCU: 0x785D, offset: 0xA916B, size: 0x8, addend: 0x0, symName: '__ZN79_$LT$core..result..Result$LT$T$C$E$GT$$u20$as$u20$core..ops..try_trait..Try$GT$6branch17h2980f5f70104139aE', symObjAddr: 0x4E78, symBinAddr: 0x2B274, symSize: 0xA0 }
  - { offsetInCU: 0x78DA, offset: 0xA91E8, size: 0x8, addend: 0x0, symName: '__ZN79_$LT$core..result..Result$LT$T$C$E$GT$$u20$as$u20$core..ops..try_trait..Try$GT$6branch17h2b1a99a6661473d0E', symObjAddr: 0x4F18, symBinAddr: 0x2B314, symSize: 0x88 }
  - { offsetInCU: 0x7958, offset: 0xA9266, size: 0x8, addend: 0x0, symName: '__ZN79_$LT$core..result..Result$LT$T$C$E$GT$$u20$as$u20$core..ops..try_trait..Try$GT$6branch17h2dcaf9c8384cdcfeE', symObjAddr: 0x4FA0, symBinAddr: 0x2B39C, symSize: 0xA0 }
  - { offsetInCU: 0x79D5, offset: 0xA92E3, size: 0x8, addend: 0x0, symName: '__ZN79_$LT$core..result..Result$LT$T$C$E$GT$$u20$as$u20$core..ops..try_trait..Try$GT$6branch17h314e6556df816217E', symObjAddr: 0x5040, symBinAddr: 0x2B43C, symSize: 0x88 }
  - { offsetInCU: 0x7A53, offset: 0xA9361, size: 0x8, addend: 0x0, symName: '__ZN79_$LT$core..result..Result$LT$T$C$E$GT$$u20$as$u20$core..ops..try_trait..Try$GT$6branch17h3b731f62c7fd45dfE', symObjAddr: 0x50C8, symBinAddr: 0x2B4C4, symSize: 0xC8 }
  - { offsetInCU: 0x7AD1, offset: 0xA93DF, size: 0x8, addend: 0x0, symName: '__ZN79_$LT$core..result..Result$LT$T$C$E$GT$$u20$as$u20$core..ops..try_trait..Try$GT$6branch17h43a0d97cd3bd1b94E', symObjAddr: 0x5190, symBinAddr: 0x2B58C, symSize: 0x88 }
  - { offsetInCU: 0x7B4F, offset: 0xA945D, size: 0x8, addend: 0x0, symName: '__ZN79_$LT$core..result..Result$LT$T$C$E$GT$$u20$as$u20$core..ops..try_trait..Try$GT$6branch17h47cb9ba277b043a3E', symObjAddr: 0x5218, symBinAddr: 0x2B614, symSize: 0xA0 }
  - { offsetInCU: 0x7BCC, offset: 0xA94DA, size: 0x8, addend: 0x0, symName: '__ZN79_$LT$core..result..Result$LT$T$C$E$GT$$u20$as$u20$core..ops..try_trait..Try$GT$6branch17h48f7e8ca2847bc83E', symObjAddr: 0x52B8, symBinAddr: 0x2B6B4, symSize: 0x44 }
  - { offsetInCU: 0x7C48, offset: 0xA9556, size: 0x8, addend: 0x0, symName: '__ZN79_$LT$core..result..Result$LT$T$C$E$GT$$u20$as$u20$core..ops..try_trait..Try$GT$6branch17h4914dc29ed845088E', symObjAddr: 0x52FC, symBinAddr: 0x2B6F8, symSize: 0xC8 }
  - { offsetInCU: 0x7CC7, offset: 0xA95D5, size: 0x8, addend: 0x0, symName: '__ZN79_$LT$core..result..Result$LT$T$C$E$GT$$u20$as$u20$core..ops..try_trait..Try$GT$6branch17h49658c73bce65a14E', symObjAddr: 0x53C4, symBinAddr: 0x2B7C0, symSize: 0xA0 }
  - { offsetInCU: 0x7D44, offset: 0xA9652, size: 0x8, addend: 0x0, symName: '__ZN79_$LT$core..result..Result$LT$T$C$E$GT$$u20$as$u20$core..ops..try_trait..Try$GT$6branch17h5cd8564696a68656E', symObjAddr: 0x5464, symBinAddr: 0x2B860, symSize: 0xA0 }
  - { offsetInCU: 0x7DC1, offset: 0xA96CF, size: 0x8, addend: 0x0, symName: '__ZN79_$LT$core..result..Result$LT$T$C$E$GT$$u20$as$u20$core..ops..try_trait..Try$GT$6branch17h60c8c59a803fe4aeE', symObjAddr: 0x5504, symBinAddr: 0x2B900, symSize: 0xA0 }
  - { offsetInCU: 0x7E3E, offset: 0xA974C, size: 0x8, addend: 0x0, symName: '__ZN79_$LT$core..result..Result$LT$T$C$E$GT$$u20$as$u20$core..ops..try_trait..Try$GT$6branch17h62a85c1aa68f88a3E', symObjAddr: 0x55A4, symBinAddr: 0x2B9A0, symSize: 0x88 }
  - { offsetInCU: 0x7EBC, offset: 0xA97CA, size: 0x8, addend: 0x0, symName: '__ZN79_$LT$core..result..Result$LT$T$C$E$GT$$u20$as$u20$core..ops..try_trait..Try$GT$6branch17h66cc9ec433e1fb4cE', symObjAddr: 0x562C, symBinAddr: 0x2BA28, symSize: 0xC8 }
  - { offsetInCU: 0x7F3A, offset: 0xA9848, size: 0x8, addend: 0x0, symName: '__ZN79_$LT$core..result..Result$LT$T$C$E$GT$$u20$as$u20$core..ops..try_trait..Try$GT$6branch17h6dd282f72d3638beE', symObjAddr: 0x56F4, symBinAddr: 0x2BAF0, symSize: 0xA0 }
  - { offsetInCU: 0x7FB7, offset: 0xA98C5, size: 0x8, addend: 0x0, symName: '__ZN79_$LT$core..result..Result$LT$T$C$E$GT$$u20$as$u20$core..ops..try_trait..Try$GT$6branch17h6f9fea1ded0e7bc0E', symObjAddr: 0x5794, symBinAddr: 0x2BB90, symSize: 0x88 }
  - { offsetInCU: 0x8035, offset: 0xA9943, size: 0x8, addend: 0x0, symName: '__ZN79_$LT$core..result..Result$LT$T$C$E$GT$$u20$as$u20$core..ops..try_trait..Try$GT$6branch17h71ab179b75d19879E', symObjAddr: 0x581C, symBinAddr: 0x2BC18, symSize: 0xC4 }
  - { offsetInCU: 0x80B3, offset: 0xA99C1, size: 0x8, addend: 0x0, symName: '__ZN79_$LT$core..result..Result$LT$T$C$E$GT$$u20$as$u20$core..ops..try_trait..Try$GT$6branch17h72d90841a4542f21E', symObjAddr: 0x58E0, symBinAddr: 0x2BCDC, symSize: 0xA0 }
  - { offsetInCU: 0x8130, offset: 0xA9A3E, size: 0x8, addend: 0x0, symName: '__ZN79_$LT$core..result..Result$LT$T$C$E$GT$$u20$as$u20$core..ops..try_trait..Try$GT$6branch17h761553855cd528b7E', symObjAddr: 0x5980, symBinAddr: 0x2BD7C, symSize: 0xA0 }
  - { offsetInCU: 0x81AD, offset: 0xA9ABB, size: 0x8, addend: 0x0, symName: '__ZN79_$LT$core..result..Result$LT$T$C$E$GT$$u20$as$u20$core..ops..try_trait..Try$GT$6branch17h763f3c5e9f0e6ca8E', symObjAddr: 0x5A20, symBinAddr: 0x2BE1C, symSize: 0xA0 }
  - { offsetInCU: 0x822A, offset: 0xA9B38, size: 0x8, addend: 0x0, symName: '__ZN79_$LT$core..result..Result$LT$T$C$E$GT$$u20$as$u20$core..ops..try_trait..Try$GT$6branch17h7863f1b22d7d46faE', symObjAddr: 0x5AC0, symBinAddr: 0x2BEBC, symSize: 0xA0 }
  - { offsetInCU: 0x82A7, offset: 0xA9BB5, size: 0x8, addend: 0x0, symName: '__ZN79_$LT$core..result..Result$LT$T$C$E$GT$$u20$as$u20$core..ops..try_trait..Try$GT$6branch17h7e918efb54a3a993E', symObjAddr: 0x5B60, symBinAddr: 0x2BF5C, symSize: 0x88 }
  - { offsetInCU: 0x8325, offset: 0xA9C33, size: 0x8, addend: 0x0, symName: '__ZN79_$LT$core..result..Result$LT$T$C$E$GT$$u20$as$u20$core..ops..try_trait..Try$GT$6branch17h8147560cae72e4edE', symObjAddr: 0x5BE8, symBinAddr: 0x2BFE4, symSize: 0x3C }
  - { offsetInCU: 0x8383, offset: 0xA9C91, size: 0x8, addend: 0x0, symName: '__ZN79_$LT$core..result..Result$LT$T$C$E$GT$$u20$as$u20$core..ops..try_trait..Try$GT$6branch17h81bfcf61eb7070faE', symObjAddr: 0x5C24, symBinAddr: 0x2C020, symSize: 0xA0 }
  - { offsetInCU: 0x8400, offset: 0xA9D0E, size: 0x8, addend: 0x0, symName: '__ZN79_$LT$core..result..Result$LT$T$C$E$GT$$u20$as$u20$core..ops..try_trait..Try$GT$6branch17h833dd4f029bbbb2aE', symObjAddr: 0x5CC4, symBinAddr: 0x2C0C0, symSize: 0xC8 }
  - { offsetInCU: 0x847F, offset: 0xA9D8D, size: 0x8, addend: 0x0, symName: '__ZN79_$LT$core..result..Result$LT$T$C$E$GT$$u20$as$u20$core..ops..try_trait..Try$GT$6branch17h83b73a2d8bca4a97E', symObjAddr: 0x5D8C, symBinAddr: 0x2C188, symSize: 0xA0 }
  - { offsetInCU: 0x84FC, offset: 0xA9E0A, size: 0x8, addend: 0x0, symName: '__ZN79_$LT$core..result..Result$LT$T$C$E$GT$$u20$as$u20$core..ops..try_trait..Try$GT$6branch17h88cc3dae82b64f56E', symObjAddr: 0x5E2C, symBinAddr: 0x2C228, symSize: 0xA0 }
  - { offsetInCU: 0x8579, offset: 0xA9E87, size: 0x8, addend: 0x0, symName: '__ZN79_$LT$core..result..Result$LT$T$C$E$GT$$u20$as$u20$core..ops..try_trait..Try$GT$6branch17h8e9f9aabbef271e3E', symObjAddr: 0x5ECC, symBinAddr: 0x2C2C8, symSize: 0xA0 }
  - { offsetInCU: 0x85F6, offset: 0xA9F04, size: 0x8, addend: 0x0, symName: '__ZN79_$LT$core..result..Result$LT$T$C$E$GT$$u20$as$u20$core..ops..try_trait..Try$GT$6branch17h91ab5ab969046f2eE', symObjAddr: 0x5F6C, symBinAddr: 0x2C368, symSize: 0xA0 }
  - { offsetInCU: 0x8673, offset: 0xA9F81, size: 0x8, addend: 0x0, symName: '__ZN79_$LT$core..result..Result$LT$T$C$E$GT$$u20$as$u20$core..ops..try_trait..Try$GT$6branch17h9a320557589ff751E', symObjAddr: 0x600C, symBinAddr: 0x2C408, symSize: 0xA0 }
  - { offsetInCU: 0x86F0, offset: 0xA9FFE, size: 0x8, addend: 0x0, symName: '__ZN79_$LT$core..result..Result$LT$T$C$E$GT$$u20$as$u20$core..ops..try_trait..Try$GT$6branch17ha28b7ba10cc7ce3aE', symObjAddr: 0x60AC, symBinAddr: 0x2C4A8, symSize: 0x88 }
  - { offsetInCU: 0x876E, offset: 0xAA07C, size: 0x8, addend: 0x0, symName: '__ZN79_$LT$core..result..Result$LT$T$C$E$GT$$u20$as$u20$core..ops..try_trait..Try$GT$6branch17ha4bfe3e083656b10E', symObjAddr: 0x6134, symBinAddr: 0x2C530, symSize: 0xB4 }
  - { offsetInCU: 0x87EC, offset: 0xAA0FA, size: 0x8, addend: 0x0, symName: '__ZN79_$LT$core..result..Result$LT$T$C$E$GT$$u20$as$u20$core..ops..try_trait..Try$GT$6branch17ha8376692178052a9E', symObjAddr: 0x61E8, symBinAddr: 0x2C5E4, symSize: 0xA0 }
  - { offsetInCU: 0x8869, offset: 0xAA177, size: 0x8, addend: 0x0, symName: '__ZN79_$LT$core..result..Result$LT$T$C$E$GT$$u20$as$u20$core..ops..try_trait..Try$GT$6branch17hb40721fbad112c2eE', symObjAddr: 0x6288, symBinAddr: 0x2C684, symSize: 0xA0 }
  - { offsetInCU: 0x88E6, offset: 0xAA1F4, size: 0x8, addend: 0x0, symName: '__ZN79_$LT$core..result..Result$LT$T$C$E$GT$$u20$as$u20$core..ops..try_trait..Try$GT$6branch17hb698fdef31aadcf7E', symObjAddr: 0x6328, symBinAddr: 0x2C724, symSize: 0x88 }
  - { offsetInCU: 0x8964, offset: 0xAA272, size: 0x8, addend: 0x0, symName: '__ZN79_$LT$core..result..Result$LT$T$C$E$GT$$u20$as$u20$core..ops..try_trait..Try$GT$6branch17hb7fe842e018d36bfE', symObjAddr: 0x63B0, symBinAddr: 0x2C7AC, symSize: 0x44 }
  - { offsetInCU: 0x89E0, offset: 0xAA2EE, size: 0x8, addend: 0x0, symName: '__ZN79_$LT$core..result..Result$LT$T$C$E$GT$$u20$as$u20$core..ops..try_trait..Try$GT$6branch17hb9a750b38c746d7aE', symObjAddr: 0x63F4, symBinAddr: 0x2C7F0, symSize: 0xA0 }
  - { offsetInCU: 0x8A5D, offset: 0xAA36B, size: 0x8, addend: 0x0, symName: '__ZN79_$LT$core..result..Result$LT$T$C$E$GT$$u20$as$u20$core..ops..try_trait..Try$GT$6branch17hbfc3c32d45f308e1E', symObjAddr: 0x6494, symBinAddr: 0x2C890, symSize: 0x44 }
  - { offsetInCU: 0x8AD9, offset: 0xAA3E7, size: 0x8, addend: 0x0, symName: '__ZN79_$LT$core..result..Result$LT$T$C$E$GT$$u20$as$u20$core..ops..try_trait..Try$GT$6branch17hc409a1df487aae88E', symObjAddr: 0x64D8, symBinAddr: 0x2C8D4, symSize: 0xB4 }
  - { offsetInCU: 0x8B57, offset: 0xAA465, size: 0x8, addend: 0x0, symName: '__ZN79_$LT$core..result..Result$LT$T$C$E$GT$$u20$as$u20$core..ops..try_trait..Try$GT$6branch17hc516719533cab1ceE', symObjAddr: 0x658C, symBinAddr: 0x2C988, symSize: 0xC8 }
  - { offsetInCU: 0x8BD6, offset: 0xAA4E4, size: 0x8, addend: 0x0, symName: '__ZN79_$LT$core..result..Result$LT$T$C$E$GT$$u20$as$u20$core..ops..try_trait..Try$GT$6branch17hc631ac70e4464d56E', symObjAddr: 0x6654, symBinAddr: 0x2CA50, symSize: 0xC4 }
  - { offsetInCU: 0x8C54, offset: 0xAA562, size: 0x8, addend: 0x0, symName: '__ZN79_$LT$core..result..Result$LT$T$C$E$GT$$u20$as$u20$core..ops..try_trait..Try$GT$6branch17hc76ad5d390c08e4cE', symObjAddr: 0x6718, symBinAddr: 0x2CB14, symSize: 0xA0 }
  - { offsetInCU: 0x8CD1, offset: 0xAA5DF, size: 0x8, addend: 0x0, symName: '__ZN79_$LT$core..result..Result$LT$T$C$E$GT$$u20$as$u20$core..ops..try_trait..Try$GT$6branch17hd05aa5cd55126ebcE', symObjAddr: 0x67B8, symBinAddr: 0x2CBB4, symSize: 0xA0 }
  - { offsetInCU: 0x8D4E, offset: 0xAA65C, size: 0x8, addend: 0x0, symName: '__ZN79_$LT$core..result..Result$LT$T$C$E$GT$$u20$as$u20$core..ops..try_trait..Try$GT$6branch17hd166c7d5bdc2849bE', symObjAddr: 0x6858, symBinAddr: 0x2CC54, symSize: 0xB4 }
  - { offsetInCU: 0x8DCC, offset: 0xAA6DA, size: 0x8, addend: 0x0, symName: '__ZN79_$LT$core..result..Result$LT$T$C$E$GT$$u20$as$u20$core..ops..try_trait..Try$GT$6branch17hd440e5f1c8e956a0E', symObjAddr: 0x690C, symBinAddr: 0x2CD08, symSize: 0xC8 }
  - { offsetInCU: 0x8E4A, offset: 0xAA758, size: 0x8, addend: 0x0, symName: '__ZN79_$LT$core..result..Result$LT$T$C$E$GT$$u20$as$u20$core..ops..try_trait..Try$GT$6branch17hd4c48f6c8bfdc118E', symObjAddr: 0x69D4, symBinAddr: 0x2CDD0, symSize: 0xCC }
  - { offsetInCU: 0x8EC8, offset: 0xAA7D6, size: 0x8, addend: 0x0, symName: '__ZN79_$LT$core..result..Result$LT$T$C$E$GT$$u20$as$u20$core..ops..try_trait..Try$GT$6branch17hd6a2eae99454c55aE', symObjAddr: 0x6AA0, symBinAddr: 0x2CE9C, symSize: 0x88 }
  - { offsetInCU: 0x8F46, offset: 0xAA854, size: 0x8, addend: 0x0, symName: '__ZN79_$LT$core..result..Result$LT$T$C$E$GT$$u20$as$u20$core..ops..try_trait..Try$GT$6branch17hd87472ea08d269bfE', symObjAddr: 0x6B28, symBinAddr: 0x2CF24, symSize: 0xA0 }
  - { offsetInCU: 0x8FC3, offset: 0xAA8D1, size: 0x8, addend: 0x0, symName: '__ZN79_$LT$core..result..Result$LT$T$C$E$GT$$u20$as$u20$core..ops..try_trait..Try$GT$6branch17hda942e6578f6488fE', symObjAddr: 0x6BC8, symBinAddr: 0x2CFC4, symSize: 0xA0 }
  - { offsetInCU: 0x9040, offset: 0xAA94E, size: 0x8, addend: 0x0, symName: '__ZN79_$LT$core..result..Result$LT$T$C$E$GT$$u20$as$u20$core..ops..try_trait..Try$GT$6branch17hdac2f16a13331937E', symObjAddr: 0x6C68, symBinAddr: 0x2D064, symSize: 0x44 }
  - { offsetInCU: 0x90BC, offset: 0xAA9CA, size: 0x8, addend: 0x0, symName: '__ZN79_$LT$core..result..Result$LT$T$C$E$GT$$u20$as$u20$core..ops..try_trait..Try$GT$6branch17hde130c9daedc9e4cE', symObjAddr: 0x6CAC, symBinAddr: 0x2D0A8, symSize: 0xA0 }
  - { offsetInCU: 0x9139, offset: 0xAAA47, size: 0x8, addend: 0x0, symName: '__ZN79_$LT$core..result..Result$LT$T$C$E$GT$$u20$as$u20$core..ops..try_trait..Try$GT$6branch17hdf8be2e52bbf21e9E', symObjAddr: 0x6D4C, symBinAddr: 0x2D148, symSize: 0xA0 }
  - { offsetInCU: 0x91B6, offset: 0xAAAC4, size: 0x8, addend: 0x0, symName: '__ZN79_$LT$core..result..Result$LT$T$C$E$GT$$u20$as$u20$core..ops..try_trait..Try$GT$6branch17he124f771b03304cfE', symObjAddr: 0x6DEC, symBinAddr: 0x2D1E8, symSize: 0x44 }
  - { offsetInCU: 0x9232, offset: 0xAAB40, size: 0x8, addend: 0x0, symName: '__ZN79_$LT$core..result..Result$LT$T$C$E$GT$$u20$as$u20$core..ops..try_trait..Try$GT$6branch17he23714bca50e2401E', symObjAddr: 0x6E30, symBinAddr: 0x2D22C, symSize: 0xC8 }
  - { offsetInCU: 0x92B1, offset: 0xAABBF, size: 0x8, addend: 0x0, symName: '__ZN79_$LT$core..result..Result$LT$T$C$E$GT$$u20$as$u20$core..ops..try_trait..Try$GT$6branch17he458d91a2ac7bcedE', symObjAddr: 0x6EF8, symBinAddr: 0x2D2F4, symSize: 0xA0 }
  - { offsetInCU: 0x932E, offset: 0xAAC3C, size: 0x8, addend: 0x0, symName: '__ZN79_$LT$core..result..Result$LT$T$C$E$GT$$u20$as$u20$core..ops..try_trait..Try$GT$6branch17he83ef98574f20bbdE', symObjAddr: 0x6F98, symBinAddr: 0x2D394, symSize: 0xA0 }
  - { offsetInCU: 0x93AB, offset: 0xAACB9, size: 0x8, addend: 0x0, symName: '__ZN79_$LT$core..result..Result$LT$T$C$E$GT$$u20$as$u20$core..ops..try_trait..Try$GT$6branch17head9402df00883b9E', symObjAddr: 0x7038, symBinAddr: 0x2D434, symSize: 0xA0 }
  - { offsetInCU: 0x9428, offset: 0xAAD36, size: 0x8, addend: 0x0, symName: '__ZN79_$LT$core..result..Result$LT$T$C$E$GT$$u20$as$u20$core..ops..try_trait..Try$GT$6branch17hec0fe3c896ef5647E', symObjAddr: 0x70D8, symBinAddr: 0x2D4D4, symSize: 0xA0 }
  - { offsetInCU: 0x94A5, offset: 0xAADB3, size: 0x8, addend: 0x0, symName: '__ZN79_$LT$core..result..Result$LT$T$C$E$GT$$u20$as$u20$core..ops..try_trait..Try$GT$6branch17hecd945336e6e6442E', symObjAddr: 0x7178, symBinAddr: 0x2D574, symSize: 0x44 }
  - { offsetInCU: 0x9521, offset: 0xAAE2F, size: 0x8, addend: 0x0, symName: '__ZN79_$LT$core..result..Result$LT$T$C$E$GT$$u20$as$u20$core..ops..try_trait..Try$GT$6branch17hf15f543ab6ce6c40E', symObjAddr: 0x71BC, symBinAddr: 0x2D5B8, symSize: 0xA0 }
  - { offsetInCU: 0x959E, offset: 0xAAEAC, size: 0x8, addend: 0x0, symName: '__ZN79_$LT$core..result..Result$LT$T$C$E$GT$$u20$as$u20$core..ops..try_trait..Try$GT$6branch17hf261f59f2d6e3067E', symObjAddr: 0x725C, symBinAddr: 0x2D658, symSize: 0x88 }
  - { offsetInCU: 0x961C, offset: 0xAAF2A, size: 0x8, addend: 0x0, symName: '__ZN79_$LT$core..result..Result$LT$T$C$E$GT$$u20$as$u20$core..ops..try_trait..Try$GT$6branch17hf9598201872116c0E', symObjAddr: 0x72E4, symBinAddr: 0x2D6E0, symSize: 0xA0 }
  - { offsetInCU: 0xE2AD, offset: 0xAFBBB, size: 0x8, addend: 0x0, symName: '__ZN106_$LT$core..result..Result$LT$T$C$E$GT$$u20$as$u20$pyo3..impl_..callback..IntoPyCallbackOutput$LT$U$GT$$GT$7convert17h2efc05c414e83719E', symObjAddr: 0x0, symBinAddr: 0x26404, symSize: 0xF0 }
  - { offsetInCU: 0xE34C, offset: 0xAFC5A, size: 0x8, addend: 0x0, symName: '__ZN106_$LT$core..result..Result$LT$T$C$E$GT$$u20$as$u20$pyo3..impl_..callback..IntoPyCallbackOutput$LT$U$GT$$GT$7convert17h67cfabb05764f91cE', symObjAddr: 0xF0, symBinAddr: 0x264F4, symSize: 0xC4 }
  - { offsetInCU: 0xE3EA, offset: 0xAFCF8, size: 0x8, addend: 0x0, symName: '__ZN106_$LT$core..result..Result$LT$T$C$E$GT$$u20$as$u20$pyo3..impl_..callback..IntoPyCallbackOutput$LT$U$GT$$GT$7convert17hc6d29672a63f3d32E', symObjAddr: 0x1B4, symBinAddr: 0x265B8, symSize: 0xF4 }
  - { offsetInCU: 0xE489, offset: 0xAFD97, size: 0x8, addend: 0x0, symName: '__ZN106_$LT$core..result..Result$LT$T$C$E$GT$$u20$as$u20$pyo3..impl_..callback..IntoPyCallbackOutput$LT$U$GT$$GT$7convert17hd01acd0a791b2251E', symObjAddr: 0x2A8, symBinAddr: 0x266AC, symSize: 0xF4 }
  - { offsetInCU: 0x10E8D, offset: 0xB279B, size: 0x8, addend: 0x0, symName: '__ZN4core6result19Result$LT$T$C$E$GT$14unwrap_or_else17h107b8b5cf802e1e0E', symObjAddr: 0x1B94, symBinAddr: 0x27F90, symSize: 0x8C }
  - { offsetInCU: 0x10EF9, offset: 0xB2807, size: 0x8, addend: 0x0, symName: '__ZN4core6result19Result$LT$T$C$E$GT$14unwrap_or_else17h1088e1b66774030eE', symObjAddr: 0x1C20, symBinAddr: 0x2801C, symSize: 0x8C }
  - { offsetInCU: 0x10F65, offset: 0xB2873, size: 0x8, addend: 0x0, symName: '__ZN4core6result19Result$LT$T$C$E$GT$14unwrap_or_else17h307e72df266941c8E', symObjAddr: 0x1CAC, symBinAddr: 0x280A8, symSize: 0x8C }
  - { offsetInCU: 0x10FD1, offset: 0xB28DF, size: 0x8, addend: 0x0, symName: '__ZN4core6result19Result$LT$T$C$E$GT$14unwrap_or_else17h3ce7e2915e6d828bE', symObjAddr: 0x1D38, symBinAddr: 0x28134, symSize: 0x8C }
  - { offsetInCU: 0x1103D, offset: 0xB294B, size: 0x8, addend: 0x0, symName: '__ZN4core6result19Result$LT$T$C$E$GT$14unwrap_or_else17h7b9720d25f8bf7a0E', symObjAddr: 0x1DC4, symBinAddr: 0x281C0, symSize: 0x8C }
  - { offsetInCU: 0x110A9, offset: 0xB29B7, size: 0x8, addend: 0x0, symName: '__ZN4core6result19Result$LT$T$C$E$GT$14unwrap_or_else17h7b9a4ada21df9cb1E', symObjAddr: 0x1E50, symBinAddr: 0x2824C, symSize: 0x8C }
  - { offsetInCU: 0x11115, offset: 0xB2A23, size: 0x8, addend: 0x0, symName: '__ZN4core6result19Result$LT$T$C$E$GT$14unwrap_or_else17ha05e676e6f10ac0bE', symObjAddr: 0x1EDC, symBinAddr: 0x282D8, symSize: 0x8C }
  - { offsetInCU: 0x11181, offset: 0xB2A8F, size: 0x8, addend: 0x0, symName: '__ZN4core6result19Result$LT$T$C$E$GT$14unwrap_or_else17hcca7a1c1a5492464E', symObjAddr: 0x1F68, symBinAddr: 0x28364, symSize: 0x8C }
  - { offsetInCU: 0x111ED, offset: 0xB2AFB, size: 0x8, addend: 0x0, symName: '__ZN4core6result19Result$LT$T$C$E$GT$14unwrap_or_else17hdcd6c0b6956ec5ddE', symObjAddr: 0x1FF4, symBinAddr: 0x283F0, symSize: 0x8C }
  - { offsetInCU: 0x11259, offset: 0xB2B67, size: 0x8, addend: 0x0, symName: '__ZN4core6result19Result$LT$T$C$E$GT$14unwrap_or_else17he295e5715bff354dE', symObjAddr: 0x2080, symBinAddr: 0x2847C, symSize: 0x8C }
  - { offsetInCU: 0x112C5, offset: 0xB2BD3, size: 0x8, addend: 0x0, symName: '__ZN4core6result19Result$LT$T$C$E$GT$14unwrap_or_else17hea81a88670ce2393E', symObjAddr: 0x210C, symBinAddr: 0x28508, symSize: 0x8C }
  - { offsetInCU: 0x11331, offset: 0xB2C3F, size: 0x8, addend: 0x0, symName: '__ZN4core6result19Result$LT$T$C$E$GT$14unwrap_or_else17hf3a1f2422425d13dE', symObjAddr: 0x2198, symBinAddr: 0x28594, symSize: 0x8C }
  - { offsetInCU: 0x115C1, offset: 0xB2ECF, size: 0x8, addend: 0x0, symName: '__ZN4core6result19Result$LT$T$C$E$GT$3map17h03326211028761b6E', symObjAddr: 0x2224, symBinAddr: 0x28620, symSize: 0x90 }
  - { offsetInCU: 0x11661, offset: 0xB2F6F, size: 0x8, addend: 0x0, symName: '__ZN4core6result19Result$LT$T$C$E$GT$3map17h05ef5622b5125dc3E', symObjAddr: 0x22B4, symBinAddr: 0x286B0, symSize: 0x4C }
  - { offsetInCU: 0x11725, offset: 0xB3033, size: 0x8, addend: 0x0, symName: '__ZN4core6result19Result$LT$T$C$E$GT$3map17h0bdd77b05ccec2d2E', symObjAddr: 0x2300, symBinAddr: 0x286FC, symSize: 0x4C }
  - { offsetInCU: 0x119BC, offset: 0xB32CA, size: 0x8, addend: 0x0, symName: '__ZN4core6result19Result$LT$T$C$E$GT$3map17h0f8986d140e68c9fE', symObjAddr: 0x234C, symBinAddr: 0x28748, symSize: 0x38 }
  - { offsetInCU: 0x11A6D, offset: 0xB337B, size: 0x8, addend: 0x0, symName: '__ZN4core6result19Result$LT$T$C$E$GT$3map17h19ccb87ec1263748E', symObjAddr: 0x2384, symBinAddr: 0x28780, symSize: 0x4C }
  - { offsetInCU: 0x11B17, offset: 0xB3425, size: 0x8, addend: 0x0, symName: '__ZN4core6result19Result$LT$T$C$E$GT$3map17h1e7f3a2562e9bf77E', symObjAddr: 0x23D0, symBinAddr: 0x287CC, symSize: 0x90 }
  - { offsetInCU: 0x11BCF, offset: 0xB34DD, size: 0x8, addend: 0x0, symName: '__ZN4core6result19Result$LT$T$C$E$GT$3map17h21daacf02c441d84E', symObjAddr: 0x2460, symBinAddr: 0x2885C, symSize: 0x38 }
  - { offsetInCU: 0x11C5B, offset: 0xB3569, size: 0x8, addend: 0x0, symName: '__ZN4core6result19Result$LT$T$C$E$GT$3map17h339df5b889e4dba0E', symObjAddr: 0x2498, symBinAddr: 0x28894, symSize: 0x38 }
  - { offsetInCU: 0x11CE7, offset: 0xB35F5, size: 0x8, addend: 0x0, symName: '__ZN4core6result19Result$LT$T$C$E$GT$3map17h345aca953948a695E', symObjAddr: 0x24D0, symBinAddr: 0x288CC, symSize: 0xD8 }
  - { offsetInCU: 0x11D89, offset: 0xB3697, size: 0x8, addend: 0x0, symName: '__ZN4core6result19Result$LT$T$C$E$GT$3map17h352d68650bbad8acE', symObjAddr: 0x25A8, symBinAddr: 0x289A4, symSize: 0x4C }
  - { offsetInCU: 0x11E33, offset: 0xB3741, size: 0x8, addend: 0x0, symName: '__ZN4core6result19Result$LT$T$C$E$GT$3map17h41d2495737a5293aE', symObjAddr: 0x25F4, symBinAddr: 0x289F0, symSize: 0xA8 }
  - { offsetInCU: 0x11EE1, offset: 0xB37EF, size: 0x8, addend: 0x0, symName: '__ZN4core6result19Result$LT$T$C$E$GT$3map17h51517e26cb995b19E', symObjAddr: 0x269C, symBinAddr: 0x28A98, symSize: 0x4C }
  - { offsetInCU: 0x11F8B, offset: 0xB3899, size: 0x8, addend: 0x0, symName: '__ZN4core6result19Result$LT$T$C$E$GT$3map17h5c03b3f26c3101b5E', symObjAddr: 0x26E8, symBinAddr: 0x28AE4, symSize: 0x38 }
  - { offsetInCU: 0x11FFF, offset: 0xB390D, size: 0x8, addend: 0x0, symName: '__ZN4core6result19Result$LT$T$C$E$GT$3map17h5e3bd015f75c9342E', symObjAddr: 0x2720, symBinAddr: 0x28B1C, symSize: 0x90 }
  - { offsetInCU: 0x12092, offset: 0xB39A0, size: 0x8, addend: 0x0, symName: '__ZN4core6result19Result$LT$T$C$E$GT$3map17h618de53305d5ce89E', symObjAddr: 0x27B0, symBinAddr: 0x28BAC, symSize: 0x90 }
  - { offsetInCU: 0x1243E, offset: 0xB3D4C, size: 0x8, addend: 0x0, symName: '__ZN4core6result19Result$LT$T$C$E$GT$3map17h63df8e1126cd1eaaE', symObjAddr: 0x2840, symBinAddr: 0x28C3C, symSize: 0x4C }
  - { offsetInCU: 0x124DD, offset: 0xB3DEB, size: 0x8, addend: 0x0, symName: '__ZN4core6result19Result$LT$T$C$E$GT$3map17h7d28e387871b7638E', symObjAddr: 0x288C, symBinAddr: 0x28C88, symSize: 0x4C }
  - { offsetInCU: 0x1256F, offset: 0xB3E7D, size: 0x8, addend: 0x0, symName: '__ZN4core6result19Result$LT$T$C$E$GT$3map17h821341e0ad86945eE', symObjAddr: 0x28D8, symBinAddr: 0x28CD4, symSize: 0x4C }
  - { offsetInCU: 0x1260E, offset: 0xB3F1C, size: 0x8, addend: 0x0, symName: '__ZN4core6result19Result$LT$T$C$E$GT$3map17h84137dd95e695cc3E', symObjAddr: 0x2924, symBinAddr: 0x28D20, symSize: 0x4C }
  - { offsetInCU: 0x126B8, offset: 0xB3FC6, size: 0x8, addend: 0x0, symName: '__ZN4core6result19Result$LT$T$C$E$GT$3map17h8471fe0577b3a0f6E', symObjAddr: 0x2970, symBinAddr: 0x28D6C, symSize: 0x90 }
  - { offsetInCU: 0x12763, offset: 0xB4071, size: 0x8, addend: 0x0, symName: '__ZN4core6result19Result$LT$T$C$E$GT$3map17h84a943e93db448f5E', symObjAddr: 0x2A00, symBinAddr: 0x28DFC, symSize: 0x90 }
  - { offsetInCU: 0x12821, offset: 0xB412F, size: 0x8, addend: 0x0, symName: '__ZN4core6result19Result$LT$T$C$E$GT$3map17h8503253361c7f01bE', symObjAddr: 0x2A90, symBinAddr: 0x28E8C, symSize: 0x4C }
  - { offsetInCU: 0x128CB, offset: 0xB41D9, size: 0x8, addend: 0x0, symName: '__ZN4core6result19Result$LT$T$C$E$GT$3map17h86ca7a0b71da9e2fE', symObjAddr: 0x2ADC, symBinAddr: 0x28ED8, symSize: 0x90 }
  - { offsetInCU: 0x12976, offset: 0xB4284, size: 0x8, addend: 0x0, symName: '__ZN4core6result19Result$LT$T$C$E$GT$3map17h89bf3d7ee147a706E', symObjAddr: 0x2B6C, symBinAddr: 0x28F68, symSize: 0x38 }
  - { offsetInCU: 0x12A02, offset: 0xB4310, size: 0x8, addend: 0x0, symName: '__ZN4core6result19Result$LT$T$C$E$GT$3map17h9a481c0db342cf94E', symObjAddr: 0x2BA4, symBinAddr: 0x28FA0, symSize: 0x38 }
  - { offsetInCU: 0x12A83, offset: 0xB4391, size: 0x8, addend: 0x0, symName: '__ZN4core6result19Result$LT$T$C$E$GT$3map17ha0e0b8c534efd109E', symObjAddr: 0x2BDC, symBinAddr: 0x28FD8, symSize: 0x4C }
  - { offsetInCU: 0x12B2D, offset: 0xB443B, size: 0x8, addend: 0x0, symName: '__ZN4core6result19Result$LT$T$C$E$GT$3map17ha6cf211a9292dc6bE', symObjAddr: 0x2C28, symBinAddr: 0x29024, symSize: 0x90 }
  - { offsetInCU: 0x12BCD, offset: 0xB44DB, size: 0x8, addend: 0x0, symName: '__ZN4core6result19Result$LT$T$C$E$GT$3map17ha8eb5caea1059dd0E', symObjAddr: 0x2CB8, symBinAddr: 0x290B4, symSize: 0x4C }
  - { offsetInCU: 0x12C77, offset: 0xB4585, size: 0x8, addend: 0x0, symName: '__ZN4core6result19Result$LT$T$C$E$GT$3map17hab26a7eda69bdabcE', symObjAddr: 0x2D04, symBinAddr: 0x29100, symSize: 0x90 }
  - { offsetInCU: 0x12D22, offset: 0xB4630, size: 0x8, addend: 0x0, symName: '__ZN4core6result19Result$LT$T$C$E$GT$3map17hac43e5de61ca2a1fE', symObjAddr: 0x2D94, symBinAddr: 0x29190, symSize: 0x90 }
  - { offsetInCU: 0x12DCD, offset: 0xB46DB, size: 0x8, addend: 0x0, symName: '__ZN4core6result19Result$LT$T$C$E$GT$3map17hb965cfafbea23a66E', symObjAddr: 0x2E24, symBinAddr: 0x29220, symSize: 0x90 }
  - { offsetInCU: 0x12E60, offset: 0xB476E, size: 0x8, addend: 0x0, symName: '__ZN4core6result19Result$LT$T$C$E$GT$3map17hc29ce8b2423b3f8fE', symObjAddr: 0x2EB4, symBinAddr: 0x292B0, symSize: 0x4C }
  - { offsetInCU: 0x12EFF, offset: 0xB480D, size: 0x8, addend: 0x0, symName: '__ZN4core6result19Result$LT$T$C$E$GT$3map17hc85d5f528985cdefE', symObjAddr: 0x2F00, symBinAddr: 0x292FC, symSize: 0x4C }
  - { offsetInCU: 0x12FA9, offset: 0xB48B7, size: 0x8, addend: 0x0, symName: '__ZN4core6result19Result$LT$T$C$E$GT$3map17hcbb62527309e0372E', symObjAddr: 0x2F4C, symBinAddr: 0x29348, symSize: 0x90 }
  - { offsetInCU: 0x13054, offset: 0xB4962, size: 0x8, addend: 0x0, symName: '__ZN4core6result19Result$LT$T$C$E$GT$3map17he2c402ed36b8305aE', symObjAddr: 0x2FDC, symBinAddr: 0x293D8, symSize: 0x38 }
  - { offsetInCU: 0x130C8, offset: 0xB49D6, size: 0x8, addend: 0x0, symName: '__ZN4core6result19Result$LT$T$C$E$GT$3map17hfcaac2e28ea1224fE', symObjAddr: 0x3014, symBinAddr: 0x29410, symSize: 0x4C }
  - { offsetInCU: 0x1318C, offset: 0xB4A9A, size: 0x8, addend: 0x0, symName: '__ZN4core6result19Result$LT$T$C$E$GT$6is_err17h703a8415da91039bE', symObjAddr: 0x3060, symBinAddr: 0x2945C, symSize: 0x20 }
  - { offsetInCU: 0x131F7, offset: 0xB4B05, size: 0x8, addend: 0x0, symName: '__ZN4core6result19Result$LT$T$C$E$GT$7map_err17h04e83762718386d9E', symObjAddr: 0x3080, symBinAddr: 0x2947C, symSize: 0x30 }
  - { offsetInCU: 0x1326D, offset: 0xB4B7B, size: 0x8, addend: 0x0, symName: '__ZN4core6result19Result$LT$T$C$E$GT$7map_err17h0d690a69d9a48297E', symObjAddr: 0x30B0, symBinAddr: 0x294AC, symSize: 0xCC }
  - { offsetInCU: 0x1331E, offset: 0xB4C2C, size: 0x8, addend: 0x0, symName: '__ZN4core6result19Result$LT$T$C$E$GT$7map_err17h1a304d167c80aa17E', symObjAddr: 0x317C, symBinAddr: 0x29578, symSize: 0x40 }
  - { offsetInCU: 0x13394, offset: 0xB4CA2, size: 0x8, addend: 0x0, symName: '__ZN4core6result19Result$LT$T$C$E$GT$7map_err17h1d865e406dad85a1E', symObjAddr: 0x31BC, symBinAddr: 0x295B8, symSize: 0x54 }
  - { offsetInCU: 0x13409, offset: 0xB4D17, size: 0x8, addend: 0x0, symName: '__ZN4core6result19Result$LT$T$C$E$GT$7map_err17h2803a8d98296bd85E', symObjAddr: 0x3210, symBinAddr: 0x2960C, symSize: 0x54 }
  - { offsetInCU: 0x1347E, offset: 0xB4D8C, size: 0x8, addend: 0x0, symName: '__ZN4core6result19Result$LT$T$C$E$GT$7map_err17h2ef80cb00aeac9b9E', symObjAddr: 0x3264, symBinAddr: 0x29660, symSize: 0x60 }
  - { offsetInCU: 0x1350B, offset: 0xB4E19, size: 0x8, addend: 0x0, symName: '__ZN4core6result19Result$LT$T$C$E$GT$7map_err17h3a26921f71207fe7E', symObjAddr: 0x32C4, symBinAddr: 0x296C0, symSize: 0x84 }
  - { offsetInCU: 0x1359D, offset: 0xB4EAB, size: 0x8, addend: 0x0, symName: '__ZN4core6result19Result$LT$T$C$E$GT$7map_err17h45fcdaf96fd362d3E', symObjAddr: 0x3348, symBinAddr: 0x29744, symSize: 0x40 }
  - { offsetInCU: 0x1362B, offset: 0xB4F39, size: 0x8, addend: 0x0, symName: '__ZN4core6result19Result$LT$T$C$E$GT$7map_err17h4e3e85b2e8310c2bE', symObjAddr: 0x3388, symBinAddr: 0x29784, symSize: 0x84 }
  - { offsetInCU: 0x136BD, offset: 0xB4FCB, size: 0x8, addend: 0x0, symName: '__ZN4core6result19Result$LT$T$C$E$GT$7map_err17h50db7625481a2d21E', symObjAddr: 0x340C, symBinAddr: 0x29808, symSize: 0x20 }
  - { offsetInCU: 0x13733, offset: 0xB5041, size: 0x8, addend: 0x0, symName: '__ZN4core6result19Result$LT$T$C$E$GT$7map_err17h5ec4d175f9cf361fE', symObjAddr: 0x342C, symBinAddr: 0x29828, symSize: 0x84 }
  - { offsetInCU: 0x137C5, offset: 0xB50D3, size: 0x8, addend: 0x0, symName: '__ZN4core6result19Result$LT$T$C$E$GT$7map_err17h617f212a82b2a1a3E', symObjAddr: 0x34B0, symBinAddr: 0x298AC, symSize: 0x84 }
  - { offsetInCU: 0x13857, offset: 0xB5165, size: 0x8, addend: 0x0, symName: '__ZN4core6result19Result$LT$T$C$E$GT$7map_err17h61a7e759890cf49dE', symObjAddr: 0x3534, symBinAddr: 0x29930, symSize: 0x84 }
  - { offsetInCU: 0x138E9, offset: 0xB51F7, size: 0x8, addend: 0x0, symName: '__ZN4core6result19Result$LT$T$C$E$GT$7map_err17h6a6fbf5289fc2c66E', symObjAddr: 0x35B8, symBinAddr: 0x299B4, symSize: 0x84 }
  - { offsetInCU: 0x1397B, offset: 0xB5289, size: 0x8, addend: 0x0, symName: '__ZN4core6result19Result$LT$T$C$E$GT$7map_err17h82c4124ec2309401E', symObjAddr: 0x363C, symBinAddr: 0x29A38, symSize: 0x30 }
  - { offsetInCU: 0x13A09, offset: 0xB5317, size: 0x8, addend: 0x0, symName: '__ZN4core6result19Result$LT$T$C$E$GT$7map_err17h888e90639e219498E', symObjAddr: 0x366C, symBinAddr: 0x29A68, symSize: 0xD4 }
  - { offsetInCU: 0x13A9E, offset: 0xB53AC, size: 0x8, addend: 0x0, symName: '__ZN4core6result19Result$LT$T$C$E$GT$7map_err17h8cc030cfd5ce0e5aE', symObjAddr: 0x3740, symBinAddr: 0x29B3C, symSize: 0x30 }
  - { offsetInCU: 0x13B32, offset: 0xB5440, size: 0x8, addend: 0x0, symName: '__ZN4core6result19Result$LT$T$C$E$GT$7map_err17h991d8fe2ab6908c7E', symObjAddr: 0x3770, symBinAddr: 0x29B6C, symSize: 0xCC }
  - { offsetInCU: 0x13BC6, offset: 0xB54D4, size: 0x8, addend: 0x0, symName: '__ZN4core6result19Result$LT$T$C$E$GT$7map_err17h9ab4362361a478a6E', symObjAddr: 0x383C, symBinAddr: 0x29C38, symSize: 0x30 }
  - { offsetInCU: 0x13C3C, offset: 0xB554A, size: 0x8, addend: 0x0, symName: '__ZN4core6result19Result$LT$T$C$E$GT$7map_err17hae72a7457f2d6b96E', symObjAddr: 0x386C, symBinAddr: 0x29C68, symSize: 0x84 }
  - { offsetInCU: 0x13CCE, offset: 0xB55DC, size: 0x8, addend: 0x0, symName: '__ZN4core6result19Result$LT$T$C$E$GT$7map_err17hafcd5ba6b4f00f88E', symObjAddr: 0x38F0, symBinAddr: 0x29CEC, symSize: 0x84 }
  - { offsetInCU: 0x13D60, offset: 0xB566E, size: 0x8, addend: 0x0, symName: '__ZN4core6result19Result$LT$T$C$E$GT$7map_err17hb2582a0b9bee634cE', symObjAddr: 0x3974, symBinAddr: 0x29D70, symSize: 0xE0 }
  - { offsetInCU: 0x13DF5, offset: 0xB5703, size: 0x8, addend: 0x0, symName: '__ZN4core6result19Result$LT$T$C$E$GT$7map_err17hb310d3693f9ab660E', symObjAddr: 0x3A54, symBinAddr: 0x29E50, symSize: 0x84 }
  - { offsetInCU: 0x13E87, offset: 0xB5795, size: 0x8, addend: 0x0, symName: '__ZN4core6result19Result$LT$T$C$E$GT$7map_err17hc22d5af0fc00212dE', symObjAddr: 0x3AD8, symBinAddr: 0x29ED4, symSize: 0x84 }
  - { offsetInCU: 0x13F19, offset: 0xB5827, size: 0x8, addend: 0x0, symName: '__ZN4core6result19Result$LT$T$C$E$GT$7map_err17hc5f18cfad1fd3473E', symObjAddr: 0x3B5C, symBinAddr: 0x29F58, symSize: 0x84 }
  - { offsetInCU: 0x13FAB, offset: 0xB58B9, size: 0x8, addend: 0x0, symName: '__ZN4core6result19Result$LT$T$C$E$GT$7map_err17hc6f360fd9dc2ada8E', symObjAddr: 0x3BE0, symBinAddr: 0x29FDC, symSize: 0x84 }
  - { offsetInCU: 0x1403D, offset: 0xB594B, size: 0x8, addend: 0x0, symName: '__ZN4core6result19Result$LT$T$C$E$GT$7map_err17hc9fb2de9aab35da5E', symObjAddr: 0x3C64, symBinAddr: 0x2A060, symSize: 0xE0 }
  - { offsetInCU: 0x140D2, offset: 0xB59E0, size: 0x8, addend: 0x0, symName: '__ZN4core6result19Result$LT$T$C$E$GT$7map_err17hce3ec01af535dcf8E', symObjAddr: 0x3D44, symBinAddr: 0x2A140, symSize: 0x84 }
  - { offsetInCU: 0x14164, offset: 0xB5A72, size: 0x8, addend: 0x0, symName: '__ZN4core6result19Result$LT$T$C$E$GT$7map_err17hd7e679b50456c14bE', symObjAddr: 0x3DC8, symBinAddr: 0x2A1C4, symSize: 0x84 }
  - { offsetInCU: 0x141F6, offset: 0xB5B04, size: 0x8, addend: 0x0, symName: '__ZN4core6result19Result$LT$T$C$E$GT$7map_err17hd9a2760e0e19b443E', symObjAddr: 0x3E4C, symBinAddr: 0x2A248, symSize: 0xB8 }
  - { offsetInCU: 0x14289, offset: 0xB5B97, size: 0x8, addend: 0x0, symName: '__ZN4core6result19Result$LT$T$C$E$GT$7map_err17hdb3b978ee7009dcfE', symObjAddr: 0x3F04, symBinAddr: 0x2A300, symSize: 0xDC }
  - { offsetInCU: 0x1431E, offset: 0xB5C2C, size: 0x8, addend: 0x0, symName: '__ZN4core6result19Result$LT$T$C$E$GT$7map_err17he1dd24447b66e095E', symObjAddr: 0x3FE0, symBinAddr: 0x2A3DC, symSize: 0x84 }
  - { offsetInCU: 0x143B0, offset: 0xB5CBE, size: 0x8, addend: 0x0, symName: '__ZN4core6result19Result$LT$T$C$E$GT$7map_err17hf7ab8d0dee8213daE', symObjAddr: 0x4064, symBinAddr: 0x2A460, symSize: 0xDC }
  - { offsetInCU: 0x14445, offset: 0xB5D53, size: 0x8, addend: 0x0, symName: '__ZN4core6result19Result$LT$T$C$E$GT$8and_then17h0596cba28b337823E', symObjAddr: 0x4140, symBinAddr: 0x2A53C, symSize: 0xD4 }
  - { offsetInCU: 0x144DA, offset: 0xB5DE8, size: 0x8, addend: 0x0, symName: '__ZN4core6result19Result$LT$T$C$E$GT$8and_then17h11b904632a314ea4E', symObjAddr: 0x4214, symBinAddr: 0x2A610, symSize: 0x9C }
  - { offsetInCU: 0x1456D, offset: 0xB5E7B, size: 0x8, addend: 0x0, symName: '__ZN4core6result19Result$LT$T$C$E$GT$8and_then17h12a8dd78a5d55ab6E', symObjAddr: 0x42B0, symBinAddr: 0x2A6AC, symSize: 0xD0 }
  - { offsetInCU: 0x14602, offset: 0xB5F10, size: 0x8, addend: 0x0, symName: '__ZN4core6result19Result$LT$T$C$E$GT$8and_then17h17b755b43d8d0634E', symObjAddr: 0x4380, symBinAddr: 0x2A77C, symSize: 0x94 }
  - { offsetInCU: 0x14695, offset: 0xB5FA3, size: 0x8, addend: 0x0, symName: '__ZN4core6result19Result$LT$T$C$E$GT$8and_then17h1b6ce69d7a8bbd72E', symObjAddr: 0x4414, symBinAddr: 0x2A810, symSize: 0xC8 }
  - { offsetInCU: 0x1472A, offset: 0xB6038, size: 0x8, addend: 0x0, symName: '__ZN4core6result19Result$LT$T$C$E$GT$8and_then17h239c15cd38a76d18E', symObjAddr: 0x44DC, symBinAddr: 0x2A8D8, symSize: 0xC8 }
  - { offsetInCU: 0x147BF, offset: 0xB60CD, size: 0x8, addend: 0x0, symName: '__ZN4core6result19Result$LT$T$C$E$GT$8and_then17h744d88f492ca38a0E', symObjAddr: 0x45A4, symBinAddr: 0x2A9A0, symSize: 0xB0 }
  - { offsetInCU: 0x14852, offset: 0xB6160, size: 0x8, addend: 0x0, symName: '__ZN4core6result19Result$LT$T$C$E$GT$8and_then17h7547e0e9e6770041E', symObjAddr: 0x4654, symBinAddr: 0x2AA50, symSize: 0x9C }
  - { offsetInCU: 0x148E5, offset: 0xB61F3, size: 0x8, addend: 0x0, symName: '__ZN4core6result19Result$LT$T$C$E$GT$8and_then17h86d4b2bed4067e28E', symObjAddr: 0x46F0, symBinAddr: 0x2AAEC, symSize: 0xD0 }
  - { offsetInCU: 0x1497A, offset: 0xB6288, size: 0x8, addend: 0x0, symName: '__ZN4core6result19Result$LT$T$C$E$GT$8and_then17hb2156ee5201a1797E', symObjAddr: 0x47C0, symBinAddr: 0x2ABBC, symSize: 0x94 }
  - { offsetInCU: 0x14A0D, offset: 0xB631B, size: 0x8, addend: 0x0, symName: '__ZN4core6result19Result$LT$T$C$E$GT$8and_then17hf224f3d31090462cE', symObjAddr: 0x4854, symBinAddr: 0x2AC50, symSize: 0xD0 }
  - { offsetInCU: 0x1E, offset: 0xB64E3, size: 0x8, addend: 0x0, symName: __ZN4core4char7methods25encode_utf8_raw_unchecked17hc99ffd2b27655d92E, symObjAddr: 0x0, symBinAddr: 0x2D780, symSize: 0x188 }
  - { offsetInCU: 0x9E, offset: 0xB6563, size: 0x8, addend: 0x0, symName: __ZN4core4char7methods25encode_utf8_raw_unchecked17hc99ffd2b27655d92E, symObjAddr: 0x0, symBinAddr: 0x2D780, symSize: 0x188 }
  - { offsetInCU: 0x1E, offset: 0xB6750, size: 0x8, addend: 0x0, symName: '__ZN104_$LT$core..iter..adapters..copied..Copied$LT$I$GT$$u20$as$u20$core..iter..traits..iterator..Iterator$GT$4next17h428a4a08bd8fbb1cE', symObjAddr: 0x0, symBinAddr: 0x2D908, symSize: 0x5C }
  - { offsetInCU: 0x12BD, offset: 0xB79EF, size: 0x8, addend: 0x0, symName: '__ZN104_$LT$core..iter..adapters..copied..Copied$LT$I$GT$$u20$as$u20$core..iter..traits..iterator..Iterator$GT$4next17h428a4a08bd8fbb1cE', symObjAddr: 0x0, symBinAddr: 0x2D908, symSize: 0x5C }
  - { offsetInCU: 0x1362, offset: 0xB7A94, size: 0x8, addend: 0x0, symName: '__ZN63_$LT$I$u20$as$u20$core..iter..traits..collect..IntoIterator$GT$9into_iter17h14ccaa3b0efc0858E', symObjAddr: 0x5C, symBinAddr: 0x2D964, symSize: 0x1C }
  - { offsetInCU: 0x1E, offset: 0xB814A, size: 0x8, addend: 0x0, symName: __ZN4pyo311type_object10PyTypeInfo10is_type_of17h4cc6a308f679fb88E, symObjAddr: 0x0, symBinAddr: 0x2D980, symSize: 0x50 }
  - { offsetInCU: 0x86B, offset: 0xB8997, size: 0x8, addend: 0x0, symName: '__ZN50_$LT$T$u20$as$u20$core..convert..Into$LT$U$GT$$GT$4into17h74fbfac7e13db7f2E', symObjAddr: 0xCC, symBinAddr: 0x2DA4C, symSize: 0x14 }
  - { offsetInCU: 0x217C, offset: 0xBA2A8, size: 0x8, addend: 0x0, symName: __ZN4pyo311type_object10PyTypeInfo10is_type_of17h4cc6a308f679fb88E, symObjAddr: 0x0, symBinAddr: 0x2D980, symSize: 0x50 }
  - { offsetInCU: 0x21B7, offset: 0xBA2E3, size: 0x8, addend: 0x0, symName: '__ZN52_$LT$T$u20$as$u20$pyo3..type_object..PyTypeCheck$GT$10type_check17h295f941ff3cc384cE', symObjAddr: 0xE0, symBinAddr: 0x2DA60, symSize: 0x24 }
  - { offsetInCU: 0x21F8, offset: 0xBA324, size: 0x8, addend: 0x0, symName: '__ZN4pyo312pyclass_init130_$LT$impl$u20$pyo3..impl_..callback..IntoPyCallbackOutput$LT$pyo3..pyclass_init..PyClassInitializer$LT$T$GT$$GT$$u20$for$u20$U$GT$7convert17h1eb3f18301e111abE', symObjAddr: 0x50, symBinAddr: 0x2D9D0, symSize: 0x6C }
  - { offsetInCU: 0x2303, offset: 0xBA42F, size: 0x8, addend: 0x0, symName: __ZN4pyo35impl_7pyclass11PyClassImpl11dict_offset17h12b5142c6b34e0a7E, symObjAddr: 0xBC, symBinAddr: 0x2DA3C, symSize: 0x8 }
  - { offsetInCU: 0x232A, offset: 0xBA456, size: 0x8, addend: 0x0, symName: __ZN4pyo35impl_7pyclass11PyClassImpl15weaklist_offset17h1a7d8df3f8e7c7ffE, symObjAddr: 0xC4, symBinAddr: 0x2DA44, symSize: 0x8 }
  - { offsetInCU: 0x25DD, offset: 0xBA709, size: 0x8, addend: 0x0, symName: '__ZN7_native13py_simulation18PySimulationEngine10measure_cd28_$u7b$$u7b$closure$u7d$$u7d$17h17d17993f3f8261aE', symObjAddr: 0x104, symBinAddr: 0x2DA84, symSize: 0x2C }
  - { offsetInCU: 0x2612, offset: 0xBA73E, size: 0x8, addend: 0x0, symName: '__ZN7_native13py_simulation18PySimulationEngine3new28_$u7b$$u7b$closure$u7d$$u7d$17h7e7fab9a641a4dd5E', symObjAddr: 0x25C, symBinAddr: 0x2DBDC, symSize: 0x3C }
  - { offsetInCU: 0x263A, offset: 0xBA766, size: 0x8, addend: 0x0, symName: '__ZN7_native13py_simulation18PySimulationEngine3new28_$u7b$$u7b$closure$u7d$$u7d$17ha186dbb267dca04cE', symObjAddr: 0x298, symBinAddr: 0x2DC18, symSize: 0x6C }
  - { offsetInCU: 0x2671, offset: 0xBA79D, size: 0x8, addend: 0x0, symName: '__ZN7_native13py_simulation18PySimulationEngine3new28_$u7b$$u7b$closure$u7d$$u7d$17ha6ceb1fedc58f72cE', symObjAddr: 0x304, symBinAddr: 0x2DC84, symSize: 0x1C }
  - { offsetInCU: 0x26BA, offset: 0xBA7E6, size: 0x8, addend: 0x0, symName: '__ZN7_native13py_simulation18PySimulationEngine20__pymethod___new____28_$u7b$$u7b$closure$u7d$$u7d$17h129d07ba56a269d6E', symObjAddr: 0x130, symBinAddr: 0x2DAB0, symSize: 0x2C }
  - { offsetInCU: 0x26E2, offset: 0xBA80E, size: 0x8, addend: 0x0, symName: '__ZN7_native13py_simulation18PySimulationEngine20__pymethod___new____28_$u7b$$u7b$closure$u7d$$u7d$17h7cabe81edeba8dd7E', symObjAddr: 0x15C, symBinAddr: 0x2DADC, symSize: 0x28 }
  - { offsetInCU: 0x270A, offset: 0xBA836, size: 0x8, addend: 0x0, symName: '__ZN7_native13py_simulation18PySimulationEngine20__pymethod___new____28_$u7b$$u7b$closure$u7d$$u7d$17ha99e3bcceec20e52E', symObjAddr: 0x184, symBinAddr: 0x2DB04, symSize: 0x18 }
  - { offsetInCU: 0x274D, offset: 0xBA879, size: 0x8, addend: 0x0, symName: '__ZN7_native13py_simulation18PySimulationEngine23__pymethod_measure_cd__28_$u7b$$u7b$closure$u7d$$u7d$17h061d98f14e015210E', symObjAddr: 0x19C, symBinAddr: 0x2DB1C, symSize: 0x1C }
  - { offsetInCU: 0x2775, offset: 0xBA8A1, size: 0x8, addend: 0x0, symName: '__ZN7_native13py_simulation18PySimulationEngine23__pymethod_measure_cd__28_$u7b$$u7b$closure$u7d$$u7d$17h5e302bae1bc50815E', symObjAddr: 0x1B8, symBinAddr: 0x2DB38, symSize: 0x14 }
  - { offsetInCU: 0x279D, offset: 0xBA8C9, size: 0x8, addend: 0x0, symName: '__ZN7_native13py_simulation18PySimulationEngine23__pymethod_measure_cd__28_$u7b$$u7b$closure$u7d$$u7d$17h6c5cdea0be13168dE', symObjAddr: 0x1CC, symBinAddr: 0x2DB4C, symSize: 0x14 }
  - { offsetInCU: 0x27E0, offset: 0xBA90C, size: 0x8, addend: 0x0, symName: '__ZN7_native13py_simulation18PySimulationEngine27__pymethod_image_contrast__28_$u7b$$u7b$closure$u7d$$u7d$17hd6814900097cd9c5E', symObjAddr: 0x1E0, symBinAddr: 0x2DB60, symSize: 0x14 }
  - { offsetInCU: 0x2815, offset: 0xBA941, size: 0x8, addend: 0x0, symName: '__ZN7_native13py_simulation18PySimulationEngine33__pymethod_compute_aerial_image__28_$u7b$$u7b$closure$u7d$$u7d$17h35ccb7c3e01eec35E', symObjAddr: 0x1F4, symBinAddr: 0x2DB74, symSize: 0x14 }
  - { offsetInCU: 0x284A, offset: 0xBA976, size: 0x8, addend: 0x0, symName: '__ZN7_native13py_simulation18PySimulationEngine34__pymethod_compute_polychromatic__28_$u7b$$u7b$closure$u7d$$u7d$17h45cdf8347d09ab79E', symObjAddr: 0x208, symBinAddr: 0x2DB88, symSize: 0x14 }
  - { offsetInCU: 0x287F, offset: 0xBA9AB, size: 0x8, addend: 0x0, symName: '__ZN7_native13py_simulation18PySimulationEngine35__pymethod_compute_resist_profile__28_$u7b$$u7b$closure$u7d$$u7d$17h1559fad5e71a00c5E', symObjAddr: 0x21C, symBinAddr: 0x2DB9C, symSize: 0x18 }
  - { offsetInCU: 0x28A7, offset: 0xBA9D3, size: 0x8, addend: 0x0, symName: '__ZN7_native13py_simulation18PySimulationEngine35__pymethod_compute_resist_profile__28_$u7b$$u7b$closure$u7d$$u7d$17h23dae1d6f94a971bE', symObjAddr: 0x234, symBinAddr: 0x2DBB4, symSize: 0x14 }
  - { offsetInCU: 0x28CF, offset: 0xBA9FB, size: 0x8, addend: 0x0, symName: '__ZN7_native13py_simulation18PySimulationEngine35__pymethod_compute_resist_profile__28_$u7b$$u7b$closure$u7d$$u7d$17hfe153804acef44beE', symObjAddr: 0x248, symBinAddr: 0x2DBC8, symSize: 0x14 }
  - { offsetInCU: 0x2918, offset: 0xBAA44, size: 0x8, addend: 0x0, symName: '__ZN96_$LT$_native..py_simulation..PySimulationEngine$u20$as$u20$pyo3..impl_..pyclass..PyClassImpl$GT$3doc28_$u7b$$u7b$closure$u7d$$u7d$17hd7732bfbd750316fE', symObjAddr: 0x320, symBinAddr: 0x2DCA0, symSize: 0x54 }
  - { offsetInCU: 0x1E, offset: 0xBC43B, size: 0x8, addend: 0x0, symName: __ZN7_native13py_simulation18PySimulationEngine10measure_cd17h1dc4753b4672dc61E, symObjAddr: 0x0, symBinAddr: 0x2DCF4, symSize: 0xE0 }
  - { offsetInCU: 0x4C, offset: 0xBC469, size: 0x8, addend: 0x0, symName: '__ZN7_native13py_simulation204_$LT$impl$u20$pyo3..impl_..pyclass..PyMethods$LT$_native..py_simulation..PySimulationEngine$GT$$u20$for$u20$pyo3..impl_..pyclass..PyClassImplCollector$LT$_native..py_simulation..PySimulationEngine$GT$$GT$10py_methods5ITEMS17ha3f0c01ce3cf3c0dE', symObjAddr: 0x3CD0, symBinAddr: 0x74AEB8, symSize: 0x0 }
  - { offsetInCU: 0x5E, offset: 0xBC47B, size: 0x8, addend: 0x0, symName: '__ZN7_native13py_simulation204_$LT$impl$u20$pyo3..impl_..pyclass..PyMethods$LT$_native..py_simulation..PySimulationEngine$GT$$u20$for$u20$pyo3..impl_..pyclass..PyClassImplCollector$LT$_native..py_simulation..PySimulationEngine$GT$$GT$10py_methods5ITEMS10trampoline17h2af0959ce4f53539E', symObjAddr: 0x2D7C, symBinAddr: 0x30A70, symSize: 0x50 }
  - { offsetInCU: 0xB4, offset: 0xBC4D1, size: 0x8, addend: 0x0, symName: '__ZN7_native13py_simulation204_$LT$impl$u20$pyo3..impl_..pyclass..PyMethods$LT$_native..py_simulation..PySimulationEngine$GT$$u20$for$u20$pyo3..impl_..pyclass..PyClassImplCollector$LT$_native..py_simulation..PySimulationEngine$GT$$GT$10py_methods5ITEMS10trampoline17h433ad434e785ab5bE', symObjAddr: 0x2DCC, symBinAddr: 0x30AC0, symSize: 0x50 }
  - { offsetInCU: 0x10A, offset: 0xBC527, size: 0x8, addend: 0x0, symName: '__ZN7_native13py_simulation204_$LT$impl$u20$pyo3..impl_..pyclass..PyMethods$LT$_native..py_simulation..PySimulationEngine$GT$$u20$for$u20$pyo3..impl_..pyclass..PyClassImplCollector$LT$_native..py_simulation..PySimulationEngine$GT$$GT$10py_methods5ITEMS10trampoline17h57b48147c26d01a3E', symObjAddr: 0x2E1C, symBinAddr: 0x30B10, symSize: 0x50 }
  - { offsetInCU: 0x160, offset: 0xBC57D, size: 0x8, addend: 0x0, symName: '__ZN7_native13py_simulation204_$LT$impl$u20$pyo3..impl_..pyclass..PyMethods$LT$_native..py_simulation..PySimulationEngine$GT$$u20$for$u20$pyo3..impl_..pyclass..PyClassImplCollector$LT$_native..py_simulation..PySimulationEngine$GT$$GT$10py_methods5ITEMS10trampoline17h84348f64705d99d0E', symObjAddr: 0x2E6C, symBinAddr: 0x30B60, symSize: 0x44 }
  - { offsetInCU: 0x19A, offset: 0xBC5B7, size: 0x8, addend: 0x0, symName: '__ZN7_native13py_simulation204_$LT$impl$u20$pyo3..impl_..pyclass..PyMethods$LT$_native..py_simulation..PySimulationEngine$GT$$u20$for$u20$pyo3..impl_..pyclass..PyClassImplCollector$LT$_native..py_simulation..PySimulationEngine$GT$$GT$10py_methods5ITEMS10trampoline17h93c8294283f6847bE', symObjAddr: 0x2EB0, symBinAddr: 0x30BA4, symSize: 0x4C }
  - { offsetInCU: 0x1E2, offset: 0xBC5FF, size: 0x8, addend: 0x0, symName: '__ZN7_native13py_simulation204_$LT$impl$u20$pyo3..impl_..pyclass..PyMethods$LT$_native..py_simulation..PySimulationEngine$GT$$u20$for$u20$pyo3..impl_..pyclass..PyClassImplCollector$LT$_native..py_simulation..PySimulationEngine$GT$$GT$10py_methods5ITEMS10trampoline17hab01051f746c09a6E', symObjAddr: 0x2EFC, symBinAddr: 0x30BF0, symSize: 0x50 }
  - { offsetInCU: 0x238, offset: 0xBC655, size: 0x8, addend: 0x0, symName: '__ZN7_native13py_simulation204_$LT$impl$u20$pyo3..impl_..pyclass..PyMethods$LT$_native..py_simulation..PySimulationEngine$GT$$u20$for$u20$pyo3..impl_..pyclass..PyClassImplCollector$LT$_native..py_simulation..PySimulationEngine$GT$$GT$10py_methods5ITEMS10trampoline17haed8af133677d435E', symObjAddr: 0x2F4C, symBinAddr: 0x30C40, symSize: 0x3C }
  - { offsetInCU: 0x264, offset: 0xBC681, size: 0x8, addend: 0x0, symName: '__ZN7_native13py_simulation204_$LT$impl$u20$pyo3..impl_..pyclass..PyMethods$LT$_native..py_simulation..PySimulationEngine$GT$$u20$for$u20$pyo3..impl_..pyclass..PyClassImplCollector$LT$_native..py_simulation..PySimulationEngine$GT$$GT$10py_methods5ITEMS10trampoline17hf3caecdaa519b9f8E', symObjAddr: 0x2F88, symBinAddr: 0x30C7C, symSize: 0x50 }
  - { offsetInCU: 0x2D4, offset: 0xBC6F1, size: 0x8, addend: 0x0, symName: '__ZN96_$LT$_native..py_simulation..PySimulationEngine$u20$as$u20$pyo3..impl_..pyclass..PyClassImpl$GT$10items_iter15INTRINSIC_ITEMS17hf428f24be6404e63E', symObjAddr: 0x3690, symBinAddr: 0x676D60, symSize: 0x0 }
  - { offsetInCU: 0x2F4, offset: 0xBC711, size: 0x8, addend: 0x0, symName: '__ZN96_$LT$_native..py_simulation..PySimulationEngine$u20$as$u20$pyo3..impl_..pyclass..PyClassImpl$GT$16lazy_type_object11TYPE_OBJECT17h664b09a993db06feE', symObjAddr: 0x4018, symBinAddr: 0x774AD8, symSize: 0x0 }
  - { offsetInCU: 0x314, offset: 0xBC731, size: 0x8, addend: 0x0, symName: '__ZN96_$LT$_native..py_simulation..PySimulationEngine$u20$as$u20$pyo3..impl_..pyclass..PyClassImpl$GT$3doc3DOC17hab1ff7e11b0e92d2E', symObjAddr: 0x4078, symBinAddr: 0x774B38, symSize: 0x0 }
  - { offsetInCU: 0x322, offset: 0xBC73F, size: 0x8, addend: 0x0, symName: '__ZN96_$LT$_native..py_simulation..PySimulationEngine$u20$as$u20$pyo3..impl_..pyclass..PyClassImpl$GT$10items_iter17h3305fef6c5825034E', symObjAddr: 0x2FFC, symBinAddr: 0x30CF0, symSize: 0x38 }
  - { offsetInCU: 0x35D, offset: 0xBC77A, size: 0x8, addend: 0x0, symName: '__ZN96_$LT$_native..py_simulation..PySimulationEngine$u20$as$u20$pyo3..impl_..pyclass..PyClassImpl$GT$16lazy_type_object17h194a547d3597bc4dE', symObjAddr: 0x3034, symBinAddr: 0x30D28, symSize: 0xC }
  - { offsetInCU: 0x37A, offset: 0xBC797, size: 0x8, addend: 0x0, symName: '__ZN96_$LT$_native..py_simulation..PySimulationEngine$u20$as$u20$pyo3..impl_..pyclass..PyClassImpl$GT$3doc17h2b77b3cf70287f6eE', symObjAddr: 0x3040, symBinAddr: 0x30D34, symSize: 0x3C }
  - { offsetInCU: 0x628, offset: 0xBCA45, size: 0x8, addend: 0x0, symName: '__ZN92_$LT$_native..py_simulation..PySimulationEngine$u20$as$u20$pyo3..type_object..PyTypeInfo$GT$15type_object_raw17hc1a0c6215f7f4b78E', symObjAddr: 0x2FD8, symBinAddr: 0x30CCC, symSize: 0x24 }
  - { offsetInCU: 0x52F8, offset: 0xC1715, size: 0x8, addend: 0x0, symName: __ZN7_native13py_simulation18PySimulationEngine10measure_cd17h1dc4753b4672dc61E, symObjAddr: 0x0, symBinAddr: 0x2DCF4, symSize: 0xE0 }
  - { offsetInCU: 0x5394, offset: 0xC17B1, size: 0x8, addend: 0x0, symName: __ZN7_native13py_simulation18PySimulationEngine11num_kernels17hd298590ef92e4175E, symObjAddr: 0xE0, symBinAddr: 0x2DDD4, symSize: 0x24 }
  - { offsetInCU: 0x53B6, offset: 0xC17D3, size: 0x8, addend: 0x0, symName: __ZN7_native13py_simulation18PySimulationEngine14image_contrast17h5a095da37cbf54ffE, symObjAddr: 0x104, symBinAddr: 0x2DDF8, symSize: 0x80 }
  - { offsetInCU: 0x5403, offset: 0xC1820, size: 0x8, addend: 0x0, symName: __ZN7_native13py_simulation18PySimulationEngine20__pymethod___new____17h13d491377312a0b0E, symObjAddr: 0x184, symBinAddr: 0x2DE78, symSize: 0xB6C }
  - { offsetInCU: 0x56DE, offset: 0xC1AFB, size: 0x8, addend: 0x0, symName: __ZN7_native13py_simulation18PySimulationEngine20compute_aerial_image17hd6993410bf4d73d3E, symObjAddr: 0xCF0, symBinAddr: 0x2E9E4, symSize: 0x84 }
  - { offsetInCU: 0x5748, offset: 0xC1B65, size: 0x8, addend: 0x0, symName: __ZN7_native13py_simulation18PySimulationEngine21__pymethod___repr____17h6e8b4257b8a3c3e1E, symObjAddr: 0xD74, symBinAddr: 0x2EA68, symSize: 0x178 }
  - { offsetInCU: 0x5802, offset: 0xC1C1F, size: 0x8, addend: 0x0, symName: __ZN7_native13py_simulation18PySimulationEngine21compute_polychromatic17he6fc2ee4b8087d9eE, symObjAddr: 0xEEC, symBinAddr: 0x2EBE0, symSize: 0x94 }
  - { offsetInCU: 0x586C, offset: 0xC1C89, size: 0x8, addend: 0x0, symName: __ZN7_native13py_simulation18PySimulationEngine22compute_resist_profile17h450e8a53a340a02fE, symObjAddr: 0xF80, symBinAddr: 0x2EC74, symSize: 0x150 }
  - { offsetInCU: 0x5905, offset: 0xC1D22, size: 0x8, addend: 0x0, symName: __ZN7_native13py_simulation18PySimulationEngine23__pymethod_measure_cd__17he086a1445fd14603E, symObjAddr: 0x10D0, symBinAddr: 0x2EDC4, symSize: 0x5C4 }
  - { offsetInCU: 0x5AF0, offset: 0xC1F0D, size: 0x8, addend: 0x0, symName: __ZN7_native13py_simulation18PySimulationEngine24__pymethod_num_kernels__17h2bebd3b365c2ede1E, symObjAddr: 0x1694, symBinAddr: 0x2F388, symSize: 0x214 }
  - { offsetInCU: 0x5BE0, offset: 0xC1FFD, size: 0x8, addend: 0x0, symName: __ZN7_native13py_simulation18PySimulationEngine27__pymethod_image_contrast__17h1208a79ffbe5e51fE, symObjAddr: 0x18A8, symBinAddr: 0x2F59C, symSize: 0x370 }
  - { offsetInCU: 0x5D7B, offset: 0xC2198, size: 0x8, addend: 0x0, symName: __ZN7_native13py_simulation18PySimulationEngine33__pymethod_compute_aerial_image__17he274217648141a83E, symObjAddr: 0x1C18, symBinAddr: 0x2F90C, symSize: 0x3FC }
  - { offsetInCU: 0x5F0E, offset: 0xC232B, size: 0x8, addend: 0x0, symName: __ZN7_native13py_simulation18PySimulationEngine34__pymethod_compute_polychromatic__17h927a14f865e9b2ccE, symObjAddr: 0x2014, symBinAddr: 0x2FD08, symSize: 0x3FC }
  - { offsetInCU: 0x60A1, offset: 0xC24BE, size: 0x8, addend: 0x0, symName: __ZN7_native13py_simulation18PySimulationEngine35__pymethod_compute_resist_profile__17hdab935e55333e749E, symObjAddr: 0x2410, symBinAddr: 0x30104, symSize: 0x5C4 }
  - { offsetInCU: 0x628C, offset: 0xC26A9, size: 0x8, addend: 0x0, symName: __ZN7_native13py_simulation18PySimulationEngine3new17h90b932b0a1d6cf7aE, symObjAddr: 0x29D4, symBinAddr: 0x306C8, symSize: 0x2EC }
  - { offsetInCU: 0x6372, offset: 0xC278F, size: 0x8, addend: 0x0, symName: __ZN7_native13py_simulation18PySimulationEngine8__repr__17hc3cea2016290e2fcE, symObjAddr: 0x2CC0, symBinAddr: 0x309B4, symSize: 0xBC }
  - { offsetInCU: 0x1E, offset: 0xC2A3F, size: 0x8, addend: 0x0, symName: '__ZN4pyo312pyclass_init27PyClassInitializer$LT$T$GT$19create_class_object17h1fcb5b907c9f823bE', symObjAddr: 0x0, symBinAddr: 0x30D70, symSize: 0x98 }
  - { offsetInCU: 0x47F8, offset: 0xC7219, size: 0x8, addend: 0x0, symName: '__ZN96_$LT$pyo3..pyclass_init..PyClassInitializer$LT$T$GT$$u20$as$u20$core..convert..From$LT$T$GT$$GT$4from17h0f22e1fb18567b87E', symObjAddr: 0x3398, symBinAddr: 0x34108, symSize: 0x48 }
  - { offsetInCU: 0x482E, offset: 0xC724F, size: 0x8, addend: 0x0, symName: '__ZN96_$LT$pyo3..pyclass_init..PyClassInitializer$LT$T$GT$$u20$as$u20$core..convert..From$LT$T$GT$$GT$4from17h36c73a012a9d91dbE', symObjAddr: 0x33E0, symBinAddr: 0x34150, symSize: 0x48 }
  - { offsetInCU: 0x4864, offset: 0xC7285, size: 0x8, addend: 0x0, symName: '__ZN96_$LT$pyo3..pyclass_init..PyClassInitializer$LT$T$GT$$u20$as$u20$core..convert..From$LT$T$GT$$GT$4from17h5954d8580a630f20E', symObjAddr: 0x3428, symBinAddr: 0x34198, symSize: 0x3C }
  - { offsetInCU: 0x489A, offset: 0xC72BB, size: 0x8, addend: 0x0, symName: '__ZN96_$LT$pyo3..pyclass_init..PyClassInitializer$LT$T$GT$$u20$as$u20$core..convert..From$LT$T$GT$$GT$4from17h5e92de2b0c175ccaE', symObjAddr: 0x3464, symBinAddr: 0x341D4, symSize: 0x48 }
  - { offsetInCU: 0x48D0, offset: 0xC72F1, size: 0x8, addend: 0x0, symName: '__ZN96_$LT$pyo3..pyclass_init..PyClassInitializer$LT$T$GT$$u20$as$u20$core..convert..From$LT$T$GT$$GT$4from17h612c052f1ba7308fE', symObjAddr: 0x34AC, symBinAddr: 0x3421C, symSize: 0x50 }
  - { offsetInCU: 0x4906, offset: 0xC7327, size: 0x8, addend: 0x0, symName: '__ZN96_$LT$pyo3..pyclass_init..PyClassInitializer$LT$T$GT$$u20$as$u20$core..convert..From$LT$T$GT$$GT$4from17h984bff990d993750E', symObjAddr: 0x34FC, symBinAddr: 0x3426C, symSize: 0x50 }
  - { offsetInCU: 0x493C, offset: 0xC735D, size: 0x8, addend: 0x0, symName: '__ZN96_$LT$pyo3..pyclass_init..PyClassInitializer$LT$T$GT$$u20$as$u20$core..convert..From$LT$T$GT$$GT$4from17ha65879174c4b9983E', symObjAddr: 0x354C, symBinAddr: 0x342BC, symSize: 0x2C }
  - { offsetInCU: 0x4971, offset: 0xC7392, size: 0x8, addend: 0x0, symName: '__ZN96_$LT$pyo3..pyclass_init..PyClassInitializer$LT$T$GT$$u20$as$u20$core..convert..From$LT$T$GT$$GT$4from17haeda1c880af0e809E', symObjAddr: 0x3578, symBinAddr: 0x342E8, symSize: 0x48 }
  - { offsetInCU: 0x49A7, offset: 0xC73C8, size: 0x8, addend: 0x0, symName: '__ZN96_$LT$pyo3..pyclass_init..PyClassInitializer$LT$T$GT$$u20$as$u20$core..convert..From$LT$T$GT$$GT$4from17hcef0bf91d345c50bE', symObjAddr: 0x35C0, symBinAddr: 0x34330, symSize: 0x48 }
  - { offsetInCU: 0x49DD, offset: 0xC73FE, size: 0x8, addend: 0x0, symName: '__ZN96_$LT$pyo3..pyclass_init..PyClassInitializer$LT$T$GT$$u20$as$u20$core..convert..From$LT$T$GT$$GT$4from17hd4be139b7dcafbc2E', symObjAddr: 0x3608, symBinAddr: 0x34378, symSize: 0x48 }
  - { offsetInCU: 0x4A13, offset: 0xC7434, size: 0x8, addend: 0x0, symName: '__ZN96_$LT$pyo3..pyclass_init..PyClassInitializer$LT$T$GT$$u20$as$u20$core..convert..From$LT$T$GT$$GT$4from17hd98f02eb178b1de2E', symObjAddr: 0x3650, symBinAddr: 0x343C0, symSize: 0x48 }
  - { offsetInCU: 0x4A49, offset: 0xC746A, size: 0x8, addend: 0x0, symName: '__ZN96_$LT$pyo3..pyclass_init..PyClassInitializer$LT$T$GT$$u20$as$u20$core..convert..From$LT$T$GT$$GT$4from17hf12ed1e3927617efE', symObjAddr: 0x3698, symBinAddr: 0x34408, symSize: 0x48 }
  - { offsetInCU: 0x643F, offset: 0xC8E60, size: 0x8, addend: 0x0, symName: '__ZN4pyo312pyclass_init27PyClassInitializer$LT$T$GT$19create_class_object17h1fcb5b907c9f823bE', symObjAddr: 0x0, symBinAddr: 0x30D70, symSize: 0x98 }
  - { offsetInCU: 0x6A96, offset: 0xC94B7, size: 0x8, addend: 0x0, symName: '__ZN4pyo312pyclass_init27PyClassInitializer$LT$T$GT$19create_class_object17h58721ad3782497c9E', symObjAddr: 0x98, symBinAddr: 0x30E08, symSize: 0x98 }
  - { offsetInCU: 0x6C2D, offset: 0xC964E, size: 0x8, addend: 0x0, symName: '__ZN4pyo312pyclass_init27PyClassInitializer$LT$T$GT$19create_class_object17h67da8e15ff1ac6a9E', symObjAddr: 0x130, symBinAddr: 0x30EA0, symSize: 0x98 }
  - { offsetInCU: 0x6C72, offset: 0xC9693, size: 0x8, addend: 0x0, symName: '__ZN4pyo312pyclass_init27PyClassInitializer$LT$T$GT$19create_class_object17h88b69fce5ff298ddE', symObjAddr: 0x1C8, symBinAddr: 0x30F38, symSize: 0x98 }
  - { offsetInCU: 0x6CB7, offset: 0xC96D8, size: 0x8, addend: 0x0, symName: '__ZN4pyo312pyclass_init27PyClassInitializer$LT$T$GT$19create_class_object17hcaf6c4aec1c0d71eE', symObjAddr: 0x260, symBinAddr: 0x30FD0, symSize: 0x98 }
  - { offsetInCU: 0x6CFC, offset: 0xC971D, size: 0x8, addend: 0x0, symName: '__ZN4pyo312pyclass_init27PyClassInitializer$LT$T$GT$19create_class_object17hf09fcb76bdb4a191E', symObjAddr: 0x2F8, symBinAddr: 0x31068, symSize: 0x98 }
  - { offsetInCU: 0x6DCB, offset: 0xC97EC, size: 0x8, addend: 0x0, symName: '__ZN4pyo312pyclass_init27PyClassInitializer$LT$T$GT$27create_class_object_of_type17h2ce6de874710a47dE', symObjAddr: 0x390, symBinAddr: 0x31100, symSize: 0x328 }
  - { offsetInCU: 0x7032, offset: 0xC9A53, size: 0x8, addend: 0x0, symName: '__ZN4pyo312pyclass_init27PyClassInitializer$LT$T$GT$27create_class_object_of_type17h3dbe1886944d9c42E', symObjAddr: 0x6B8, symBinAddr: 0x31428, symSize: 0x324 }
  - { offsetInCU: 0x7269, offset: 0xC9C8A, size: 0x8, addend: 0x0, symName: '__ZN4pyo312pyclass_init27PyClassInitializer$LT$T$GT$27create_class_object_of_type17h4045dc0cc0c8b7b3E', symObjAddr: 0x9DC, symBinAddr: 0x3174C, symSize: 0x324 }
  - { offsetInCU: 0x74A0, offset: 0xC9EC1, size: 0x8, addend: 0x0, symName: '__ZN4pyo312pyclass_init27PyClassInitializer$LT$T$GT$27create_class_object_of_type17h4a1ab76247cfb11dE', symObjAddr: 0xD00, symBinAddr: 0x31A70, symSize: 0x324 }
  - { offsetInCU: 0x7A01, offset: 0xCA422, size: 0x8, addend: 0x0, symName: '__ZN4pyo312pyclass_init27PyClassInitializer$LT$T$GT$27create_class_object_of_type17h5cc938759620b9a1E', symObjAddr: 0x1024, symBinAddr: 0x31D94, symSize: 0x370 }
  - { offsetInCU: 0x7C38, offset: 0xCA659, size: 0x8, addend: 0x0, symName: '__ZN4pyo312pyclass_init27PyClassInitializer$LT$T$GT$27create_class_object_of_type17h65253ad1265d40f6E', symObjAddr: 0x1394, symBinAddr: 0x32104, symSize: 0x2D0 }
  - { offsetInCU: 0x7E6E, offset: 0xCA88F, size: 0x8, addend: 0x0, symName: '__ZN4pyo312pyclass_init27PyClassInitializer$LT$T$GT$27create_class_object_of_type17h692ff43238cf5f80E', symObjAddr: 0x1664, symBinAddr: 0x323D4, symSize: 0x310 }
  - { offsetInCU: 0x8095, offset: 0xCAAB6, size: 0x8, addend: 0x0, symName: '__ZN4pyo312pyclass_init27PyClassInitializer$LT$T$GT$27create_class_object_of_type17h695696d434c26b17E', symObjAddr: 0x1974, symBinAddr: 0x326E4, symSize: 0x2A0 }
  - { offsetInCU: 0x8287, offset: 0xCACA8, size: 0x8, addend: 0x0, symName: '__ZN4pyo312pyclass_init27PyClassInitializer$LT$T$GT$27create_class_object_of_type17h6a1f5b819f2ab6bdE', symObjAddr: 0x1C14, symBinAddr: 0x32984, symSize: 0x324 }
  - { offsetInCU: 0x84BE, offset: 0xCAEDF, size: 0x8, addend: 0x0, symName: '__ZN4pyo312pyclass_init27PyClassInitializer$LT$T$GT$27create_class_object_of_type17h9a97286002a663bbE', symObjAddr: 0x1F38, symBinAddr: 0x32CA8, symSize: 0x324 }
  - { offsetInCU: 0x86F5, offset: 0xCB116, size: 0x8, addend: 0x0, symName: '__ZN4pyo312pyclass_init27PyClassInitializer$LT$T$GT$27create_class_object_of_type17hab60ddd4f063132fE', symObjAddr: 0x225C, symBinAddr: 0x32FCC, symSize: 0x320 }
  - { offsetInCU: 0x892C, offset: 0xCB34D, size: 0x8, addend: 0x0, symName: '__ZN4pyo312pyclass_init27PyClassInitializer$LT$T$GT$27create_class_object_of_type17hf6760e63b630f8beE', symObjAddr: 0x257C, symBinAddr: 0x332EC, symSize: 0x324 }
  - { offsetInCU: 0x8B2B, offset: 0xCB54C, size: 0x8, addend: 0x0, symName: '__ZN4pyo312pyclass_init27PyClassInitializer$LT$T$GT$3new17h09674eaf392f7911E', symObjAddr: 0x28A0, symBinAddr: 0x33610, symSize: 0xE0 }
  - { offsetInCU: 0x8B66, offset: 0xCB587, size: 0x8, addend: 0x0, symName: '__ZN4pyo312pyclass_init27PyClassInitializer$LT$T$GT$3new17h0a6c1804a236b3a4E', symObjAddr: 0x2980, symBinAddr: 0x336F0, symSize: 0xE0 }
  - { offsetInCU: 0x8BA1, offset: 0xCB5C2, size: 0x8, addend: 0x0, symName: '__ZN4pyo312pyclass_init27PyClassInitializer$LT$T$GT$3new17h13963a7e712b1b5dE', symObjAddr: 0x2A60, symBinAddr: 0x337D0, symSize: 0xF8 }
  - { offsetInCU: 0x8BDC, offset: 0xCB5FD, size: 0x8, addend: 0x0, symName: '__ZN4pyo312pyclass_init27PyClassInitializer$LT$T$GT$3new17h1ff78be9ab1d3fc2E', symObjAddr: 0x2B58, symBinAddr: 0x338C8, symSize: 0xF8 }
  - { offsetInCU: 0x8C17, offset: 0xCB638, size: 0x8, addend: 0x0, symName: '__ZN4pyo312pyclass_init27PyClassInitializer$LT$T$GT$3new17h700d1e7dd6528bc2E', symObjAddr: 0x2C50, symBinAddr: 0x339C0, symSize: 0xF8 }
  - { offsetInCU: 0x8C52, offset: 0xCB673, size: 0x8, addend: 0x0, symName: '__ZN4pyo312pyclass_init27PyClassInitializer$LT$T$GT$3new17h75668a4aa736bbccE', symObjAddr: 0x2D48, symBinAddr: 0x33AB8, symSize: 0xD4 }
  - { offsetInCU: 0x8C8C, offset: 0xCB6AD, size: 0x8, addend: 0x0, symName: '__ZN4pyo312pyclass_init27PyClassInitializer$LT$T$GT$3new17h8e0f20ee84f7a624E', symObjAddr: 0x2E1C, symBinAddr: 0x33B8C, symSize: 0xC8 }
  - { offsetInCU: 0x8CC5, offset: 0xCB6E6, size: 0x8, addend: 0x0, symName: '__ZN4pyo312pyclass_init27PyClassInitializer$LT$T$GT$3new17h956275a3c9ff3a8fE', symObjAddr: 0x2EE4, symBinAddr: 0x33C54, symSize: 0xE8 }
  - { offsetInCU: 0x8D00, offset: 0xCB721, size: 0x8, addend: 0x0, symName: '__ZN4pyo312pyclass_init27PyClassInitializer$LT$T$GT$3new17hca8a1de8fa5aa3b4E', symObjAddr: 0x2FCC, symBinAddr: 0x33D3C, symSize: 0xE0 }
  - { offsetInCU: 0x8D3B, offset: 0xCB75C, size: 0x8, addend: 0x0, symName: '__ZN4pyo312pyclass_init27PyClassInitializer$LT$T$GT$3new17he25055792e9fed29E', symObjAddr: 0x30AC, symBinAddr: 0x33E1C, symSize: 0xF8 }
  - { offsetInCU: 0x8D76, offset: 0xCB797, size: 0x8, addend: 0x0, symName: '__ZN4pyo312pyclass_init27PyClassInitializer$LT$T$GT$3new17hf4519c6efed5d809E', symObjAddr: 0x31A4, symBinAddr: 0x33F14, symSize: 0xFC }
  - { offsetInCU: 0x8DB1, offset: 0xCB7D2, size: 0x8, addend: 0x0, symName: '__ZN4pyo312pyclass_init27PyClassInitializer$LT$T$GT$3new17hfe7ea7fa321e716eE', symObjAddr: 0x32A0, symBinAddr: 0x34010, symSize: 0xF8 }
  - { offsetInCU: 0x1E, offset: 0xCB82B, size: 0x8, addend: 0x0, symName: '__ZN4core3ops8function5impls79_$LT$impl$u20$core..ops..function..FnMut$LT$A$GT$$u20$for$u20$$RF$mut$u20$F$GT$8call_mut17h9103273763a76bcfE', symObjAddr: 0x0, symBinAddr: 0x34450, symSize: 0x38 }
  - { offsetInCU: 0x44, offset: 0xCB851, size: 0x8, addend: 0x0, symName: '__ZN4core3ops8function5impls79_$LT$impl$u20$core..ops..function..FnMut$LT$A$GT$$u20$for$u20$$RF$mut$u20$F$GT$8call_mut17h9103273763a76bcfE', symObjAddr: 0x0, symBinAddr: 0x34450, symSize: 0x38 }
  - { offsetInCU: 0xD7, offset: 0xCB8E4, size: 0x8, addend: 0x0, symName: '__ZN7ndarray6linalg11impl_linalg49_$LT$impl$u20$ndarray..ArrayBase$LT$S$C$D$GT$$GT$10scaled_add28_$u7b$$u7b$closure$u7d$$u7d$17he00c6efe7a784a9eE', symObjAddr: 0x38, symBinAddr: 0x34488, symSize: 0x70 }
  - { offsetInCU: 0x1E, offset: 0xCBA92, size: 0x8, addend: 0x0, symName: '__ZN106_$LT$core..ops..range..Range$LT$usize$GT$$u20$as$u20$core..slice..index..SliceIndex$LT$$u5b$T$u5d$$GT$$GT$9index_mut17hf3d9c05e5e2e0878E', symObjAddr: 0x0, symBinAddr: 0x344F8, symSize: 0xBC }
  - { offsetInCU: 0x123F, offset: 0xCCCB3, size: 0x8, addend: 0x0, symName: '__ZN106_$LT$core..ops..range..Range$LT$usize$GT$$u20$as$u20$core..slice..index..SliceIndex$LT$$u5b$T$u5d$$GT$$GT$9index_mut17hf3d9c05e5e2e0878E', symObjAddr: 0x0, symBinAddr: 0x344F8, symSize: 0xBC }
  - { offsetInCU: 0x12F0, offset: 0xCCD64, size: 0x8, addend: 0x0, symName: '__ZN108_$LT$core..ops..range..RangeTo$LT$usize$GT$$u20$as$u20$core..slice..index..SliceIndex$LT$$u5b$T$u5d$$GT$$GT$9index_mut17h85a6b4de4a605742E', symObjAddr: 0xBC, symBinAddr: 0x345B4, symSize: 0x54 }
  - { offsetInCU: 0x1377, offset: 0xCCDEB, size: 0x8, addend: 0x0, symName: '__ZN110_$LT$core..ops..range..RangeFrom$LT$usize$GT$$u20$as$u20$core..slice..index..SliceIndex$LT$$u5b$T$u5d$$GT$$GT$5index17hdbc57338567b9323E', symObjAddr: 0x110, symBinAddr: 0x34608, symSize: 0x70 }
  - { offsetInCU: 0x17DA, offset: 0xCD24E, size: 0x8, addend: 0x0, symName: __ZN4core4iter6traits8iterator8Iterator3map17h0013c7b9fb6cda48E, symObjAddr: 0x180, symBinAddr: 0x34678, symSize: 0x34 }
  - { offsetInCU: 0x1847, offset: 0xCD2BB, size: 0x8, addend: 0x0, symName: __ZN4core4iter6traits8iterator8Iterator3map17h19c8261cc17476a7E, symObjAddr: 0x1B4, symBinAddr: 0x346AC, symSize: 0x34 }
  - { offsetInCU: 0x18B4, offset: 0xCD328, size: 0x8, addend: 0x0, symName: __ZN4core4iter6traits8iterator8Iterator3map17h32072ae5821644e7E, symObjAddr: 0x1E8, symBinAddr: 0x346E0, symSize: 0x34 }
  - { offsetInCU: 0x1921, offset: 0xCD395, size: 0x8, addend: 0x0, symName: __ZN4core4iter6traits8iterator8Iterator3map17h3fa82f15ae2b776eE, symObjAddr: 0x21C, symBinAddr: 0x34714, symSize: 0x34 }
  - { offsetInCU: 0x198E, offset: 0xCD402, size: 0x8, addend: 0x0, symName: __ZN4core4iter6traits8iterator8Iterator3map17h548485012206ead1E, symObjAddr: 0x250, symBinAddr: 0x34748, symSize: 0x34 }
  - { offsetInCU: 0x19FB, offset: 0xCD46F, size: 0x8, addend: 0x0, symName: __ZN4core4iter6traits8iterator8Iterator3map17h5a7d50da6fe13750E, symObjAddr: 0x284, symBinAddr: 0x3477C, symSize: 0x34 }
  - { offsetInCU: 0x1A68, offset: 0xCD4DC, size: 0x8, addend: 0x0, symName: __ZN4core4iter6traits8iterator8Iterator4fold17h2c0cfd6ba4b485bcE, symObjAddr: 0x2B8, symBinAddr: 0x347B0, symSize: 0xD8 }
  - { offsetInCU: 0x1AF8, offset: 0xCD56C, size: 0x8, addend: 0x0, symName: __ZN4core4iter6traits8iterator8Iterator4fold17h8de9f215407b5a85E, symObjAddr: 0x390, symBinAddr: 0x34888, symSize: 0xD8 }
  - { offsetInCU: 0x1B88, offset: 0xCD5FC, size: 0x8, addend: 0x0, symName: __ZN4core4iter6traits8iterator8Iterator4fold17h966663584c210772E, symObjAddr: 0x468, symBinAddr: 0x34960, symSize: 0xD8 }
  - { offsetInCU: 0x1C18, offset: 0xCD68C, size: 0x8, addend: 0x0, symName: __ZN4core4iter6traits8iterator8Iterator4fold17hd5849847505c9f7dE, symObjAddr: 0x540, symBinAddr: 0x34A38, symSize: 0xD8 }
  - { offsetInCU: 0x1CA8, offset: 0xCD71C, size: 0x8, addend: 0x0, symName: __ZN4core4iter6traits8iterator8Iterator4fold17hebae8a7479e3b55dE, symObjAddr: 0x618, symBinAddr: 0x34B10, symSize: 0xD8 }
  - { offsetInCU: 0x1D38, offset: 0xCD7AC, size: 0x8, addend: 0x0, symName: __ZN4core4iter6traits8iterator8Iterator4fold17hf5714ea2d795493dE, symObjAddr: 0x6F0, symBinAddr: 0x34BE8, symSize: 0xD8 }
  - { offsetInCU: 0x1E, offset: 0xCE36B, size: 0x8, addend: 0x0, symName: __ZN4pyo310exceptions14PyRuntimeError7new_err17h497d3d277e2b7689E, symObjAddr: 0x0, symBinAddr: 0x34CC0, symSize: 0x28 }
  - { offsetInCU: 0x1B87, offset: 0xCFED4, size: 0x8, addend: 0x0, symName: __ZN4pyo310exceptions14PyRuntimeError7new_err17h497d3d277e2b7689E, symObjAddr: 0x0, symBinAddr: 0x34CC0, symSize: 0x28 }
  - { offsetInCU: 0x1BB2, offset: 0xCFEFF, size: 0x8, addend: 0x0, symName: __ZN4pyo310exceptions16PyAttributeError7new_err17h3099774778d7df31E, symObjAddr: 0x28, symBinAddr: 0x34CE8, symSize: 0x28 }
  - { offsetInCU: 0x1E, offset: 0xCFF48, size: 0x8, addend: 0x0, symName: '__ZN4pyo36pycell14PyRef$LT$T$GT$10try_borrow17h03f5c8387ee581ffE', symObjAddr: 0x0, symBinAddr: 0x34D10, symSize: 0x4C }
  - { offsetInCU: 0x2DC4, offset: 0xD2CEE, size: 0x8, addend: 0x0, symName: '__ZN50_$LT$T$u20$as$u20$core..convert..Into$LT$U$GT$$GT$4into17h20d4ff7f7c40ca90E', symObjAddr: 0x690, symBinAddr: 0x353A0, symSize: 0x1C }
  - { offsetInCU: 0x2E04, offset: 0xD2D2E, size: 0x8, addend: 0x0, symName: '__ZN50_$LT$T$u20$as$u20$core..convert..Into$LT$U$GT$$GT$4into17h43bfc4067523d693E', symObjAddr: 0x6AC, symBinAddr: 0x353BC, symSize: 0x1C }
  - { offsetInCU: 0x39F3, offset: 0xD391D, size: 0x8, addend: 0x0, symName: '__ZN4pyo36pycell14PyRef$LT$T$GT$10try_borrow28_$u7b$$u7b$closure$u7d$$u7d$17h02c78bfd38ec0990E', symObjAddr: 0x390, symBinAddr: 0x350A0, symSize: 0x24 }
  - { offsetInCU: 0x3A37, offset: 0xD3961, size: 0x8, addend: 0x0, symName: '__ZN4pyo36pycell14PyRef$LT$T$GT$10try_borrow28_$u7b$$u7b$closure$u7d$$u7d$17h0416caf9d3d413afE', symObjAddr: 0x3B4, symBinAddr: 0x350C4, symSize: 0x24 }
  - { offsetInCU: 0x3A7B, offset: 0xD39A5, size: 0x8, addend: 0x0, symName: '__ZN4pyo36pycell14PyRef$LT$T$GT$10try_borrow28_$u7b$$u7b$closure$u7d$$u7d$17h1312447716381911E', symObjAddr: 0x3D8, symBinAddr: 0x350E8, symSize: 0x24 }
  - { offsetInCU: 0x3ABF, offset: 0xD39E9, size: 0x8, addend: 0x0, symName: '__ZN4pyo36pycell14PyRef$LT$T$GT$10try_borrow28_$u7b$$u7b$closure$u7d$$u7d$17h4015f0e844e33805E', symObjAddr: 0x3FC, symBinAddr: 0x3510C, symSize: 0x24 }
  - { offsetInCU: 0x3B03, offset: 0xD3A2D, size: 0x8, addend: 0x0, symName: '__ZN4pyo36pycell14PyRef$LT$T$GT$10try_borrow28_$u7b$$u7b$closure$u7d$$u7d$17h40e913cfdceab79bE', symObjAddr: 0x420, symBinAddr: 0x35130, symSize: 0x24 }
  - { offsetInCU: 0x3B47, offset: 0xD3A71, size: 0x8, addend: 0x0, symName: '__ZN4pyo36pycell14PyRef$LT$T$GT$10try_borrow28_$u7b$$u7b$closure$u7d$$u7d$17h63eb2a0caa817496E', symObjAddr: 0x444, symBinAddr: 0x35154, symSize: 0x24 }
  - { offsetInCU: 0x3B8B, offset: 0xD3AB5, size: 0x8, addend: 0x0, symName: '__ZN4pyo36pycell14PyRef$LT$T$GT$10try_borrow28_$u7b$$u7b$closure$u7d$$u7d$17h7581b6a5ce636cc1E', symObjAddr: 0x468, symBinAddr: 0x35178, symSize: 0x24 }
  - { offsetInCU: 0x3BCF, offset: 0xD3AF9, size: 0x8, addend: 0x0, symName: '__ZN4pyo36pycell14PyRef$LT$T$GT$10try_borrow28_$u7b$$u7b$closure$u7d$$u7d$17ha52c3521a5f568a5E', symObjAddr: 0x48C, symBinAddr: 0x3519C, symSize: 0x24 }
  - { offsetInCU: 0x3C13, offset: 0xD3B3D, size: 0x8, addend: 0x0, symName: '__ZN4pyo36pycell14PyRef$LT$T$GT$10try_borrow28_$u7b$$u7b$closure$u7d$$u7d$17hd13332ac12c58706E', symObjAddr: 0x4B0, symBinAddr: 0x351C0, symSize: 0x24 }
  - { offsetInCU: 0x3C57, offset: 0xD3B81, size: 0x8, addend: 0x0, symName: '__ZN4pyo36pycell14PyRef$LT$T$GT$10try_borrow28_$u7b$$u7b$closure$u7d$$u7d$17hda8c01868e01ec98E', symObjAddr: 0x4D4, symBinAddr: 0x351E4, symSize: 0x24 }
  - { offsetInCU: 0x3C9B, offset: 0xD3BC5, size: 0x8, addend: 0x0, symName: '__ZN4pyo36pycell14PyRef$LT$T$GT$10try_borrow28_$u7b$$u7b$closure$u7d$$u7d$17hdbd07f6d68c46c67E', symObjAddr: 0x4F8, symBinAddr: 0x35208, symSize: 0x24 }
  - { offsetInCU: 0x3CDF, offset: 0xD3C09, size: 0x8, addend: 0x0, symName: '__ZN4pyo36pycell14PyRef$LT$T$GT$10try_borrow28_$u7b$$u7b$closure$u7d$$u7d$17hdd12edb902d55c7bE', symObjAddr: 0x51C, symBinAddr: 0x3522C, symSize: 0x24 }
  - { offsetInCU: 0x3DFB, offset: 0xD3D25, size: 0x8, addend: 0x0, symName: '__ZN4pyo36pycell17PyRefMut$LT$T$GT$10try_borrow28_$u7b$$u7b$closure$u7d$$u7d$17h9b1a3927af576b31E', symObjAddr: 0x624, symBinAddr: 0x35334, symSize: 0x24 }
  - { offsetInCU: 0x3E3F, offset: 0xD3D69, size: 0x8, addend: 0x0, symName: '__ZN4pyo36pycell17PyRefMut$LT$T$GT$10try_borrow28_$u7b$$u7b$closure$u7d$$u7d$17hbbce17a066172476E', symObjAddr: 0x648, symBinAddr: 0x35358, symSize: 0x24 }
  - { offsetInCU: 0x3E83, offset: 0xD3DAD, size: 0x8, addend: 0x0, symName: '__ZN4pyo36pycell17PyRefMut$LT$T$GT$10try_borrow28_$u7b$$u7b$closure$u7d$$u7d$17hd68a07e7cc4aea06E', symObjAddr: 0x66C, symBinAddr: 0x3537C, symSize: 0x24 }
  - { offsetInCU: 0x3ECE, offset: 0xD3DF8, size: 0x8, addend: 0x0, symName: '__ZN72_$LT$pyo3..pycell..PyRef$LT$T$GT$$u20$as$u20$core..ops..deref..Deref$GT$5deref17h0861cd424e0310a5E', symObjAddr: 0x9D4, symBinAddr: 0x356E4, symSize: 0x74 }
  - { offsetInCU: 0x3F05, offset: 0xD3E2F, size: 0x8, addend: 0x0, symName: '__ZN72_$LT$pyo3..pycell..PyRef$LT$T$GT$$u20$as$u20$core..ops..deref..Deref$GT$5deref17h0def629f75ff0fe7E', symObjAddr: 0xA48, symBinAddr: 0x35758, symSize: 0x74 }
  - { offsetInCU: 0x3F3C, offset: 0xD3E66, size: 0x8, addend: 0x0, symName: '__ZN72_$LT$pyo3..pycell..PyRef$LT$T$GT$$u20$as$u20$core..ops..deref..Deref$GT$5deref17h156d90f6bb7ede15E', symObjAddr: 0xABC, symBinAddr: 0x357CC, symSize: 0x74 }
  - { offsetInCU: 0x3F73, offset: 0xD3E9D, size: 0x8, addend: 0x0, symName: '__ZN72_$LT$pyo3..pycell..PyRef$LT$T$GT$$u20$as$u20$core..ops..deref..Deref$GT$5deref17h508e3639b18d15daE', symObjAddr: 0xB30, symBinAddr: 0x35840, symSize: 0x74 }
  - { offsetInCU: 0x3FAA, offset: 0xD3ED4, size: 0x8, addend: 0x0, symName: '__ZN72_$LT$pyo3..pycell..PyRef$LT$T$GT$$u20$as$u20$core..ops..deref..Deref$GT$5deref17h5951dd5f91cc9e75E', symObjAddr: 0xBA4, symBinAddr: 0x358B4, symSize: 0x74 }
  - { offsetInCU: 0x3FE1, offset: 0xD3F0B, size: 0x8, addend: 0x0, symName: '__ZN72_$LT$pyo3..pycell..PyRef$LT$T$GT$$u20$as$u20$core..ops..deref..Deref$GT$5deref17h60b89c22c532b925E', symObjAddr: 0xC18, symBinAddr: 0x35928, symSize: 0x74 }
  - { offsetInCU: 0x4018, offset: 0xD3F42, size: 0x8, addend: 0x0, symName: '__ZN72_$LT$pyo3..pycell..PyRef$LT$T$GT$$u20$as$u20$core..ops..deref..Deref$GT$5deref17h6b6b7986fa82a87fE', symObjAddr: 0xC8C, symBinAddr: 0x3599C, symSize: 0x74 }
  - { offsetInCU: 0x404F, offset: 0xD3F79, size: 0x8, addend: 0x0, symName: '__ZN72_$LT$pyo3..pycell..PyRef$LT$T$GT$$u20$as$u20$core..ops..deref..Deref$GT$5deref17hbc084b16cfb67e4fE', symObjAddr: 0xD00, symBinAddr: 0x35A10, symSize: 0x74 }
  - { offsetInCU: 0x4086, offset: 0xD3FB0, size: 0x8, addend: 0x0, symName: '__ZN72_$LT$pyo3..pycell..PyRef$LT$T$GT$$u20$as$u20$core..ops..deref..Deref$GT$5deref17hbc7147facd8cf4fbE', symObjAddr: 0xD74, symBinAddr: 0x35A84, symSize: 0x74 }
  - { offsetInCU: 0x40BD, offset: 0xD3FE7, size: 0x8, addend: 0x0, symName: '__ZN72_$LT$pyo3..pycell..PyRef$LT$T$GT$$u20$as$u20$core..ops..deref..Deref$GT$5deref17he346fbb401a99440E', symObjAddr: 0xDE8, symBinAddr: 0x35AF8, symSize: 0x74 }
  - { offsetInCU: 0x40F4, offset: 0xD401E, size: 0x8, addend: 0x0, symName: '__ZN72_$LT$pyo3..pycell..PyRef$LT$T$GT$$u20$as$u20$core..ops..deref..Deref$GT$5deref17he35b1caab4f98816E', symObjAddr: 0xE5C, symBinAddr: 0x35B6C, symSize: 0x74 }
  - { offsetInCU: 0x412B, offset: 0xD4055, size: 0x8, addend: 0x0, symName: '__ZN72_$LT$pyo3..pycell..PyRef$LT$T$GT$$u20$as$u20$core..ops..deref..Deref$GT$5deref17hf9710ed58ee1b883E', symObjAddr: 0xED0, symBinAddr: 0x35BE0, symSize: 0x74 }
  - { offsetInCU: 0x4168, offset: 0xD4092, size: 0x8, addend: 0x0, symName: '__ZN78_$LT$pyo3..pycell..PyRefMut$LT$T$GT$$u20$as$u20$core..ops..deref..DerefMut$GT$9deref_mut17h4e2ccaf83890447dE', symObjAddr: 0xF44, symBinAddr: 0x35C54, symSize: 0x74 }
  - { offsetInCU: 0x419F, offset: 0xD40C9, size: 0x8, addend: 0x0, symName: '__ZN78_$LT$pyo3..pycell..PyRefMut$LT$T$GT$$u20$as$u20$core..ops..deref..DerefMut$GT$9deref_mut17h749eff1d6efc3901E', symObjAddr: 0xFB8, symBinAddr: 0x35CC8, symSize: 0x74 }
  - { offsetInCU: 0x41D6, offset: 0xD4100, size: 0x8, addend: 0x0, symName: '__ZN78_$LT$pyo3..pycell..PyRefMut$LT$T$GT$$u20$as$u20$core..ops..deref..DerefMut$GT$9deref_mut17hfbedff7a63589ccfE', symObjAddr: 0x102C, symBinAddr: 0x35D3C, symSize: 0x74 }
  - { offsetInCU: 0x4EC3, offset: 0xD4DED, size: 0x8, addend: 0x0, symName: '__ZN57_$LT$T$u20$as$u20$pyo3..conversion..FromPyObjectBound$GT$20from_py_object_bound17h03b00dec5949424cE', symObjAddr: 0x6C8, symBinAddr: 0x353D8, symSize: 0x34 }
  - { offsetInCU: 0x4EFA, offset: 0xD4E24, size: 0x8, addend: 0x0, symName: '__ZN57_$LT$T$u20$as$u20$pyo3..conversion..FromPyObjectBound$GT$20from_py_object_bound17h322f44e97e93a487E', symObjAddr: 0x6FC, symBinAddr: 0x3540C, symSize: 0x34 }
  - { offsetInCU: 0x4F31, offset: 0xD4E5B, size: 0x8, addend: 0x0, symName: '__ZN57_$LT$T$u20$as$u20$pyo3..conversion..FromPyObjectBound$GT$20from_py_object_bound17h364b897c24a97ca1E', symObjAddr: 0x730, symBinAddr: 0x35440, symSize: 0x34 }
  - { offsetInCU: 0x4F68, offset: 0xD4E92, size: 0x8, addend: 0x0, symName: '__ZN57_$LT$T$u20$as$u20$pyo3..conversion..FromPyObjectBound$GT$20from_py_object_bound17h4bd56a5f1faf0196E', symObjAddr: 0x764, symBinAddr: 0x35474, symSize: 0x34 }
  - { offsetInCU: 0x4F9F, offset: 0xD4EC9, size: 0x8, addend: 0x0, symName: '__ZN57_$LT$T$u20$as$u20$pyo3..conversion..FromPyObjectBound$GT$20from_py_object_bound17h70451f86081594fbE', symObjAddr: 0x798, symBinAddr: 0x354A8, symSize: 0x34 }
  - { offsetInCU: 0x4FD6, offset: 0xD4F00, size: 0x8, addend: 0x0, symName: '__ZN57_$LT$T$u20$as$u20$pyo3..conversion..FromPyObjectBound$GT$20from_py_object_bound17h824d9e746a495d3bE', symObjAddr: 0x7CC, symBinAddr: 0x354DC, symSize: 0x34 }
  - { offsetInCU: 0x500D, offset: 0xD4F37, size: 0x8, addend: 0x0, symName: '__ZN57_$LT$T$u20$as$u20$pyo3..conversion..FromPyObjectBound$GT$20from_py_object_bound17h8a6dfa0d7bd76d00E', symObjAddr: 0x800, symBinAddr: 0x35510, symSize: 0x34 }
  - { offsetInCU: 0x5044, offset: 0xD4F6E, size: 0x8, addend: 0x0, symName: '__ZN57_$LT$T$u20$as$u20$pyo3..conversion..FromPyObjectBound$GT$20from_py_object_bound17h96eabd15f74defbfE', symObjAddr: 0x834, symBinAddr: 0x35544, symSize: 0x34 }
  - { offsetInCU: 0x507B, offset: 0xD4FA5, size: 0x8, addend: 0x0, symName: '__ZN57_$LT$T$u20$as$u20$pyo3..conversion..FromPyObjectBound$GT$20from_py_object_bound17h98eb122ea718e206E', symObjAddr: 0x868, symBinAddr: 0x35578, symSize: 0x34 }
  - { offsetInCU: 0x50B2, offset: 0xD4FDC, size: 0x8, addend: 0x0, symName: '__ZN57_$LT$T$u20$as$u20$pyo3..conversion..FromPyObjectBound$GT$20from_py_object_bound17h9a0a210632015e4fE', symObjAddr: 0x89C, symBinAddr: 0x355AC, symSize: 0x34 }
  - { offsetInCU: 0x50E9, offset: 0xD5013, size: 0x8, addend: 0x0, symName: '__ZN57_$LT$T$u20$as$u20$pyo3..conversion..FromPyObjectBound$GT$20from_py_object_bound17haac90ae510891d1bE', symObjAddr: 0x8D0, symBinAddr: 0x355E0, symSize: 0x34 }
  - { offsetInCU: 0x5120, offset: 0xD504A, size: 0x8, addend: 0x0, symName: '__ZN57_$LT$T$u20$as$u20$pyo3..conversion..FromPyObjectBound$GT$20from_py_object_bound17had0964d75b5e457bE', symObjAddr: 0x904, symBinAddr: 0x35614, symSize: 0x34 }
  - { offsetInCU: 0x5157, offset: 0xD5081, size: 0x8, addend: 0x0, symName: '__ZN57_$LT$T$u20$as$u20$pyo3..conversion..FromPyObjectBound$GT$20from_py_object_bound17hb655dbc3d23f6498E', symObjAddr: 0x938, symBinAddr: 0x35648, symSize: 0x34 }
  - { offsetInCU: 0x518E, offset: 0xD50B8, size: 0x8, addend: 0x0, symName: '__ZN57_$LT$T$u20$as$u20$pyo3..conversion..FromPyObjectBound$GT$20from_py_object_bound17hb90b00a9dbdd4badE', symObjAddr: 0x96C, symBinAddr: 0x3567C, symSize: 0x34 }
  - { offsetInCU: 0x51C5, offset: 0xD50EF, size: 0x8, addend: 0x0, symName: '__ZN57_$LT$T$u20$as$u20$pyo3..conversion..FromPyObjectBound$GT$20from_py_object_bound17hbc121a094653dce4E', symObjAddr: 0x9A0, symBinAddr: 0x356B0, symSize: 0x34 }
  - { offsetInCU: 0x5202, offset: 0xD512C, size: 0x8, addend: 0x0, symName: '__ZN79_$LT$pyo3..pycell..PyRef$LT$T$GT$$u20$as$u20$pyo3..conversion..FromPyObject$GT$13extract_bound17h20b175807d4528ccE', symObjAddr: 0x10A0, symBinAddr: 0x35DB0, symSize: 0xA4 }
  - { offsetInCU: 0x5258, offset: 0xD5182, size: 0x8, addend: 0x0, symName: '__ZN79_$LT$pyo3..pycell..PyRef$LT$T$GT$$u20$as$u20$pyo3..conversion..FromPyObject$GT$13extract_bound17h3d1310a1adb6fa43E', symObjAddr: 0x1144, symBinAddr: 0x35E54, symSize: 0xA4 }
  - { offsetInCU: 0x52AE, offset: 0xD51D8, size: 0x8, addend: 0x0, symName: '__ZN79_$LT$pyo3..pycell..PyRef$LT$T$GT$$u20$as$u20$pyo3..conversion..FromPyObject$GT$13extract_bound17h3e5192e79de1c1feE', symObjAddr: 0x11E8, symBinAddr: 0x35EF8, symSize: 0xA4 }
  - { offsetInCU: 0x5304, offset: 0xD522E, size: 0x8, addend: 0x0, symName: '__ZN79_$LT$pyo3..pycell..PyRef$LT$T$GT$$u20$as$u20$pyo3..conversion..FromPyObject$GT$13extract_bound17h4b71d72a68dde3aeE', symObjAddr: 0x128C, symBinAddr: 0x35F9C, symSize: 0xA4 }
  - { offsetInCU: 0x535A, offset: 0xD5284, size: 0x8, addend: 0x0, symName: '__ZN79_$LT$pyo3..pycell..PyRef$LT$T$GT$$u20$as$u20$pyo3..conversion..FromPyObject$GT$13extract_bound17h4e212656fd4183bbE', symObjAddr: 0x1330, symBinAddr: 0x36040, symSize: 0xA4 }
  - { offsetInCU: 0x53B0, offset: 0xD52DA, size: 0x8, addend: 0x0, symName: '__ZN79_$LT$pyo3..pycell..PyRef$LT$T$GT$$u20$as$u20$pyo3..conversion..FromPyObject$GT$13extract_bound17h6cabf15797b2b889E', symObjAddr: 0x13D4, symBinAddr: 0x360E4, symSize: 0xA4 }
  - { offsetInCU: 0x5406, offset: 0xD5330, size: 0x8, addend: 0x0, symName: '__ZN79_$LT$pyo3..pycell..PyRef$LT$T$GT$$u20$as$u20$pyo3..conversion..FromPyObject$GT$13extract_bound17h8dd226cbe7280d7bE', symObjAddr: 0x1478, symBinAddr: 0x36188, symSize: 0xA4 }
  - { offsetInCU: 0x545C, offset: 0xD5386, size: 0x8, addend: 0x0, symName: '__ZN79_$LT$pyo3..pycell..PyRef$LT$T$GT$$u20$as$u20$pyo3..conversion..FromPyObject$GT$13extract_bound17h983aa6f17fb6b8f8E', symObjAddr: 0x151C, symBinAddr: 0x3622C, symSize: 0xA4 }
  - { offsetInCU: 0x54B2, offset: 0xD53DC, size: 0x8, addend: 0x0, symName: '__ZN79_$LT$pyo3..pycell..PyRef$LT$T$GT$$u20$as$u20$pyo3..conversion..FromPyObject$GT$13extract_bound17hb97eb4f586f4e9aeE', symObjAddr: 0x15C0, symBinAddr: 0x362D0, symSize: 0xA4 }
  - { offsetInCU: 0x5508, offset: 0xD5432, size: 0x8, addend: 0x0, symName: '__ZN79_$LT$pyo3..pycell..PyRef$LT$T$GT$$u20$as$u20$pyo3..conversion..FromPyObject$GT$13extract_bound17hc0b5cecfecab60b6E', symObjAddr: 0x1664, symBinAddr: 0x36374, symSize: 0xA4 }
  - { offsetInCU: 0x555E, offset: 0xD5488, size: 0x8, addend: 0x0, symName: '__ZN79_$LT$pyo3..pycell..PyRef$LT$T$GT$$u20$as$u20$pyo3..conversion..FromPyObject$GT$13extract_bound17hde689a0e77324d4eE', symObjAddr: 0x1708, symBinAddr: 0x36418, symSize: 0xA4 }
  - { offsetInCU: 0x55B4, offset: 0xD54DE, size: 0x8, addend: 0x0, symName: '__ZN79_$LT$pyo3..pycell..PyRef$LT$T$GT$$u20$as$u20$pyo3..conversion..FromPyObject$GT$13extract_bound17hf9514e0951b1def5E', symObjAddr: 0x17AC, symBinAddr: 0x364BC, symSize: 0xA4 }
  - { offsetInCU: 0x5610, offset: 0xD553A, size: 0x8, addend: 0x0, symName: '__ZN82_$LT$pyo3..pycell..PyRefMut$LT$T$GT$$u20$as$u20$pyo3..conversion..FromPyObject$GT$13extract_bound17h920ca811875c30b8E', symObjAddr: 0x1850, symBinAddr: 0x36560, symSize: 0xA4 }
  - { offsetInCU: 0x5666, offset: 0xD5590, size: 0x8, addend: 0x0, symName: '__ZN82_$LT$pyo3..pycell..PyRefMut$LT$T$GT$$u20$as$u20$pyo3..conversion..FromPyObject$GT$13extract_bound17hcef66ba906176799E', symObjAddr: 0x18F4, symBinAddr: 0x36604, symSize: 0xA4 }
  - { offsetInCU: 0x56BC, offset: 0xD55E6, size: 0x8, addend: 0x0, symName: '__ZN82_$LT$pyo3..pycell..PyRefMut$LT$T$GT$$u20$as$u20$pyo3..conversion..FromPyObject$GT$13extract_bound17hd9158dc1cc3c80c1E', symObjAddr: 0x1998, symBinAddr: 0x366A8, symSize: 0xA4 }
  - { offsetInCU: 0x69E0, offset: 0xD690A, size: 0x8, addend: 0x0, symName: '__ZN4pyo36pycell14PyRef$LT$T$GT$10try_borrow17h03f5c8387ee581ffE', symObjAddr: 0x0, symBinAddr: 0x34D10, symSize: 0x4C }
  - { offsetInCU: 0x6A37, offset: 0xD6961, size: 0x8, addend: 0x0, symName: '__ZN4pyo36pycell14PyRef$LT$T$GT$10try_borrow17h0e3afe4cc1f6ed55E', symObjAddr: 0x4C, symBinAddr: 0x34D5C, symSize: 0x4C }
  - { offsetInCU: 0x6AB3, offset: 0xD69DD, size: 0x8, addend: 0x0, symName: '__ZN4pyo36pycell14PyRef$LT$T$GT$10try_borrow17h13780ebcf4bb7ca0E', symObjAddr: 0x98, symBinAddr: 0x34DA8, symSize: 0x4C }
  - { offsetInCU: 0x728B, offset: 0xD71B5, size: 0x8, addend: 0x0, symName: '__ZN4pyo36pycell14PyRef$LT$T$GT$10try_borrow17h461ed7bd5e5a38fcE', symObjAddr: 0xE4, symBinAddr: 0x34DF4, symSize: 0x4C }
  - { offsetInCU: 0x72E2, offset: 0xD720C, size: 0x8, addend: 0x0, symName: '__ZN4pyo36pycell14PyRef$LT$T$GT$10try_borrow17h5db807d1cf1c85d9E', symObjAddr: 0x130, symBinAddr: 0x34E40, symSize: 0x4C }
  - { offsetInCU: 0x7339, offset: 0xD7263, size: 0x8, addend: 0x0, symName: '__ZN4pyo36pycell14PyRef$LT$T$GT$10try_borrow17h7119785bb88c7ff7E', symObjAddr: 0x17C, symBinAddr: 0x34E8C, symSize: 0x4C }
  - { offsetInCU: 0x7390, offset: 0xD72BA, size: 0x8, addend: 0x0, symName: '__ZN4pyo36pycell14PyRef$LT$T$GT$10try_borrow17h80f404e0dadbc5e5E', symObjAddr: 0x1C8, symBinAddr: 0x34ED8, symSize: 0x4C }
  - { offsetInCU: 0x73E7, offset: 0xD7311, size: 0x8, addend: 0x0, symName: '__ZN4pyo36pycell14PyRef$LT$T$GT$10try_borrow17h9ed2e481cfcf66bfE', symObjAddr: 0x214, symBinAddr: 0x34F24, symSize: 0x4C }
  - { offsetInCU: 0x743E, offset: 0xD7368, size: 0x8, addend: 0x0, symName: '__ZN4pyo36pycell14PyRef$LT$T$GT$10try_borrow17hb77176846d5e27d1E', symObjAddr: 0x260, symBinAddr: 0x34F70, symSize: 0x4C }
  - { offsetInCU: 0x74A2, offset: 0xD73CC, size: 0x8, addend: 0x0, symName: '__ZN4pyo36pycell14PyRef$LT$T$GT$10try_borrow17hc692200bbdbf5640E', symObjAddr: 0x2AC, symBinAddr: 0x34FBC, symSize: 0x4C }
  - { offsetInCU: 0x74F9, offset: 0xD7423, size: 0x8, addend: 0x0, symName: '__ZN4pyo36pycell14PyRef$LT$T$GT$10try_borrow17hc70f144a679fb8f2E', symObjAddr: 0x2F8, symBinAddr: 0x35008, symSize: 0x4C }
  - { offsetInCU: 0x7550, offset: 0xD747A, size: 0x8, addend: 0x0, symName: '__ZN4pyo36pycell14PyRef$LT$T$GT$10try_borrow17hd79ab0f9117014aaE', symObjAddr: 0x344, symBinAddr: 0x35054, symSize: 0x4C }
  - { offsetInCU: 0x759A, offset: 0xD74C4, size: 0x8, addend: 0x0, symName: '__ZN4pyo36pycell17PyRefMut$LT$T$GT$10try_borrow17ha08bbb240447232fE', symObjAddr: 0x540, symBinAddr: 0x35250, symSize: 0x4C }
  - { offsetInCU: 0x75E4, offset: 0xD750E, size: 0x8, addend: 0x0, symName: '__ZN4pyo36pycell17PyRefMut$LT$T$GT$10try_borrow17ha5de63333cd3feeaE', symObjAddr: 0x58C, symBinAddr: 0x3529C, symSize: 0x4C }
  - { offsetInCU: 0x762E, offset: 0xD7558, size: 0x8, addend: 0x0, symName: '__ZN4pyo36pycell17PyRefMut$LT$T$GT$10try_borrow17hc329283812f716fcE', symObjAddr: 0x5D8, symBinAddr: 0x352E8, symSize: 0x4C }
  - { offsetInCU: 0x1E, offset: 0xD7878, size: 0x8, addend: 0x0, symName: __ZN4core4iter6traits8iterator8Iterator3zip17h47dc619139175536E, symObjAddr: 0x0, symBinAddr: 0x3674C, symSize: 0xB4 }
  - { offsetInCU: 0x94D, offset: 0xD81A7, size: 0x8, addend: 0x0, symName: __ZN4core4iter6traits8iterator8Iterator3zip17h47dc619139175536E, symObjAddr: 0x0, symBinAddr: 0x3674C, symSize: 0xB4 }
  - { offsetInCU: 0x9C3, offset: 0xD821D, size: 0x8, addend: 0x0, symName: __ZN4core4iter6traits8iterator8Iterator4take17h2b8c5d4459285d2fE, symObjAddr: 0xB4, symBinAddr: 0x36800, symSize: 0x24 }
  - { offsetInCU: 0x1E, offset: 0xD9360, size: 0x8, addend: 0x0, symName: __ZN4pyo315internal_tricks12ptr_from_ref17h4540c786967b96dbE, symObjAddr: 0x0, symBinAddr: 0x36824, symSize: 0x14 }
  - { offsetInCU: 0x1271, offset: 0xDA5B3, size: 0x8, addend: 0x0, symName: __ZN4pyo315internal_tricks12ptr_from_ref17h4540c786967b96dbE, symObjAddr: 0x0, symBinAddr: 0x36824, symSize: 0x14 }
  - { offsetInCU: 0x12A6, offset: 0xDA5E8, size: 0x8, addend: 0x0, symName: __ZN4pyo315internal_tricks12ptr_from_ref17hbba4860b06e136e1E, symObjAddr: 0x14, symBinAddr: 0x36838, symSize: 0x14 }
  - { offsetInCU: 0x1E, offset: 0xDAD60, size: 0x8, addend: 0x0, symName: '__ZN102_$LT$core..iter..adapters..map..Map$LT$I$C$F$GT$$u20$as$u20$core..iter..traits..iterator..Iterator$GT$4fold17h12b42bd68e819ee6E', symObjAddr: 0x0, symBinAddr: 0x3684C, symSize: 0x58 }
  - { offsetInCU: 0x962, offset: 0xDB6A4, size: 0x8, addend: 0x0, symName: '__ZN4core4iter8adapters3map8map_fold28_$u7b$$u7b$closure$u7d$$u7d$17h0a9abcaeac1fef0eE', symObjAddr: 0x860, symBinAddr: 0x370AC, symSize: 0x78 }
  - { offsetInCU: 0x9E7, offset: 0xDB729, size: 0x8, addend: 0x0, symName: '__ZN4core4iter8adapters3map8map_fold28_$u7b$$u7b$closure$u7d$$u7d$17h68b6ab54386b08bcE', symObjAddr: 0x8D8, symBinAddr: 0x37124, symSize: 0x78 }
  - { offsetInCU: 0xA6C, offset: 0xDB7AE, size: 0x8, addend: 0x0, symName: '__ZN4core4iter8adapters3map8map_fold28_$u7b$$u7b$closure$u7d$$u7d$17h91fd06ad584c4a26E', symObjAddr: 0x950, symBinAddr: 0x3719C, symSize: 0x78 }
  - { offsetInCU: 0xAF1, offset: 0xDB833, size: 0x8, addend: 0x0, symName: '__ZN4core4iter8adapters3map8map_fold28_$u7b$$u7b$closure$u7d$$u7d$17h9ba22438aa0115e6E', symObjAddr: 0x9C8, symBinAddr: 0x37214, symSize: 0x78 }
  - { offsetInCU: 0xB76, offset: 0xDB8B8, size: 0x8, addend: 0x0, symName: '__ZN4core4iter8adapters3map8map_fold28_$u7b$$u7b$closure$u7d$$u7d$17hb50f26580d4c8a32E', symObjAddr: 0xA40, symBinAddr: 0x3728C, symSize: 0x78 }
  - { offsetInCU: 0xBFB, offset: 0xDB93D, size: 0x8, addend: 0x0, symName: '__ZN4core4iter8adapters3map8map_fold28_$u7b$$u7b$closure$u7d$$u7d$17hc7dbcd170e305c8bE', symObjAddr: 0xAB8, symBinAddr: 0x37304, symSize: 0x78 }
  - { offsetInCU: 0xC80, offset: 0xDB9C2, size: 0x8, addend: 0x0, symName: '__ZN4core4iter8adapters3map8map_fold28_$u7b$$u7b$closure$u7d$$u7d$17hfee0a0d16de622acE', symObjAddr: 0xB30, symBinAddr: 0x3737C, symSize: 0x90 }
  - { offsetInCU: 0xD0D, offset: 0xDBA4F, size: 0x8, addend: 0x0, symName: '__ZN102_$LT$core..iter..adapters..map..Map$LT$I$C$F$GT$$u20$as$u20$core..iter..traits..iterator..Iterator$GT$4fold17h12b42bd68e819ee6E', symObjAddr: 0x0, symBinAddr: 0x3684C, symSize: 0x58 }
  - { offsetInCU: 0xDA6, offset: 0xDBAE8, size: 0x8, addend: 0x0, symName: '__ZN102_$LT$core..iter..adapters..map..Map$LT$I$C$F$GT$$u20$as$u20$core..iter..traits..iterator..Iterator$GT$4fold17h18b9ebe07bf1de2dE', symObjAddr: 0x58, symBinAddr: 0x368A4, symSize: 0x30 }
  - { offsetInCU: 0xE1B, offset: 0xDBB5D, size: 0x8, addend: 0x0, symName: '__ZN102_$LT$core..iter..adapters..map..Map$LT$I$C$F$GT$$u20$as$u20$core..iter..traits..iterator..Iterator$GT$4fold17h42e655e4c2b6dd53E', symObjAddr: 0x88, symBinAddr: 0x368D4, symSize: 0x58 }
  - { offsetInCU: 0xEB4, offset: 0xDBBF6, size: 0x8, addend: 0x0, symName: '__ZN102_$LT$core..iter..adapters..map..Map$LT$I$C$F$GT$$u20$as$u20$core..iter..traits..iterator..Iterator$GT$4fold17h4cefa33aeecdb682E', symObjAddr: 0xE0, symBinAddr: 0x3692C, symSize: 0x58 }
  - { offsetInCU: 0xF4D, offset: 0xDBC8F, size: 0x8, addend: 0x0, symName: '__ZN102_$LT$core..iter..adapters..map..Map$LT$I$C$F$GT$$u20$as$u20$core..iter..traits..iterator..Iterator$GT$4fold17h7483aca9f73cbe06E', symObjAddr: 0x138, symBinAddr: 0x36984, symSize: 0x58 }
  - { offsetInCU: 0xFE6, offset: 0xDBD28, size: 0x8, addend: 0x0, symName: '__ZN102_$LT$core..iter..adapters..map..Map$LT$I$C$F$GT$$u20$as$u20$core..iter..traits..iterator..Iterator$GT$4fold17h85454ea2a1f6cc2bE', symObjAddr: 0x190, symBinAddr: 0x369DC, symSize: 0x58 }
  - { offsetInCU: 0x107F, offset: 0xDBDC1, size: 0x8, addend: 0x0, symName: '__ZN102_$LT$core..iter..adapters..map..Map$LT$I$C$F$GT$$u20$as$u20$core..iter..traits..iterator..Iterator$GT$4fold17hc9286eb80362c3afE', symObjAddr: 0x1E8, symBinAddr: 0x36A34, symSize: 0x58 }
  - { offsetInCU: 0x1118, offset: 0xDBE5A, size: 0x8, addend: 0x0, symName: '__ZN102_$LT$core..iter..adapters..map..Map$LT$I$C$F$GT$$u20$as$u20$core..iter..traits..iterator..Iterator$GT$4next17h70a85f5e328b8d93E', symObjAddr: 0x240, symBinAddr: 0x36A8C, symSize: 0xA8 }
  - { offsetInCU: 0x11B4, offset: 0xDBEF6, size: 0x8, addend: 0x0, symName: '__ZN102_$LT$core..iter..adapters..map..Map$LT$I$C$F$GT$$u20$as$u20$core..iter..traits..iterator..Iterator$GT$8try_fold17h4e082d9cf413f685E', symObjAddr: 0x2E8, symBinAddr: 0x36B34, symSize: 0x4C }
  - { offsetInCU: 0x1232, offset: 0xDBF74, size: 0x8, addend: 0x0, symName: '__ZN102_$LT$core..iter..adapters..map..Map$LT$I$C$F$GT$$u20$as$u20$core..iter..traits..iterator..Iterator$GT$8try_fold17hf858c5859cf10bf6E', symObjAddr: 0x334, symBinAddr: 0x36B80, symSize: 0x58 }
  - { offsetInCU: 0x12D5, offset: 0xDC017, size: 0x8, addend: 0x0, symName: '__ZN102_$LT$core..iter..adapters..map..Map$LT$I$C$F$GT$$u20$as$u20$core..iter..traits..iterator..Iterator$GT$9size_hint17h3d9eae8784e887b1E', symObjAddr: 0x38C, symBinAddr: 0x36BD8, symSize: 0x24 }
  - { offsetInCU: 0x131C, offset: 0xDC05E, size: 0x8, addend: 0x0, symName: '__ZN102_$LT$core..iter..adapters..map..Map$LT$I$C$F$GT$$u20$as$u20$core..iter..traits..iterator..Iterator$GT$9size_hint17h4aa1bc7920cd75a5E', symObjAddr: 0x3B0, symBinAddr: 0x36BFC, symSize: 0x24 }
  - { offsetInCU: 0x1363, offset: 0xDC0A5, size: 0x8, addend: 0x0, symName: '__ZN102_$LT$core..iter..adapters..map..Map$LT$I$C$F$GT$$u20$as$u20$core..iter..traits..iterator..Iterator$GT$9size_hint17h71ec843137aa699aE', symObjAddr: 0x3D4, symBinAddr: 0x36C20, symSize: 0x24 }
  - { offsetInCU: 0x13AA, offset: 0xDC0EC, size: 0x8, addend: 0x0, symName: '__ZN102_$LT$core..iter..adapters..map..Map$LT$I$C$F$GT$$u20$as$u20$core..iter..traits..iterator..Iterator$GT$9size_hint17h858e23cc9e426c84E', symObjAddr: 0x3F8, symBinAddr: 0x36C44, symSize: 0x24 }
  - { offsetInCU: 0x13F1, offset: 0xDC133, size: 0x8, addend: 0x0, symName: '__ZN102_$LT$core..iter..adapters..map..Map$LT$I$C$F$GT$$u20$as$u20$core..iter..traits..iterator..Iterator$GT$9size_hint17hdfd53b2a086de48aE', symObjAddr: 0x41C, symBinAddr: 0x36C68, symSize: 0x24 }
  - { offsetInCU: 0x1438, offset: 0xDC17A, size: 0x8, addend: 0x0, symName: '__ZN102_$LT$core..iter..adapters..map..Map$LT$I$C$F$GT$$u20$as$u20$core..iter..traits..iterator..Iterator$GT$9size_hint17he6d95ca7c8af85c4E', symObjAddr: 0x440, symBinAddr: 0x36C8C, symSize: 0x24 }
  - { offsetInCU: 0x16A4, offset: 0xDC3E6, size: 0x8, addend: 0x0, symName: '__ZN4core4iter8adapters3map12map_try_fold28_$u7b$$u7b$closure$u7d$$u7d$17h660a459d29284621E', symObjAddr: 0x690, symBinAddr: 0x36EDC, symSize: 0x108 }
  - { offsetInCU: 0x1737, offset: 0xDC479, size: 0x8, addend: 0x0, symName: '__ZN4core4iter8adapters3map12map_try_fold28_$u7b$$u7b$closure$u7d$$u7d$17hd72f7c1c47f49ed0E', symObjAddr: 0x798, symBinAddr: 0x36FE4, symSize: 0xC8 }
  - { offsetInCU: 0x17CF, offset: 0xDC511, size: 0x8, addend: 0x0, symName: '__ZN113_$LT$core..iter..adapters..map..Map$LT$I$C$F$GT$$u20$as$u20$core..iter..traits..exact_size..ExactSizeIterator$GT$3len17hdb09f0f90e75ab25E', symObjAddr: 0x464, symBinAddr: 0x36CB0, symSize: 0x24 }
  - { offsetInCU: 0x181C, offset: 0xDC55E, size: 0x8, addend: 0x0, symName: '__ZN96_$LT$core..iter..adapters..map..Map$LT$I$C$F$GT$$u20$as$u20$core..iter..adapters..SourceIter$GT$8as_inner17he8c3238b597acfdfE', symObjAddr: 0xE58, symBinAddr: 0x376A4, symSize: 0x24 }
  - { offsetInCU: 0x1C35, offset: 0xDC977, size: 0x8, addend: 0x0, symName: __ZN4core4iter6traits8iterator8Iterator3sum17hb94f269d13b82e7aE, symObjAddr: 0x488, symBinAddr: 0x36CD4, symSize: 0x2C }
  - { offsetInCU: 0x1C75, offset: 0xDC9B7, size: 0x8, addend: 0x0, symName: __ZN4core4iter6traits8iterator8Iterator4take17h0eb5552bc746770cE, symObjAddr: 0x4B4, symBinAddr: 0x36D00, symSize: 0x18 }
  - { offsetInCU: 0x1CBB, offset: 0xDC9FD, size: 0x8, addend: 0x0, symName: __ZN4core4iter6traits8iterator8Iterator7collect17h31988b07294f8e39E, symObjAddr: 0x4CC, symBinAddr: 0x36D18, symSize: 0x14 }
  - { offsetInCU: 0x1CFC, offset: 0xDCA3E, size: 0x8, addend: 0x0, symName: __ZN4core4iter6traits8iterator8Iterator7collect17h5da9d067a7834712E, symObjAddr: 0x4E0, symBinAddr: 0x36D2C, symSize: 0x14 }
  - { offsetInCU: 0x1D3D, offset: 0xDCA7F, size: 0x8, addend: 0x0, symName: __ZN4core4iter6traits8iterator8Iterator7collect17h6564171f0b4ed31aE, symObjAddr: 0x4F4, symBinAddr: 0x36D40, symSize: 0x14 }
  - { offsetInCU: 0x1D7E, offset: 0xDCAC0, size: 0x8, addend: 0x0, symName: __ZN4core4iter6traits8iterator8Iterator7collect17h6fea656f0c0b4ea2E, symObjAddr: 0x508, symBinAddr: 0x36D54, symSize: 0x14 }
  - { offsetInCU: 0x1DBF, offset: 0xDCB01, size: 0x8, addend: 0x0, symName: __ZN4core4iter6traits8iterator8Iterator7collect17h908cb5d3f31e924bE, symObjAddr: 0x51C, symBinAddr: 0x36D68, symSize: 0x14 }
  - { offsetInCU: 0x1E00, offset: 0xDCB42, size: 0x8, addend: 0x0, symName: __ZN4core4iter6traits8iterator8Iterator7collect17ha379a7f9e7cb2616E, symObjAddr: 0x530, symBinAddr: 0x36D7C, symSize: 0x14 }
  - { offsetInCU: 0x1E41, offset: 0xDCB83, size: 0x8, addend: 0x0, symName: __ZN4core4iter6traits8iterator8Iterator7collect17hbcd95c14c2e7d7edE, symObjAddr: 0x544, symBinAddr: 0x36D90, symSize: 0x14 }
  - { offsetInCU: 0x1E82, offset: 0xDCBC4, size: 0x8, addend: 0x0, symName: __ZN4core4iter6traits8iterator8Iterator8for_each17h3d1e14d1e7ffc400E, symObjAddr: 0x558, symBinAddr: 0x36DA4, symSize: 0x34 }
  - { offsetInCU: 0x1EEE, offset: 0xDCC30, size: 0x8, addend: 0x0, symName: __ZN4core4iter6traits8iterator8Iterator8for_each17h42564c9eb765afa0E, symObjAddr: 0x58C, symBinAddr: 0x36DD8, symSize: 0x34 }
  - { offsetInCU: 0x1F5A, offset: 0xDCC9C, size: 0x8, addend: 0x0, symName: __ZN4core4iter6traits8iterator8Iterator8for_each17h63ce652b9301c40dE, symObjAddr: 0x5C0, symBinAddr: 0x36E0C, symSize: 0x34 }
  - { offsetInCU: 0x1FC6, offset: 0xDCD08, size: 0x8, addend: 0x0, symName: __ZN4core4iter6traits8iterator8Iterator8for_each17h6fe5adf7379f4136E, symObjAddr: 0x5F4, symBinAddr: 0x36E40, symSize: 0x34 }
  - { offsetInCU: 0x2032, offset: 0xDCD74, size: 0x8, addend: 0x0, symName: __ZN4core4iter6traits8iterator8Iterator8for_each17h8a24bc775fe8bcf4E, symObjAddr: 0x628, symBinAddr: 0x36E74, symSize: 0x34 }
  - { offsetInCU: 0x209E, offset: 0xDCDE0, size: 0x8, addend: 0x0, symName: __ZN4core4iter6traits8iterator8Iterator8for_each17hec82da5ac2bf2d34E, symObjAddr: 0x65C, symBinAddr: 0x36EA8, symSize: 0x34 }
  - { offsetInCU: 0x2110, offset: 0xDCE52, size: 0x8, addend: 0x0, symName: '__ZN72_$LT$$RF$mut$u20$I$u20$as$u20$core..iter..traits..iterator..Iterator$GT$4next17hab101d87efc4883aE', symObjAddr: 0xC68, symBinAddr: 0x374B4, symSize: 0x28 }
  - { offsetInCU: 0x2147, offset: 0xDCE89, size: 0x8, addend: 0x0, symName: '__ZN72_$LT$$RF$mut$u20$I$u20$as$u20$core..iter..traits..iterator..Iterator$GT$8try_fold17h2e5155f8ebc833dbE', symObjAddr: 0xC90, symBinAddr: 0x374DC, symSize: 0x38 }
  - { offsetInCU: 0x21B7, offset: 0xDCEF9, size: 0x8, addend: 0x0, symName: '__ZN72_$LT$$RF$mut$u20$I$u20$as$u20$core..iter..traits..iterator..Iterator$GT$8try_fold17h308c4b4fbe6cc7b7E', symObjAddr: 0xCC8, symBinAddr: 0x37514, symSize: 0x38 }
  - { offsetInCU: 0x222D, offset: 0xDCF6F, size: 0x8, addend: 0x0, symName: '__ZN79_$LT$$RF$mut$u20$I$u20$as$u20$core..iter..traits..iterator..IteratorRefSpec$GT$13spec_try_fold17h5104db3a27869351E', symObjAddr: 0xD00, symBinAddr: 0x3754C, symSize: 0x3C }
  - { offsetInCU: 0x229D, offset: 0xDCFDF, size: 0x8, addend: 0x0, symName: '__ZN79_$LT$$RF$mut$u20$I$u20$as$u20$core..iter..traits..iterator..IteratorRefSpec$GT$13spec_try_fold17h966ef4d210a4f475E', symObjAddr: 0xD3C, symBinAddr: 0x37588, symSize: 0x3C }
  - { offsetInCU: 0x2319, offset: 0xDD05B, size: 0x8, addend: 0x0, symName: '__ZN63_$LT$I$u20$as$u20$core..iter..traits..collect..IntoIterator$GT$9into_iter17h0faa28e875c10bbbE', symObjAddr: 0xBC0, symBinAddr: 0x3740C, symSize: 0x30 }
  - { offsetInCU: 0x2351, offset: 0xDD093, size: 0x8, addend: 0x0, symName: '__ZN63_$LT$I$u20$as$u20$core..iter..traits..collect..IntoIterator$GT$9into_iter17h26b4ce7f2dba7054E', symObjAddr: 0xBF0, symBinAddr: 0x3743C, symSize: 0x14 }
  - { offsetInCU: 0x2388, offset: 0xDD0CA, size: 0x8, addend: 0x0, symName: '__ZN63_$LT$I$u20$as$u20$core..iter..traits..collect..IntoIterator$GT$9into_iter17h2704864fa18cae22E', symObjAddr: 0xC04, symBinAddr: 0x37450, symSize: 0x14 }
  - { offsetInCU: 0x23BF, offset: 0xDD101, size: 0x8, addend: 0x0, symName: '__ZN63_$LT$I$u20$as$u20$core..iter..traits..collect..IntoIterator$GT$9into_iter17h2e0bf24df5626853E', symObjAddr: 0xC18, symBinAddr: 0x37464, symSize: 0x14 }
  - { offsetInCU: 0x23F6, offset: 0xDD138, size: 0x8, addend: 0x0, symName: '__ZN63_$LT$I$u20$as$u20$core..iter..traits..collect..IntoIterator$GT$9into_iter17h97745891cd936441E', symObjAddr: 0xC2C, symBinAddr: 0x37478, symSize: 0x14 }
  - { offsetInCU: 0x242D, offset: 0xDD16F, size: 0x8, addend: 0x0, symName: '__ZN63_$LT$I$u20$as$u20$core..iter..traits..collect..IntoIterator$GT$9into_iter17ha24b1a7736126a96E', symObjAddr: 0xC40, symBinAddr: 0x3748C, symSize: 0x14 }
  - { offsetInCU: 0x2464, offset: 0xDD1A6, size: 0x8, addend: 0x0, symName: '__ZN63_$LT$I$u20$as$u20$core..iter..traits..collect..IntoIterator$GT$9into_iter17hb5e41e39a805cc14E', symObjAddr: 0xC54, symBinAddr: 0x374A0, symSize: 0x14 }
  - { offsetInCU: 0x24A7, offset: 0xDD1E9, size: 0x8, addend: 0x0, symName: '__ZN83_$LT$$RF$mut$u20$I$u20$as$u20$core..iter..traits..exact_size..ExactSizeIterator$GT$3len17h2d2d0bac9f0e1d90E', symObjAddr: 0xD78, symBinAddr: 0x375C4, symSize: 0x28 }
  - { offsetInCU: 0x3B0C, offset: 0xDE84E, size: 0x8, addend: 0x0, symName: '__ZN83_$LT$I$u20$as$u20$alloc..vec..in_place_collect..SpecInPlaceCollect$LT$T$C$I$GT$$GT$16collect_in_place17h21e327b2ab3b9a2cE', symObjAddr: 0xDA0, symBinAddr: 0x375EC, symSize: 0xB8 }
  - { offsetInCU: 0x1E, offset: 0xDF836, size: 0x8, addend: 0x0, symName: '__ZN100_$LT$ndarray..iterators..Baseiter$LT$A$C$D$GT$$u20$as$u20$core..iter..traits..iterator..Iterator$GT$4fold17h1497e267f3ccda57E', symObjAddr: 0x0, symBinAddr: 0x376C8, symSize: 0x524 }
  - { offsetInCU: 0xF4, offset: 0xDF90C, size: 0x8, addend: 0x0, symName: __ZN4core4iter6traits8iterator8Iterator8for_each17ha7aadc8516f863bfE, symObjAddr: 0x888, symBinAddr: 0x37F50, symSize: 0x28 }
  - { offsetInCU: 0x16B, offset: 0xDF983, size: 0x8, addend: 0x0, symName: '__ZN63_$LT$I$u20$as$u20$core..iter..traits..collect..IntoIterator$GT$9into_iter17hf27ccd30690e2d10E', symObjAddr: 0x8B0, symBinAddr: 0x37F78, symSize: 0x30 }
  - { offsetInCU: 0x435, offset: 0xDFC4D, size: 0x8, addend: 0x0, symName: '__ZN100_$LT$ndarray..iterators..Baseiter$LT$A$C$D$GT$$u20$as$u20$core..iter..traits..iterator..Iterator$GT$4fold17h1497e267f3ccda57E', symObjAddr: 0x0, symBinAddr: 0x376C8, symSize: 0x524 }
  - { offsetInCU: 0x763, offset: 0xDFF7B, size: 0x8, addend: 0x0, symName: '__ZN100_$LT$ndarray..iterators..Baseiter$LT$A$C$D$GT$$u20$as$u20$core..iter..traits..iterator..Iterator$GT$4next17h1fb21023d6406bf3E', symObjAddr: 0x524, symBinAddr: 0x37BEC, symSize: 0x244 }
  - { offsetInCU: 0x976, offset: 0xE018E, size: 0x8, addend: 0x0, symName: '__ZN104_$LT$ndarray..iterators..ElementsBase$LT$A$C$D$GT$$u20$as$u20$core..iter..traits..iterator..Iterator$GT$4next17h367f407599e102eaE', symObjAddr: 0x768, symBinAddr: 0x37E30, symSize: 0x28 }
  - { offsetInCU: 0x9B9, offset: 0xE01D1, size: 0x8, addend: 0x0, symName: '__ZN104_$LT$ndarray..iterators..ElementsBase$LT$A$C$D$GT$$u20$as$u20$core..iter..traits..iterator..Iterator$GT$4next28_$u7b$$u7b$closure$u7d$$u7d$17h0949de7768b82a8aE', symObjAddr: 0x790, symBinAddr: 0x37E58, symSize: 0x1C }
  - { offsetInCU: 0xA2C, offset: 0xE0244, size: 0x8, addend: 0x0, symName: '__ZN107_$LT$ndarray..iterators..ElementsBaseMut$LT$A$C$D$GT$$u20$as$u20$core..iter..traits..iterator..Iterator$GT$4fold17h34d9a7d364a74232E', symObjAddr: 0x7AC, symBinAddr: 0x37E74, symSize: 0x58 }
  - { offsetInCU: 0xA9E, offset: 0xE02B6, size: 0x8, addend: 0x0, symName: '__ZN107_$LT$ndarray..iterators..ElementsBaseMut$LT$A$C$D$GT$$u20$as$u20$core..iter..traits..iterator..Iterator$GT$4fold28_$u7b$$u7b$closure$u7d$$u7d$17h62c0a99b52f1a71dE', symObjAddr: 0x804, symBinAddr: 0x37ECC, symSize: 0x84 }
  - { offsetInCU: 0xB44, offset: 0xE035C, size: 0x8, addend: 0x0, symName: '__ZN96_$LT$ndarray..iterators..Iter$LT$A$C$D$GT$$u20$as$u20$core..iter..traits..iterator..Iterator$GT$4next17h0a207e1f68cadf05E', symObjAddr: 0x8E0, symBinAddr: 0x37FA8, symSize: 0x70 }
  - { offsetInCU: 0x1E, offset: 0xE06F9, size: 0x8, addend: 0x0, symName: __ZN5alloc3vec16in_place_collect13needs_realloc17hda9f352a8df105eeE, symObjAddr: 0x0, symBinAddr: 0x38018, symSize: 0x68 }
  - { offsetInCU: 0x1996, offset: 0xE2071, size: 0x8, addend: 0x0, symName: __ZN5alloc3vec16in_place_collect13needs_realloc17hda9f352a8df105eeE, symObjAddr: 0x0, symBinAddr: 0x38018, symSize: 0x68 }
  - { offsetInCU: 0x19E2, offset: 0xE20BD, size: 0x8, addend: 0x0, symName: __ZN5alloc3vec16in_place_collect18from_iter_in_place17h79f02dc07f7a6aa8E, symObjAddr: 0x68, symBinAddr: 0x38080, symSize: 0x398 }
  - { offsetInCU: 0x1F6B, offset: 0xE2646, size: 0x8, addend: 0x0, symName: '__ZN5alloc3vec16in_place_collect24write_in_place_with_drop28_$u7b$$u7b$closure$u7d$$u7d$17h3c82098f0d99da27E', symObjAddr: 0x400, symBinAddr: 0x38418, symSize: 0x44 }
  - { offsetInCU: 0x1E, offset: 0xE33AC, size: 0x8, addend: 0x0, symName: '__ZN66_$LT$highuvlith_core..mask..Mask$u20$as$u20$core..clone..Clone$GT$5clone17h9fedb93decc93e72E', symObjAddr: 0x0, symBinAddr: 0x3845C, symSize: 0x74 }
  - { offsetInCU: 0x3A, offset: 0xE33C8, size: 0x8, addend: 0x0, symName: '__ZN66_$LT$highuvlith_core..mask..Mask$u20$as$u20$core..clone..Clone$GT$5clone17h9fedb93decc93e72E', symObjAddr: 0x0, symBinAddr: 0x3845C, symSize: 0x74 }
  - { offsetInCU: 0x6C, offset: 0xE33FA, size: 0x8, addend: 0x0, symName: '__ZN70_$LT$highuvlith_core..mask..MaskType$u20$as$u20$core..clone..Clone$GT$5clone17h747e386e40676357E', symObjAddr: 0x74, symBinAddr: 0x384D0, symSize: 0x90 }
  - { offsetInCU: 0x1E, offset: 0xE37E5, size: 0x8, addend: 0x0, symName: '__ZN110_$LT$core..iter..adapters..enumerate..Enumerate$LT$I$GT$$u20$as$u20$core..iter..traits..iterator..Iterator$GT$4next17hc971127d7f1f0247E', symObjAddr: 0x0, symBinAddr: 0x38560, symSize: 0xE0 }
  - { offsetInCU: 0x15A1, offset: 0xE4D68, size: 0x8, addend: 0x0, symName: '__ZN110_$LT$core..iter..adapters..enumerate..Enumerate$LT$I$GT$$u20$as$u20$core..iter..traits..iterator..Iterator$GT$4next17hc971127d7f1f0247E', symObjAddr: 0x0, symBinAddr: 0x38560, symSize: 0xE0 }
  - { offsetInCU: 0x1687, offset: 0xE4E4E, size: 0x8, addend: 0x0, symName: '__ZN110_$LT$core..iter..adapters..enumerate..Enumerate$LT$I$GT$$u20$as$u20$core..iter..traits..iterator..Iterator$GT$4next17heda2b4e0cb4e483eE', symObjAddr: 0xE0, symBinAddr: 0x38640, symSize: 0xE0 }
  - { offsetInCU: 0x1803, offset: 0xE4FCA, size: 0x8, addend: 0x0, symName: '__ZN63_$LT$I$u20$as$u20$core..iter..traits..collect..IntoIterator$GT$9into_iter17h93395c1623e1b3c8E', symObjAddr: 0x1C0, symBinAddr: 0x38720, symSize: 0x30 }
  - { offsetInCU: 0x183B, offset: 0xE5002, size: 0x8, addend: 0x0, symName: '__ZN63_$LT$I$u20$as$u20$core..iter..traits..collect..IntoIterator$GT$9into_iter17he908ee4b5e87deb4E', symObjAddr: 0x1F0, symBinAddr: 0x38750, symSize: 0x18 }
  - { offsetInCU: 0x1E, offset: 0xE57C6, size: 0x8, addend: 0x0, symName: '__ZN4pyo35impl_4wrap82EmptyTupleConverter$LT$core..result..Result$LT$$LP$$RP$$C$pyo3..err..PyErr$GT$$GT$12map_into_ptr17h212ffa63b45806f4E', symObjAddr: 0x0, symBinAddr: 0x38768, symSize: 0x44 }
  - { offsetInCU: 0x1DE4, offset: 0xE758C, size: 0x8, addend: 0x0, symName: '__ZN4pyo35impl_4wrap82EmptyTupleConverter$LT$core..result..Result$LT$$LP$$RP$$C$pyo3..err..PyErr$GT$$GT$12map_into_ptr17h212ffa63b45806f4E', symObjAddr: 0x0, symBinAddr: 0x38768, symSize: 0x44 }
  - { offsetInCU: 0x1E, offset: 0xE75F4, size: 0x8, addend: 0x0, symName: __ZN4pyo37pyclass18create_type_object18create_type_object17h0f039fe8a9cf84a5E, symObjAddr: 0x0, symBinAddr: 0x387AC, symSize: 0x17C }
  - { offsetInCU: 0x20D2, offset: 0xE96A8, size: 0x8, addend: 0x0, symName: __ZN4pyo37pyclass18create_type_object18create_type_object17h0f039fe8a9cf84a5E, symObjAddr: 0x0, symBinAddr: 0x387AC, symSize: 0x17C }
  - { offsetInCU: 0x2132, offset: 0xE9708, size: 0x8, addend: 0x0, symName: __ZN4pyo37pyclass18create_type_object18create_type_object17h2237d23d86b7b095E, symObjAddr: 0x17C, symBinAddr: 0x38928, symSize: 0x17C }
  - { offsetInCU: 0x2192, offset: 0xE9768, size: 0x8, addend: 0x0, symName: __ZN4pyo37pyclass18create_type_object18create_type_object17h3201175391be4caaE, symObjAddr: 0x2F8, symBinAddr: 0x38AA4, symSize: 0x17C }
  - { offsetInCU: 0x21F2, offset: 0xE97C8, size: 0x8, addend: 0x0, symName: __ZN4pyo37pyclass18create_type_object18create_type_object17h41580004e9992929E, symObjAddr: 0x474, symBinAddr: 0x38C20, symSize: 0x17C }
  - { offsetInCU: 0x2252, offset: 0xE9828, size: 0x8, addend: 0x0, symName: __ZN4pyo37pyclass18create_type_object18create_type_object17h51c821b0a9136e8bE, symObjAddr: 0x5F0, symBinAddr: 0x38D9C, symSize: 0x17C }
  - { offsetInCU: 0x22B2, offset: 0xE9888, size: 0x8, addend: 0x0, symName: __ZN4pyo37pyclass18create_type_object18create_type_object17h55a132c6a1f7383aE, symObjAddr: 0x76C, symBinAddr: 0x38F18, symSize: 0x17C }
  - { offsetInCU: 0x2312, offset: 0xE98E8, size: 0x8, addend: 0x0, symName: __ZN4pyo37pyclass18create_type_object18create_type_object17h708b9b89ee2a3fe6E, symObjAddr: 0x8E8, symBinAddr: 0x39094, symSize: 0x17C }
  - { offsetInCU: 0x2372, offset: 0xE9948, size: 0x8, addend: 0x0, symName: __ZN4pyo37pyclass18create_type_object18create_type_object17h86782e903bde473aE, symObjAddr: 0xA64, symBinAddr: 0x39210, symSize: 0x17C }
  - { offsetInCU: 0x23D2, offset: 0xE99A8, size: 0x8, addend: 0x0, symName: __ZN4pyo37pyclass18create_type_object18create_type_object17h93bf9fd7d53d8053E, symObjAddr: 0xBE0, symBinAddr: 0x3938C, symSize: 0x17C }
  - { offsetInCU: 0x2432, offset: 0xE9A08, size: 0x8, addend: 0x0, symName: __ZN4pyo37pyclass18create_type_object18create_type_object17h9e6fc85738c63297E, symObjAddr: 0xD5C, symBinAddr: 0x39508, symSize: 0x17C }
  - { offsetInCU: 0x2492, offset: 0xE9A68, size: 0x8, addend: 0x0, symName: __ZN4pyo37pyclass18create_type_object18create_type_object17hb3c8f4cb2cbd09c8E, symObjAddr: 0xED8, symBinAddr: 0x39684, symSize: 0x17C }
  - { offsetInCU: 0x24F2, offset: 0xE9AC8, size: 0x8, addend: 0x0, symName: __ZN4pyo37pyclass18create_type_object18create_type_object17hf8e302ef1901cbe2E, symObjAddr: 0x1054, symBinAddr: 0x39800, symSize: 0x17C }
  - { offsetInCU: 0x1E, offset: 0xEB80D, size: 0x8, addend: 0x0, symName: __ZN4core3ptr5write17h08143de4b554910dE, symObjAddr: 0x0, symBinAddr: 0x3997C, symSize: 0x2C }
  - { offsetInCU: 0x8D2, offset: 0xEC0C1, size: 0x8, addend: 0x0, symName: __ZN4core3ptr5write17h08143de4b554910dE, symObjAddr: 0x0, symBinAddr: 0x3997C, symSize: 0x2C }
  - { offsetInCU: 0x915, offset: 0xEC104, size: 0x8, addend: 0x0, symName: __ZN4core3ptr5write17h0a402cdb7dc74145E, symObjAddr: 0x2C, symBinAddr: 0x399A8, symSize: 0x2C }
  - { offsetInCU: 0x958, offset: 0xEC147, size: 0x8, addend: 0x0, symName: __ZN4core3ptr5write17h233931b6ec446c30E, symObjAddr: 0x58, symBinAddr: 0x399D4, symSize: 0x2C }
  - { offsetInCU: 0x99B, offset: 0xEC18A, size: 0x8, addend: 0x0, symName: __ZN4core3ptr5write17h3189b86a2287833aE, symObjAddr: 0x84, symBinAddr: 0x39A00, symSize: 0x24 }
  - { offsetInCU: 0x9DD, offset: 0xEC1CC, size: 0x8, addend: 0x0, symName: __ZN4core3ptr5write17h473c9ccf69cdd428E, symObjAddr: 0xA8, symBinAddr: 0x39A24, symSize: 0x2C }
  - { offsetInCU: 0xA20, offset: 0xEC20F, size: 0x8, addend: 0x0, symName: __ZN4core3ptr5write17h587fb70418b90fcaE, symObjAddr: 0xD4, symBinAddr: 0x39A50, symSize: 0x2C }
  - { offsetInCU: 0xA63, offset: 0xEC252, size: 0x8, addend: 0x0, symName: __ZN4core3ptr5write17h9f406db25444fbccE, symObjAddr: 0x100, symBinAddr: 0x39A7C, symSize: 0x2C }
  - { offsetInCU: 0xAA6, offset: 0xEC295, size: 0x8, addend: 0x0, symName: __ZN4core3ptr5write17ha62d05e8f7d37917E, symObjAddr: 0x12C, symBinAddr: 0x39AA8, symSize: 0x24 }
  - { offsetInCU: 0xAE8, offset: 0xEC2D7, size: 0x8, addend: 0x0, symName: __ZN4core3ptr5write17hab96aa4d3b96ee6dE, symObjAddr: 0x150, symBinAddr: 0x39ACC, symSize: 0x2C }
  - { offsetInCU: 0xB2B, offset: 0xEC31A, size: 0x8, addend: 0x0, symName: __ZN4core3ptr5write17hb51cc305f9c2f13fE, symObjAddr: 0x17C, symBinAddr: 0x39AF8, symSize: 0x2C }
  - { offsetInCU: 0xB6E, offset: 0xEC35D, size: 0x8, addend: 0x0, symName: __ZN4core3ptr5write17hc6f05e9d3358bd00E, symObjAddr: 0x1A8, symBinAddr: 0x39B24, symSize: 0x2C }
  - { offsetInCU: 0xBB1, offset: 0xEC3A0, size: 0x8, addend: 0x0, symName: __ZN4core3ptr5write17hc984c7e36082716cE, symObjAddr: 0x1D4, symBinAddr: 0x39B50, symSize: 0x2C }
  - { offsetInCU: 0x1E, offset: 0xEE608, size: 0x8, addend: 0x0, symName: '__ZN4pyo35impl_7pyclass16lazy_type_object23LazyTypeObject$LT$T$GT$11get_or_init17h01cd316b2c6ecc34E', symObjAddr: 0x0, symBinAddr: 0x39B7C, symSize: 0x40 }
  - { offsetInCU: 0x29E7, offset: 0xF0FD1, size: 0x8, addend: 0x0, symName: '__ZN4pyo35impl_7pyclass16lazy_type_object23LazyTypeObject$LT$T$GT$11get_or_init28_$u7b$$u7b$closure$u7d$$u7d$17h2691ee4d7c91b315E', symObjAddr: 0x300, symBinAddr: 0x39E7C, symSize: 0xA8 }
  - { offsetInCU: 0x2A70, offset: 0xF105A, size: 0x8, addend: 0x0, symName: '__ZN4pyo35impl_7pyclass16lazy_type_object23LazyTypeObject$LT$T$GT$11get_or_init28_$u7b$$u7b$closure$u7d$$u7d$17h28d26191460b2a1bE', symObjAddr: 0x3A8, symBinAddr: 0x39F24, symSize: 0xA8 }
  - { offsetInCU: 0x2AF9, offset: 0xF10E3, size: 0x8, addend: 0x0, symName: '__ZN4pyo35impl_7pyclass16lazy_type_object23LazyTypeObject$LT$T$GT$11get_or_init28_$u7b$$u7b$closure$u7d$$u7d$17h3b057e94343dc11cE', symObjAddr: 0x450, symBinAddr: 0x39FCC, symSize: 0xA8 }
  - { offsetInCU: 0x2B82, offset: 0xF116C, size: 0x8, addend: 0x0, symName: '__ZN4pyo35impl_7pyclass16lazy_type_object23LazyTypeObject$LT$T$GT$11get_or_init28_$u7b$$u7b$closure$u7d$$u7d$17h48f698987647d479E', symObjAddr: 0x4F8, symBinAddr: 0x3A074, symSize: 0xA8 }
  - { offsetInCU: 0x2C0B, offset: 0xF11F5, size: 0x8, addend: 0x0, symName: '__ZN4pyo35impl_7pyclass16lazy_type_object23LazyTypeObject$LT$T$GT$11get_or_init28_$u7b$$u7b$closure$u7d$$u7d$17h544a24597386e755E', symObjAddr: 0x5A0, symBinAddr: 0x3A11C, symSize: 0xA8 }
  - { offsetInCU: 0x2C94, offset: 0xF127E, size: 0x8, addend: 0x0, symName: '__ZN4pyo35impl_7pyclass16lazy_type_object23LazyTypeObject$LT$T$GT$11get_or_init28_$u7b$$u7b$closure$u7d$$u7d$17h5c5561503ddc80b0E', symObjAddr: 0x648, symBinAddr: 0x3A1C4, symSize: 0xA8 }
  - { offsetInCU: 0x2D1D, offset: 0xF1307, size: 0x8, addend: 0x0, symName: '__ZN4pyo35impl_7pyclass16lazy_type_object23LazyTypeObject$LT$T$GT$11get_or_init28_$u7b$$u7b$closure$u7d$$u7d$17h9c0a910cca1a74e7E', symObjAddr: 0x6F0, symBinAddr: 0x3A26C, symSize: 0xA8 }
  - { offsetInCU: 0x2DA6, offset: 0xF1390, size: 0x8, addend: 0x0, symName: '__ZN4pyo35impl_7pyclass16lazy_type_object23LazyTypeObject$LT$T$GT$11get_or_init28_$u7b$$u7b$closure$u7d$$u7d$17ha8232ff9944a058bE', symObjAddr: 0x798, symBinAddr: 0x3A314, symSize: 0xA8 }
  - { offsetInCU: 0x2E2F, offset: 0xF1419, size: 0x8, addend: 0x0, symName: '__ZN4pyo35impl_7pyclass16lazy_type_object23LazyTypeObject$LT$T$GT$11get_or_init28_$u7b$$u7b$closure$u7d$$u7d$17hb5210bf5a68b5068E', symObjAddr: 0x840, symBinAddr: 0x3A3BC, symSize: 0xA8 }
  - { offsetInCU: 0x2EB8, offset: 0xF14A2, size: 0x8, addend: 0x0, symName: '__ZN4pyo35impl_7pyclass16lazy_type_object23LazyTypeObject$LT$T$GT$11get_or_init28_$u7b$$u7b$closure$u7d$$u7d$17hc8f876f4a640433eE', symObjAddr: 0x8E8, symBinAddr: 0x3A464, symSize: 0xA8 }
  - { offsetInCU: 0x2F41, offset: 0xF152B, size: 0x8, addend: 0x0, symName: '__ZN4pyo35impl_7pyclass16lazy_type_object23LazyTypeObject$LT$T$GT$11get_or_init28_$u7b$$u7b$closure$u7d$$u7d$17hdba1a2e711e3f913E', symObjAddr: 0x990, symBinAddr: 0x3A50C, symSize: 0xA8 }
  - { offsetInCU: 0x2FCA, offset: 0xF15B4, size: 0x8, addend: 0x0, symName: '__ZN4pyo35impl_7pyclass16lazy_type_object23LazyTypeObject$LT$T$GT$11get_or_init28_$u7b$$u7b$closure$u7d$$u7d$17hf0c577b56d61c3b4E', symObjAddr: 0xA38, symBinAddr: 0x3A5B4, symSize: 0xA8 }
  - { offsetInCU: 0x45F4, offset: 0xF2BDE, size: 0x8, addend: 0x0, symName: '__ZN4pyo35impl_7pyclass16lazy_type_object23LazyTypeObject$LT$T$GT$11get_or_init17h01cd316b2c6ecc34E', symObjAddr: 0x0, symBinAddr: 0x39B7C, symSize: 0x40 }
  - { offsetInCU: 0x4645, offset: 0xF2C2F, size: 0x8, addend: 0x0, symName: '__ZN4pyo35impl_7pyclass16lazy_type_object23LazyTypeObject$LT$T$GT$11get_or_init17h24706c31218c4b39E', symObjAddr: 0x40, symBinAddr: 0x39BBC, symSize: 0x40 }
  - { offsetInCU: 0x4FDD, offset: 0xF35C7, size: 0x8, addend: 0x0, symName: '__ZN4pyo35impl_7pyclass16lazy_type_object23LazyTypeObject$LT$T$GT$11get_or_init17h3419187cbe50e91bE', symObjAddr: 0x80, symBinAddr: 0x39BFC, symSize: 0x40 }
  - { offsetInCU: 0x502E, offset: 0xF3618, size: 0x8, addend: 0x0, symName: '__ZN4pyo35impl_7pyclass16lazy_type_object23LazyTypeObject$LT$T$GT$11get_or_init17h4fa2f10d131bebd1E', symObjAddr: 0xC0, symBinAddr: 0x39C3C, symSize: 0x40 }
  - { offsetInCU: 0x507F, offset: 0xF3669, size: 0x8, addend: 0x0, symName: '__ZN4pyo35impl_7pyclass16lazy_type_object23LazyTypeObject$LT$T$GT$11get_or_init17h812ca12e65aa3cc9E', symObjAddr: 0x100, symBinAddr: 0x39C7C, symSize: 0x40 }
  - { offsetInCU: 0x50D0, offset: 0xF36BA, size: 0x8, addend: 0x0, symName: '__ZN4pyo35impl_7pyclass16lazy_type_object23LazyTypeObject$LT$T$GT$11get_or_init17h9e1c1ea1c62cbd68E', symObjAddr: 0x140, symBinAddr: 0x39CBC, symSize: 0x40 }
  - { offsetInCU: 0x513F, offset: 0xF3729, size: 0x8, addend: 0x0, symName: '__ZN4pyo35impl_7pyclass16lazy_type_object23LazyTypeObject$LT$T$GT$11get_or_init17ha968996dd333bc1aE', symObjAddr: 0x180, symBinAddr: 0x39CFC, symSize: 0x40 }
  - { offsetInCU: 0x5190, offset: 0xF377A, size: 0x8, addend: 0x0, symName: '__ZN4pyo35impl_7pyclass16lazy_type_object23LazyTypeObject$LT$T$GT$11get_or_init17had108a41f50bb09eE', symObjAddr: 0x1C0, symBinAddr: 0x39D3C, symSize: 0x40 }
  - { offsetInCU: 0x51E1, offset: 0xF37CB, size: 0x8, addend: 0x0, symName: '__ZN4pyo35impl_7pyclass16lazy_type_object23LazyTypeObject$LT$T$GT$11get_or_init17hc116068f7bb9c723E', symObjAddr: 0x200, symBinAddr: 0x39D7C, symSize: 0x40 }
  - { offsetInCU: 0x5232, offset: 0xF381C, size: 0x8, addend: 0x0, symName: '__ZN4pyo35impl_7pyclass16lazy_type_object23LazyTypeObject$LT$T$GT$11get_or_init17hd3ac7d6cb23a9cfeE', symObjAddr: 0x240, symBinAddr: 0x39DBC, symSize: 0x40 }
  - { offsetInCU: 0x5283, offset: 0xF386D, size: 0x8, addend: 0x0, symName: '__ZN4pyo35impl_7pyclass16lazy_type_object23LazyTypeObject$LT$T$GT$11get_or_init17hfb8e1216635e3cb7E', symObjAddr: 0x280, symBinAddr: 0x39DFC, symSize: 0x40 }
  - { offsetInCU: 0x52D4, offset: 0xF38BE, size: 0x8, addend: 0x0, symName: '__ZN4pyo35impl_7pyclass16lazy_type_object23LazyTypeObject$LT$T$GT$11get_or_init17hffa666f8401d32d9E', symObjAddr: 0x2C0, symBinAddr: 0x39E3C, symSize: 0x40 }
  - { offsetInCU: 0x5318, offset: 0xF3902, size: 0x8, addend: 0x0, symName: '__ZN4pyo35impl_7pyclass16lazy_type_object23LazyTypeObject$LT$T$GT$15get_or_try_init17h018eeb5ca3bce9c9E', symObjAddr: 0xAE0, symBinAddr: 0x3A65C, symSize: 0x58 }
  - { offsetInCU: 0x535C, offset: 0xF3946, size: 0x8, addend: 0x0, symName: '__ZN4pyo35impl_7pyclass16lazy_type_object23LazyTypeObject$LT$T$GT$15get_or_try_init17h0799f608e71258f1E', symObjAddr: 0xB38, symBinAddr: 0x3A6B4, symSize: 0x58 }
  - { offsetInCU: 0x53A0, offset: 0xF398A, size: 0x8, addend: 0x0, symName: '__ZN4pyo35impl_7pyclass16lazy_type_object23LazyTypeObject$LT$T$GT$15get_or_try_init17h2bfdb2636977d7ffE', symObjAddr: 0xB90, symBinAddr: 0x3A70C, symSize: 0x58 }
  - { offsetInCU: 0x53E4, offset: 0xF39CE, size: 0x8, addend: 0x0, symName: '__ZN4pyo35impl_7pyclass16lazy_type_object23LazyTypeObject$LT$T$GT$15get_or_try_init17h31122ebe2dc63d00E', symObjAddr: 0xBE8, symBinAddr: 0x3A764, symSize: 0x58 }
  - { offsetInCU: 0x5428, offset: 0xF3A12, size: 0x8, addend: 0x0, symName: '__ZN4pyo35impl_7pyclass16lazy_type_object23LazyTypeObject$LT$T$GT$15get_or_try_init17h3630b87f368c7018E', symObjAddr: 0xC40, symBinAddr: 0x3A7BC, symSize: 0x58 }
  - { offsetInCU: 0x546C, offset: 0xF3A56, size: 0x8, addend: 0x0, symName: '__ZN4pyo35impl_7pyclass16lazy_type_object23LazyTypeObject$LT$T$GT$15get_or_try_init17h4500ed3f52da08feE', symObjAddr: 0xC98, symBinAddr: 0x3A814, symSize: 0x58 }
  - { offsetInCU: 0x54B0, offset: 0xF3A9A, size: 0x8, addend: 0x0, symName: '__ZN4pyo35impl_7pyclass16lazy_type_object23LazyTypeObject$LT$T$GT$15get_or_try_init17h82904cdf97fda726E', symObjAddr: 0xCF0, symBinAddr: 0x3A86C, symSize: 0x58 }
  - { offsetInCU: 0x54F4, offset: 0xF3ADE, size: 0x8, addend: 0x0, symName: '__ZN4pyo35impl_7pyclass16lazy_type_object23LazyTypeObject$LT$T$GT$15get_or_try_init17h8d34473362ba31fbE', symObjAddr: 0xD48, symBinAddr: 0x3A8C4, symSize: 0x58 }
  - { offsetInCU: 0x5538, offset: 0xF3B22, size: 0x8, addend: 0x0, symName: '__ZN4pyo35impl_7pyclass16lazy_type_object23LazyTypeObject$LT$T$GT$15get_or_try_init17haba80e57b0cd5856E', symObjAddr: 0xDA0, symBinAddr: 0x3A91C, symSize: 0x58 }
  - { offsetInCU: 0x557C, offset: 0xF3B66, size: 0x8, addend: 0x0, symName: '__ZN4pyo35impl_7pyclass16lazy_type_object23LazyTypeObject$LT$T$GT$15get_or_try_init17hafb0d3074ae42d55E', symObjAddr: 0xDF8, symBinAddr: 0x3A974, symSize: 0x58 }
  - { offsetInCU: 0x55C0, offset: 0xF3BAA, size: 0x8, addend: 0x0, symName: '__ZN4pyo35impl_7pyclass16lazy_type_object23LazyTypeObject$LT$T$GT$15get_or_try_init17hb6933a4c2c9f5390E', symObjAddr: 0xE50, symBinAddr: 0x3A9CC, symSize: 0x58 }
  - { offsetInCU: 0x5604, offset: 0xF3BEE, size: 0x8, addend: 0x0, symName: '__ZN4pyo35impl_7pyclass16lazy_type_object23LazyTypeObject$LT$T$GT$15get_or_try_init17hda813cdc68b36627E', symObjAddr: 0xEA8, symBinAddr: 0x3AA24, symSize: 0x58 }
  - { offsetInCU: 0x1E, offset: 0xF3D3D, size: 0x8, addend: 0x0, symName: '__ZN73_$LT$highuvlith_core..source..VuvSource$u20$as$u20$core..clone..Clone$GT$5clone17h342c9f70e2b2afa6E', symObjAddr: 0x0, symBinAddr: 0x3AA7C, symSize: 0xE8 }
  - { offsetInCU: 0x5C, offset: 0xF3D7B, size: 0x8, addend: 0x0, symName: '__ZN73_$LT$highuvlith_core..source..VuvSource$u20$as$u20$core..clone..Clone$GT$5clone17h342c9f70e2b2afa6E', symObjAddr: 0x0, symBinAddr: 0x3AA7C, symSize: 0xE8 }
  - { offsetInCU: 0x8E, offset: 0xF3DAD, size: 0x8, addend: 0x0, symName: '__ZN77_$LT$highuvlith_core..source..SpectralShape$u20$as$u20$core..clone..Clone$GT$5clone17he8d5e31976e2c925E', symObjAddr: 0xE8, symBinAddr: 0x3AB64, symSize: 0x104 }
  - { offsetInCU: 0xE4, offset: 0xF3E03, size: 0x8, addend: 0x0, symName: '__ZN79_$LT$highuvlith_core..source..IlluminationShape$u20$as$u20$core..fmt..Debug$GT$3fmt17h7716eb84f9d45badE', symObjAddr: 0x1EC, symBinAddr: 0x3AC68, symSize: 0x264 }
  - { offsetInCU: 0x1E6, offset: 0xF3F05, size: 0x8, addend: 0x0, symName: '__ZN81_$LT$highuvlith_core..source..IlluminationShape$u20$as$u20$core..clone..Clone$GT$5clone17h7b074485611d8795E', symObjAddr: 0x450, symBinAddr: 0x3AECC, symSize: 0x12C }
  - { offsetInCU: 0x1E, offset: 0xF44D2, size: 0x8, addend: 0x0, symName: '__ZN5alloc3vec16Vec$LT$T$C$A$GT$13from_parts_in18precondition_check17h64d387d50eb8620aE', symObjAddr: 0x0, symBinAddr: 0x3AFF8, symSize: 0x60 }
  - { offsetInCU: 0x3F, offset: 0xF44F3, size: 0x8, addend: 0x0, symName: '__ZN5alloc3vec16Vec$LT$T$C$A$GT$13from_parts_in18precondition_check17h64d387d50eb8620aE', symObjAddr: 0x0, symBinAddr: 0x3AFF8, symSize: 0x60 }
  - { offsetInCU: 0x98, offset: 0xF454C, size: 0x8, addend: 0x0, symName: '__ZN5alloc3vec16Vec$LT$T$C$A$GT$7set_len18precondition_check17h72451368f31c9944E', symObjAddr: 0x60, symBinAddr: 0x3B058, symSize: 0x60 }
  - { offsetInCU: 0x1E, offset: 0xF45F6, size: 0x8, addend: 0x0, symName: __ZN4core5slice3raw14from_raw_parts17ha91d91ed7e260ab1E, symObjAddr: 0x0, symBinAddr: 0x3B0B8, symSize: 0x58 }
  - { offsetInCU: 0x849, offset: 0xF4E21, size: 0x8, addend: 0x0, symName: __ZN4core5slice3raw14from_raw_parts17ha91d91ed7e260ab1E, symObjAddr: 0x0, symBinAddr: 0x3B0B8, symSize: 0x58 }
  - { offsetInCU: 0x88C, offset: 0xF4E64, size: 0x8, addend: 0x0, symName: __ZN4core5slice3raw14from_raw_parts17hcca07b3e3eb05811E, symObjAddr: 0x58, symBinAddr: 0x3B110, symSize: 0x58 }
  - { offsetInCU: 0x1E, offset: 0xF5EB2, size: 0x8, addend: 0x0, symName: '__ZN103_$LT$pyo3..instance..Bound$LT$pyo3..types..any..PyAny$GT$$u20$as$u20$pyo3..types..any..PyAnyMethods$GT$18downcast_unchecked17h0152d599f9df0b76E', symObjAddr: 0x0, symBinAddr: 0x3B168, symSize: 0x74 }
  - { offsetInCU: 0x221C, offset: 0xF80B0, size: 0x8, addend: 0x0, symName: '__ZN4core5slice29_$LT$impl$u20$$u5b$T$u5d$$GT$4iter17h49adb740f48fe8c0E', symObjAddr: 0x1E38, symBinAddr: 0x3CFA0, symSize: 0x28 }
  - { offsetInCU: 0x4CA9, offset: 0xFAB3D, size: 0x8, addend: 0x0, symName: '__ZN103_$LT$pyo3..instance..Bound$LT$pyo3..types..any..PyAny$GT$$u20$as$u20$pyo3..types..any..PyAnyMethods$GT$18downcast_unchecked17h0152d599f9df0b76E', symObjAddr: 0x0, symBinAddr: 0x3B168, symSize: 0x74 }
  - { offsetInCU: 0x4CE0, offset: 0xFAB74, size: 0x8, addend: 0x0, symName: '__ZN103_$LT$pyo3..instance..Bound$LT$pyo3..types..any..PyAny$GT$$u20$as$u20$pyo3..types..any..PyAnyMethods$GT$18downcast_unchecked17h086e74854934972eE', symObjAddr: 0x74, symBinAddr: 0x3B1DC, symSize: 0x74 }
  - { offsetInCU: 0x4D17, offset: 0xFABAB, size: 0x8, addend: 0x0, symName: '__ZN103_$LT$pyo3..instance..Bound$LT$pyo3..types..any..PyAny$GT$$u20$as$u20$pyo3..types..any..PyAnyMethods$GT$18downcast_unchecked17h0d6787cbfa09d29cE', symObjAddr: 0xE8, symBinAddr: 0x3B250, symSize: 0x74 }
  - { offsetInCU: 0x4D4E, offset: 0xFABE2, size: 0x8, addend: 0x0, symName: '__ZN103_$LT$pyo3..instance..Bound$LT$pyo3..types..any..PyAny$GT$$u20$as$u20$pyo3..types..any..PyAnyMethods$GT$18downcast_unchecked17h11e21747584b0a6dE', symObjAddr: 0x15C, symBinAddr: 0x3B2C4, symSize: 0x74 }
  - { offsetInCU: 0x4D85, offset: 0xFAC19, size: 0x8, addend: 0x0, symName: '__ZN103_$LT$pyo3..instance..Bound$LT$pyo3..types..any..PyAny$GT$$u20$as$u20$pyo3..types..any..PyAnyMethods$GT$18downcast_unchecked17h1add6e1be28db3a1E', symObjAddr: 0x1D0, symBinAddr: 0x3B338, symSize: 0x74 }
  - { offsetInCU: 0x4DBC, offset: 0xFAC50, size: 0x8, addend: 0x0, symName: '__ZN103_$LT$pyo3..instance..Bound$LT$pyo3..types..any..PyAny$GT$$u20$as$u20$pyo3..types..any..PyAnyMethods$GT$18downcast_unchecked17h3be31956935c89e3E', symObjAddr: 0x244, symBinAddr: 0x3B3AC, symSize: 0x74 }
  - { offsetInCU: 0x4DF3, offset: 0xFAC87, size: 0x8, addend: 0x0, symName: '__ZN103_$LT$pyo3..instance..Bound$LT$pyo3..types..any..PyAny$GT$$u20$as$u20$pyo3..types..any..PyAnyMethods$GT$18downcast_unchecked17h572cd4632feaa670E', symObjAddr: 0x2B8, symBinAddr: 0x3B420, symSize: 0x74 }
  - { offsetInCU: 0x4E2A, offset: 0xFACBE, size: 0x8, addend: 0x0, symName: '__ZN103_$LT$pyo3..instance..Bound$LT$pyo3..types..any..PyAny$GT$$u20$as$u20$pyo3..types..any..PyAnyMethods$GT$18downcast_unchecked17h58121bfc115e4d46E', symObjAddr: 0x32C, symBinAddr: 0x3B494, symSize: 0x74 }
  - { offsetInCU: 0x4E61, offset: 0xFACF5, size: 0x8, addend: 0x0, symName: '__ZN103_$LT$pyo3..instance..Bound$LT$pyo3..types..any..PyAny$GT$$u20$as$u20$pyo3..types..any..PyAnyMethods$GT$18downcast_unchecked17h6e0546f7f6ca7a42E', symObjAddr: 0x3A0, symBinAddr: 0x3B508, symSize: 0x74 }
  - { offsetInCU: 0x4E98, offset: 0xFAD2C, size: 0x8, addend: 0x0, symName: '__ZN103_$LT$pyo3..instance..Bound$LT$pyo3..types..any..PyAny$GT$$u20$as$u20$pyo3..types..any..PyAnyMethods$GT$18downcast_unchecked17h91afba9d695f10baE', symObjAddr: 0x414, symBinAddr: 0x3B57C, symSize: 0x74 }
  - { offsetInCU: 0x4ECF, offset: 0xFAD63, size: 0x8, addend: 0x0, symName: '__ZN103_$LT$pyo3..instance..Bound$LT$pyo3..types..any..PyAny$GT$$u20$as$u20$pyo3..types..any..PyAnyMethods$GT$18downcast_unchecked17hbcc332faedc6c371E', symObjAddr: 0x488, symBinAddr: 0x3B5F0, symSize: 0x74 }
  - { offsetInCU: 0x4F06, offset: 0xFAD9A, size: 0x8, addend: 0x0, symName: '__ZN103_$LT$pyo3..instance..Bound$LT$pyo3..types..any..PyAny$GT$$u20$as$u20$pyo3..types..any..PyAnyMethods$GT$18downcast_unchecked17hcd08dc43ea104c8dE', symObjAddr: 0x4FC, symBinAddr: 0x3B664, symSize: 0x74 }
  - { offsetInCU: 0x4F3D, offset: 0xFADD1, size: 0x8, addend: 0x0, symName: '__ZN103_$LT$pyo3..instance..Bound$LT$pyo3..types..any..PyAny$GT$$u20$as$u20$pyo3..types..any..PyAnyMethods$GT$18downcast_unchecked17hfcea32661c9db553E', symObjAddr: 0x570, symBinAddr: 0x3B6D8, symSize: 0x74 }
  - { offsetInCU: 0x4F74, offset: 0xFAE08, size: 0x8, addend: 0x0, symName: '__ZN103_$LT$pyo3..instance..Bound$LT$pyo3..types..any..PyAny$GT$$u20$as$u20$pyo3..types..any..PyAnyMethods$GT$23downcast_into_unchecked17h0ade055b2969b093E', symObjAddr: 0x5E4, symBinAddr: 0x3B74C, symSize: 0x14 }
  - { offsetInCU: 0x4FAB, offset: 0xFAE3F, size: 0x8, addend: 0x0, symName: '__ZN103_$LT$pyo3..instance..Bound$LT$pyo3..types..any..PyAny$GT$$u20$as$u20$pyo3..types..any..PyAnyMethods$GT$23downcast_into_unchecked17h19172ff042f2cf4bE', symObjAddr: 0x5F8, symBinAddr: 0x3B760, symSize: 0x14 }
  - { offsetInCU: 0x4FE2, offset: 0xFAE76, size: 0x8, addend: 0x0, symName: '__ZN103_$LT$pyo3..instance..Bound$LT$pyo3..types..any..PyAny$GT$$u20$as$u20$pyo3..types..any..PyAnyMethods$GT$23downcast_into_unchecked17h305e9133bdc5f64eE', symObjAddr: 0x60C, symBinAddr: 0x3B774, symSize: 0x14 }
  - { offsetInCU: 0x5019, offset: 0xFAEAD, size: 0x8, addend: 0x0, symName: '__ZN103_$LT$pyo3..instance..Bound$LT$pyo3..types..any..PyAny$GT$$u20$as$u20$pyo3..types..any..PyAnyMethods$GT$23downcast_into_unchecked17h33c7115f5d9e3ddbE', symObjAddr: 0x620, symBinAddr: 0x3B788, symSize: 0x14 }
  - { offsetInCU: 0x5050, offset: 0xFAEE4, size: 0x8, addend: 0x0, symName: '__ZN103_$LT$pyo3..instance..Bound$LT$pyo3..types..any..PyAny$GT$$u20$as$u20$pyo3..types..any..PyAnyMethods$GT$23downcast_into_unchecked17h3b00bfb16819d359E', symObjAddr: 0x634, symBinAddr: 0x3B79C, symSize: 0x14 }
  - { offsetInCU: 0x5087, offset: 0xFAF1B, size: 0x8, addend: 0x0, symName: '__ZN103_$LT$pyo3..instance..Bound$LT$pyo3..types..any..PyAny$GT$$u20$as$u20$pyo3..types..any..PyAnyMethods$GT$23downcast_into_unchecked17h406e5a3230ca9c19E', symObjAddr: 0x648, symBinAddr: 0x3B7B0, symSize: 0x14 }
  - { offsetInCU: 0x50BE, offset: 0xFAF52, size: 0x8, addend: 0x0, symName: '__ZN103_$LT$pyo3..instance..Bound$LT$pyo3..types..any..PyAny$GT$$u20$as$u20$pyo3..types..any..PyAnyMethods$GT$23downcast_into_unchecked17h6ac1fbafaafa7959E', symObjAddr: 0x65C, symBinAddr: 0x3B7C4, symSize: 0x14 }
  - { offsetInCU: 0x50F5, offset: 0xFAF89, size: 0x8, addend: 0x0, symName: '__ZN103_$LT$pyo3..instance..Bound$LT$pyo3..types..any..PyAny$GT$$u20$as$u20$pyo3..types..any..PyAnyMethods$GT$23downcast_into_unchecked17ha4d6f2714733241aE', symObjAddr: 0x670, symBinAddr: 0x3B7D8, symSize: 0x14 }
  - { offsetInCU: 0x512C, offset: 0xFAFC0, size: 0x8, addend: 0x0, symName: '__ZN103_$LT$pyo3..instance..Bound$LT$pyo3..types..any..PyAny$GT$$u20$as$u20$pyo3..types..any..PyAnyMethods$GT$23downcast_into_unchecked17hb0cd6eed95d91893E', symObjAddr: 0x684, symBinAddr: 0x3B7EC, symSize: 0x14 }
  - { offsetInCU: 0x5163, offset: 0xFAFF7, size: 0x8, addend: 0x0, symName: '__ZN103_$LT$pyo3..instance..Bound$LT$pyo3..types..any..PyAny$GT$$u20$as$u20$pyo3..types..any..PyAnyMethods$GT$23downcast_into_unchecked17hc06b9c51f38449e5E', symObjAddr: 0x698, symBinAddr: 0x3B800, symSize: 0x14 }
  - { offsetInCU: 0x519A, offset: 0xFB02E, size: 0x8, addend: 0x0, symName: '__ZN103_$LT$pyo3..instance..Bound$LT$pyo3..types..any..PyAny$GT$$u20$as$u20$pyo3..types..any..PyAnyMethods$GT$23downcast_into_unchecked17hcd2cedcf94d14c7bE', symObjAddr: 0x6AC, symBinAddr: 0x3B814, symSize: 0x14 }
  - { offsetInCU: 0x51D1, offset: 0xFB065, size: 0x8, addend: 0x0, symName: '__ZN103_$LT$pyo3..instance..Bound$LT$pyo3..types..any..PyAny$GT$$u20$as$u20$pyo3..types..any..PyAnyMethods$GT$23downcast_into_unchecked17hd443552f7ce30246E', symObjAddr: 0x6C0, symBinAddr: 0x3B828, symSize: 0x14 }
  - { offsetInCU: 0x5208, offset: 0xFB09C, size: 0x8, addend: 0x0, symName: '__ZN103_$LT$pyo3..instance..Bound$LT$pyo3..types..any..PyAny$GT$$u20$as$u20$pyo3..types..any..PyAnyMethods$GT$23downcast_into_unchecked17hf6b788b32a352421E', symObjAddr: 0x6D4, symBinAddr: 0x3B83C, symSize: 0x14 }
  - { offsetInCU: 0x523F, offset: 0xFB0D3, size: 0x8, addend: 0x0, symName: '__ZN103_$LT$pyo3..instance..Bound$LT$pyo3..types..any..PyAny$GT$$u20$as$u20$pyo3..types..any..PyAnyMethods$GT$23downcast_into_unchecked17hfd75042bca49cf72E', symObjAddr: 0x6E8, symBinAddr: 0x3B850, symSize: 0x14 }
  - { offsetInCU: 0x5276, offset: 0xFB10A, size: 0x8, addend: 0x0, symName: '__ZN103_$LT$pyo3..instance..Bound$LT$pyo3..types..any..PyAny$GT$$u20$as$u20$pyo3..types..any..PyAnyMethods$GT$7extract17h006cf40a5ff86c22E', symObjAddr: 0x6FC, symBinAddr: 0x3B864, symSize: 0x30 }
  - { offsetInCU: 0x52AD, offset: 0xFB141, size: 0x8, addend: 0x0, symName: '__ZN103_$LT$pyo3..instance..Bound$LT$pyo3..types..any..PyAny$GT$$u20$as$u20$pyo3..types..any..PyAnyMethods$GT$7extract17h131c73ba2a78e8bcE', symObjAddr: 0x72C, symBinAddr: 0x3B894, symSize: 0x30 }
  - { offsetInCU: 0x52E4, offset: 0xFB178, size: 0x8, addend: 0x0, symName: '__ZN103_$LT$pyo3..instance..Bound$LT$pyo3..types..any..PyAny$GT$$u20$as$u20$pyo3..types..any..PyAnyMethods$GT$7extract17h2bf44439e77b4a89E', symObjAddr: 0x75C, symBinAddr: 0x3B8C4, symSize: 0x30 }
  - { offsetInCU: 0x531B, offset: 0xFB1AF, size: 0x8, addend: 0x0, symName: '__ZN103_$LT$pyo3..instance..Bound$LT$pyo3..types..any..PyAny$GT$$u20$as$u20$pyo3..types..any..PyAnyMethods$GT$7extract17h2e7992331dd9e521E', symObjAddr: 0x78C, symBinAddr: 0x3B8F4, symSize: 0x30 }
  - { offsetInCU: 0x5352, offset: 0xFB1E6, size: 0x8, addend: 0x0, symName: '__ZN103_$LT$pyo3..instance..Bound$LT$pyo3..types..any..PyAny$GT$$u20$as$u20$pyo3..types..any..PyAnyMethods$GT$7extract17h32f455923115ef2fE', symObjAddr: 0x7BC, symBinAddr: 0x3B924, symSize: 0x30 }
  - { offsetInCU: 0x5389, offset: 0xFB21D, size: 0x8, addend: 0x0, symName: '__ZN103_$LT$pyo3..instance..Bound$LT$pyo3..types..any..PyAny$GT$$u20$as$u20$pyo3..types..any..PyAnyMethods$GT$7extract17h4411059384a2f84bE', symObjAddr: 0x7EC, symBinAddr: 0x3B954, symSize: 0x30 }
  - { offsetInCU: 0x53C0, offset: 0xFB254, size: 0x8, addend: 0x0, symName: '__ZN103_$LT$pyo3..instance..Bound$LT$pyo3..types..any..PyAny$GT$$u20$as$u20$pyo3..types..any..PyAnyMethods$GT$7extract17h5d30470fbbf6c6cfE', symObjAddr: 0x81C, symBinAddr: 0x3B984, symSize: 0x30 }
  - { offsetInCU: 0x53F7, offset: 0xFB28B, size: 0x8, addend: 0x0, symName: '__ZN103_$LT$pyo3..instance..Bound$LT$pyo3..types..any..PyAny$GT$$u20$as$u20$pyo3..types..any..PyAnyMethods$GT$7extract17h67484452bd37759bE', symObjAddr: 0x84C, symBinAddr: 0x3B9B4, symSize: 0x30 }
  - { offsetInCU: 0x542E, offset: 0xFB2C2, size: 0x8, addend: 0x0, symName: '__ZN103_$LT$pyo3..instance..Bound$LT$pyo3..types..any..PyAny$GT$$u20$as$u20$pyo3..types..any..PyAnyMethods$GT$7extract17h7430b02cc2c48df3E', symObjAddr: 0x87C, symBinAddr: 0x3B9E4, symSize: 0x30 }
  - { offsetInCU: 0x5465, offset: 0xFB2F9, size: 0x8, addend: 0x0, symName: '__ZN103_$LT$pyo3..instance..Bound$LT$pyo3..types..any..PyAny$GT$$u20$as$u20$pyo3..types..any..PyAnyMethods$GT$7extract17h754beae515506d53E', symObjAddr: 0x8AC, symBinAddr: 0x3BA14, symSize: 0x30 }
  - { offsetInCU: 0x549C, offset: 0xFB330, size: 0x8, addend: 0x0, symName: '__ZN103_$LT$pyo3..instance..Bound$LT$pyo3..types..any..PyAny$GT$$u20$as$u20$pyo3..types..any..PyAnyMethods$GT$7extract17h8c346b4efab9b397E', symObjAddr: 0x8DC, symBinAddr: 0x3BA44, symSize: 0x30 }
  - { offsetInCU: 0x54D3, offset: 0xFB367, size: 0x8, addend: 0x0, symName: '__ZN103_$LT$pyo3..instance..Bound$LT$pyo3..types..any..PyAny$GT$$u20$as$u20$pyo3..types..any..PyAnyMethods$GT$7extract17h91ff76ae56d56dfcE', symObjAddr: 0x90C, symBinAddr: 0x3BA74, symSize: 0x30 }
  - { offsetInCU: 0x550A, offset: 0xFB39E, size: 0x8, addend: 0x0, symName: '__ZN103_$LT$pyo3..instance..Bound$LT$pyo3..types..any..PyAny$GT$$u20$as$u20$pyo3..types..any..PyAnyMethods$GT$7extract17ha03b0ea67dca523cE', symObjAddr: 0x93C, symBinAddr: 0x3BAA4, symSize: 0x30 }
  - { offsetInCU: 0x5541, offset: 0xFB3D5, size: 0x8, addend: 0x0, symName: '__ZN103_$LT$pyo3..instance..Bound$LT$pyo3..types..any..PyAny$GT$$u20$as$u20$pyo3..types..any..PyAnyMethods$GT$7extract17hae582ec3c55cf7baE', symObjAddr: 0x96C, symBinAddr: 0x3BAD4, symSize: 0x30 }
  - { offsetInCU: 0x5578, offset: 0xFB40C, size: 0x8, addend: 0x0, symName: '__ZN103_$LT$pyo3..instance..Bound$LT$pyo3..types..any..PyAny$GT$$u20$as$u20$pyo3..types..any..PyAnyMethods$GT$7extract17haf5411056aeacfcaE', symObjAddr: 0x99C, symBinAddr: 0x3BB04, symSize: 0x30 }
  - { offsetInCU: 0x55AF, offset: 0xFB443, size: 0x8, addend: 0x0, symName: '__ZN103_$LT$pyo3..instance..Bound$LT$pyo3..types..any..PyAny$GT$$u20$as$u20$pyo3..types..any..PyAnyMethods$GT$7extract17hbb35bb3019a49e7dE', symObjAddr: 0x9CC, symBinAddr: 0x3BB34, symSize: 0x30 }
  - { offsetInCU: 0x55E6, offset: 0xFB47A, size: 0x8, addend: 0x0, symName: '__ZN103_$LT$pyo3..instance..Bound$LT$pyo3..types..any..PyAny$GT$$u20$as$u20$pyo3..types..any..PyAnyMethods$GT$7extract17hd0222a6cf532a689E', symObjAddr: 0x9FC, symBinAddr: 0x3BB64, symSize: 0x30 }
  - { offsetInCU: 0x561D, offset: 0xFB4B1, size: 0x8, addend: 0x0, symName: '__ZN103_$LT$pyo3..instance..Bound$LT$pyo3..types..any..PyAny$GT$$u20$as$u20$pyo3..types..any..PyAnyMethods$GT$7extract17hda04ed3020be9b2eE', symObjAddr: 0xA2C, symBinAddr: 0x3BB94, symSize: 0x30 }
  - { offsetInCU: 0x5654, offset: 0xFB4E8, size: 0x8, addend: 0x0, symName: '__ZN103_$LT$pyo3..instance..Bound$LT$pyo3..types..any..PyAny$GT$$u20$as$u20$pyo3..types..any..PyAnyMethods$GT$7extract17he7406dbd33192868E', symObjAddr: 0xA5C, symBinAddr: 0x3BBC4, symSize: 0x30 }
  - { offsetInCU: 0x568B, offset: 0xFB51F, size: 0x8, addend: 0x0, symName: '__ZN103_$LT$pyo3..instance..Bound$LT$pyo3..types..any..PyAny$GT$$u20$as$u20$pyo3..types..any..PyAnyMethods$GT$7extract17hf32be884342c0e44E', symObjAddr: 0xA8C, symBinAddr: 0x3BBF4, symSize: 0x30 }
  - { offsetInCU: 0x56C2, offset: 0xFB556, size: 0x8, addend: 0x0, symName: '__ZN103_$LT$pyo3..instance..Bound$LT$pyo3..types..any..PyAny$GT$$u20$as$u20$pyo3..types..any..PyAnyMethods$GT$7extract17hfa6a3b75f0def3e1E', symObjAddr: 0xABC, symBinAddr: 0x3BC24, symSize: 0x30 }
  - { offsetInCU: 0x56F9, offset: 0xFB58D, size: 0x8, addend: 0x0, symName: '__ZN103_$LT$pyo3..instance..Bound$LT$pyo3..types..any..PyAny$GT$$u20$as$u20$pyo3..types..any..PyAnyMethods$GT$7extract17hfda66bf7bc71b930E', symObjAddr: 0xAEC, symBinAddr: 0x3BC54, symSize: 0x30 }
  - { offsetInCU: 0x5730, offset: 0xFB5C4, size: 0x8, addend: 0x0, symName: '__ZN103_$LT$pyo3..instance..Bound$LT$pyo3..types..any..PyAny$GT$$u20$as$u20$pyo3..types..any..PyAnyMethods$GT$8downcast17h09549b3a12429673E', symObjAddr: 0xB1C, symBinAddr: 0x3BC84, symSize: 0x84 }
  - { offsetInCU: 0x5767, offset: 0xFB5FB, size: 0x8, addend: 0x0, symName: '__ZN103_$LT$pyo3..instance..Bound$LT$pyo3..types..any..PyAny$GT$$u20$as$u20$pyo3..types..any..PyAnyMethods$GT$8downcast17h19813cda9602d3acE', symObjAddr: 0xBA0, symBinAddr: 0x3BD08, symSize: 0x84 }
  - { offsetInCU: 0x579E, offset: 0xFB632, size: 0x8, addend: 0x0, symName: '__ZN103_$LT$pyo3..instance..Bound$LT$pyo3..types..any..PyAny$GT$$u20$as$u20$pyo3..types..any..PyAnyMethods$GT$8downcast17h31a292fd947e8786E', symObjAddr: 0xC24, symBinAddr: 0x3BD8C, symSize: 0x84 }
  - { offsetInCU: 0x57D5, offset: 0xFB669, size: 0x8, addend: 0x0, symName: '__ZN103_$LT$pyo3..instance..Bound$LT$pyo3..types..any..PyAny$GT$$u20$as$u20$pyo3..types..any..PyAnyMethods$GT$8downcast17h64f968d92f5ca63bE', symObjAddr: 0xCA8, symBinAddr: 0x3BE10, symSize: 0x84 }
  - { offsetInCU: 0x580C, offset: 0xFB6A0, size: 0x8, addend: 0x0, symName: '__ZN103_$LT$pyo3..instance..Bound$LT$pyo3..types..any..PyAny$GT$$u20$as$u20$pyo3..types..any..PyAnyMethods$GT$8downcast17h85991b39cdbfaa66E', symObjAddr: 0xD2C, symBinAddr: 0x3BE94, symSize: 0x84 }
  - { offsetInCU: 0x5843, offset: 0xFB6D7, size: 0x8, addend: 0x0, symName: '__ZN103_$LT$pyo3..instance..Bound$LT$pyo3..types..any..PyAny$GT$$u20$as$u20$pyo3..types..any..PyAnyMethods$GT$8downcast17h877aa16b1f765c58E', symObjAddr: 0xDB0, symBinAddr: 0x3BF18, symSize: 0x84 }
  - { offsetInCU: 0x587A, offset: 0xFB70E, size: 0x8, addend: 0x0, symName: '__ZN103_$LT$pyo3..instance..Bound$LT$pyo3..types..any..PyAny$GT$$u20$as$u20$pyo3..types..any..PyAnyMethods$GT$8downcast17hbde7c65865b0f0a4E', symObjAddr: 0xE34, symBinAddr: 0x3BF9C, symSize: 0x84 }
  - { offsetInCU: 0x58B1, offset: 0xFB745, size: 0x8, addend: 0x0, symName: '__ZN103_$LT$pyo3..instance..Bound$LT$pyo3..types..any..PyAny$GT$$u20$as$u20$pyo3..types..any..PyAnyMethods$GT$8downcast17hc930734773656ce1E', symObjAddr: 0xEB8, symBinAddr: 0x3C020, symSize: 0x84 }
  - { offsetInCU: 0x58E8, offset: 0xFB77C, size: 0x8, addend: 0x0, symName: '__ZN103_$LT$pyo3..instance..Bound$LT$pyo3..types..any..PyAny$GT$$u20$as$u20$pyo3..types..any..PyAnyMethods$GT$8downcast17hd68d8c89de72e42dE', symObjAddr: 0xF3C, symBinAddr: 0x3C0A4, symSize: 0x84 }
  - { offsetInCU: 0x591F, offset: 0xFB7B3, size: 0x8, addend: 0x0, symName: '__ZN103_$LT$pyo3..instance..Bound$LT$pyo3..types..any..PyAny$GT$$u20$as$u20$pyo3..types..any..PyAnyMethods$GT$8downcast17hda1d2bdf988100c0E', symObjAddr: 0xFC0, symBinAddr: 0x3C128, symSize: 0x84 }
  - { offsetInCU: 0x5956, offset: 0xFB7EA, size: 0x8, addend: 0x0, symName: '__ZN103_$LT$pyo3..instance..Bound$LT$pyo3..types..any..PyAny$GT$$u20$as$u20$pyo3..types..any..PyAnyMethods$GT$8downcast17hdaa1c27f2cb0bed2E', symObjAddr: 0x1044, symBinAddr: 0x3C1AC, symSize: 0x84 }
  - { offsetInCU: 0x598D, offset: 0xFB821, size: 0x8, addend: 0x0, symName: '__ZN103_$LT$pyo3..instance..Bound$LT$pyo3..types..any..PyAny$GT$$u20$as$u20$pyo3..types..any..PyAnyMethods$GT$8downcast17hdcee6511cebc1a57E', symObjAddr: 0x10C8, symBinAddr: 0x3C230, symSize: 0x84 }
  - { offsetInCU: 0x59E5, offset: 0xFB879, size: 0x8, addend: 0x0, symName: '__ZN115_$LT$pyo3..instance..Bound$LT$pyo3..types..module..PyModule$GT$$u20$as$u20$pyo3..types..module..PyModuleMethods$GT$3add17h659a8df91b8a1920E', symObjAddr: 0x11B4, symBinAddr: 0x3C31C, symSize: 0x25C }
  - { offsetInCU: 0x5AB2, offset: 0xFB946, size: 0x8, addend: 0x0, symName: '__ZN115_$LT$pyo3..instance..Bound$LT$pyo3..types..module..PyModule$GT$$u20$as$u20$pyo3..types..module..PyModuleMethods$GT$9add_class17h0af3ea775ee35ec9E', symObjAddr: 0x1410, symBinAddr: 0x3C578, symSize: 0xD0 }
  - { offsetInCU: 0x5B28, offset: 0xFB9BC, size: 0x8, addend: 0x0, symName: '__ZN115_$LT$pyo3..instance..Bound$LT$pyo3..types..module..PyModule$GT$$u20$as$u20$pyo3..types..module..PyModuleMethods$GT$9add_class17h0fd91ce4ac468b49E', symObjAddr: 0x14E0, symBinAddr: 0x3C648, symSize: 0xD0 }
  - { offsetInCU: 0x5B9E, offset: 0xFBA32, size: 0x8, addend: 0x0, symName: '__ZN115_$LT$pyo3..instance..Bound$LT$pyo3..types..module..PyModule$GT$$u20$as$u20$pyo3..types..module..PyModuleMethods$GT$9add_class17h22fad2792722de24E', symObjAddr: 0x15B0, symBinAddr: 0x3C718, symSize: 0xD0 }
  - { offsetInCU: 0x5C14, offset: 0xFBAA8, size: 0x8, addend: 0x0, symName: '__ZN115_$LT$pyo3..instance..Bound$LT$pyo3..types..module..PyModule$GT$$u20$as$u20$pyo3..types..module..PyModuleMethods$GT$9add_class17h277789a96d6463ecE', symObjAddr: 0x1680, symBinAddr: 0x3C7E8, symSize: 0xD0 }
  - { offsetInCU: 0x5C8A, offset: 0xFBB1E, size: 0x8, addend: 0x0, symName: '__ZN115_$LT$pyo3..instance..Bound$LT$pyo3..types..module..PyModule$GT$$u20$as$u20$pyo3..types..module..PyModuleMethods$GT$9add_class17h4618cf8e2d34adabE', symObjAddr: 0x1750, symBinAddr: 0x3C8B8, symSize: 0xD0 }
  - { offsetInCU: 0x5D00, offset: 0xFBB94, size: 0x8, addend: 0x0, symName: '__ZN115_$LT$pyo3..instance..Bound$LT$pyo3..types..module..PyModule$GT$$u20$as$u20$pyo3..types..module..PyModuleMethods$GT$9add_class17h46ad873318c0f11fE', symObjAddr: 0x1820, symBinAddr: 0x3C988, symSize: 0xD0 }
  - { offsetInCU: 0x5D76, offset: 0xFBC0A, size: 0x8, addend: 0x0, symName: '__ZN115_$LT$pyo3..instance..Bound$LT$pyo3..types..module..PyModule$GT$$u20$as$u20$pyo3..types..module..PyModuleMethods$GT$9add_class17h57c87257fb0688ffE', symObjAddr: 0x18F0, symBinAddr: 0x3CA58, symSize: 0xD0 }
  - { offsetInCU: 0x5DEC, offset: 0xFBC80, size: 0x8, addend: 0x0, symName: '__ZN115_$LT$pyo3..instance..Bound$LT$pyo3..types..module..PyModule$GT$$u20$as$u20$pyo3..types..module..PyModuleMethods$GT$9add_class17h5e24ea591d755674E', symObjAddr: 0x19C0, symBinAddr: 0x3CB28, symSize: 0xD0 }
  - { offsetInCU: 0x5E62, offset: 0xFBCF6, size: 0x8, addend: 0x0, symName: '__ZN115_$LT$pyo3..instance..Bound$LT$pyo3..types..module..PyModule$GT$$u20$as$u20$pyo3..types..module..PyModuleMethods$GT$9add_class17h867d71986780a259E', symObjAddr: 0x1A90, symBinAddr: 0x3CBF8, symSize: 0xD0 }
  - { offsetInCU: 0x5ED8, offset: 0xFBD6C, size: 0x8, addend: 0x0, symName: '__ZN115_$LT$pyo3..instance..Bound$LT$pyo3..types..module..PyModule$GT$$u20$as$u20$pyo3..types..module..PyModuleMethods$GT$9add_class17h97af39e0ef515f3cE', symObjAddr: 0x1B60, symBinAddr: 0x3CCC8, symSize: 0xD0 }
  - { offsetInCU: 0x5F4E, offset: 0xFBDE2, size: 0x8, addend: 0x0, symName: '__ZN115_$LT$pyo3..instance..Bound$LT$pyo3..types..module..PyModule$GT$$u20$as$u20$pyo3..types..module..PyModuleMethods$GT$9add_class17hb40408445465aaebE', symObjAddr: 0x1C30, symBinAddr: 0x3CD98, symSize: 0xD0 }
  - { offsetInCU: 0x5FC4, offset: 0xFBE58, size: 0x8, addend: 0x0, symName: '__ZN115_$LT$pyo3..instance..Bound$LT$pyo3..types..module..PyModule$GT$$u20$as$u20$pyo3..types..module..PyModuleMethods$GT$9add_class17hf33a8c7e1918e236E', symObjAddr: 0x1D00, symBinAddr: 0x3CE68, symSize: 0xD0 }
  - { offsetInCU: 0x605B, offset: 0xFBEEF, size: 0x8, addend: 0x0, symName: '__ZN4pyo35types5tuple76_$LT$impl$u20$pyo3..conversion..IntoPyObject$u20$for$u20$$LP$T0$C$T1$RP$$GT$13into_pyobject17h5cd4ad031a4574d5E', symObjAddr: 0x21F8, symBinAddr: 0x3D360, symSize: 0x20C }
  - { offsetInCU: 0x610E, offset: 0xFBFA2, size: 0x8, addend: 0x0, symName: '__ZN4pyo35types5tuple76_$LT$impl$u20$pyo3..conversion..IntoPyObject$u20$for$u20$$LP$T0$C$T1$RP$$GT$13into_pyobject17he785bfc8ed8a70ecE', symObjAddr: 0x2404, symBinAddr: 0x3D56C, symSize: 0x20C }
  - { offsetInCU: 0x62A5, offset: 0xFC139, size: 0x8, addend: 0x0, symName: '__ZN111_$LT$T$u20$as$u20$pyo3..impl_..callback..IntoPyCallbackOutput$LT$$BP$mut$u20$pyo3_ffi..object..PyObject$GT$$GT$7convert17h5deb6a2124a34757E', symObjAddr: 0x114C, symBinAddr: 0x3C2B4, symSize: 0x34 }
  - { offsetInCU: 0x62F3, offset: 0xFC187, size: 0x8, addend: 0x0, symName: '__ZN111_$LT$T$u20$as$u20$pyo3..impl_..callback..IntoPyCallbackOutput$LT$$BP$mut$u20$pyo3_ffi..object..PyObject$GT$$GT$7convert17hd2eb688ed3ec573bE', symObjAddr: 0x1180, symBinAddr: 0x3C2E8, symSize: 0x34 }
