---
triple:          'arm64-apple-darwin'
binary-path:     '/Users/user/cdev/highuvlith/target/debug/deps/lib_native.dylib'
relocations:
  - { offsetInCU: 0x1E, offset: 0x1E, size: 0x8, addend: 0x0, symName: __ZN4pyo310conversion15IntoPyObjectExt17into_bound_py_any17h7ee27e38a7e5a989E, symObjAddr: 0x0, symBinAddr: 0x14BC, symSize: 0xE4 }
  - { offsetInCU: 0x86B, offset: 0x86B, size: 0x8, addend: 0x0, symName: '__ZN50_$LT$T$u20$as$u20$core..convert..Into$LT$U$GT$$GT$4into17h2bf57c285f3b6306E', symObjAddr: 0x288, symBinAddr: 0x1744, symSize: 0x14 }
  - { offsetInCU: 0x8AC, offset: 0x8AC, size: 0x8, addend: 0x0, symName: '__ZN50_$LT$T$u20$as$u20$core..convert..Into$LT$U$GT$$GT$4into17h99bd277546e02aa2E', symObjAddr: 0x29C, symBinAddr: 0x1758, symSize: 0x14 }
  - { offsetInCU: 0x17EF, offset: 0x17EF, size: 0x8, addend: 0x0, symName: __ZN4pyo310conversion15IntoPyObjectExt17into_bound_py_any17h7ee27e38a7e5a989E, symObjAddr: 0x0, symBinAddr: 0x14BC, symSize: 0xE4 }
  - { offsetInCU: 0x187C, offset: 0x187C, size: 0x8, addend: 0x0, symName: __ZN4pyo310conversion15IntoPyObjectExt17into_bound_py_any17ha46a3d9744d92d0aE, symObjAddr: 0xE4, symBinAddr: 0x15A0, symSize: 0xE4 }
  - { offsetInCU: 0x1915, offset: 0x1915, size: 0x8, addend: 0x0, symName: __ZN4pyo311type_object10PyTypeInfo10is_type_of17hac8368e4f28a14e7E, symObjAddr: 0x1C8, symBinAddr: 0x1684, symSize: 0x50 }
  - { offsetInCU: 0x194A, offset: 0x194A, size: 0x8, addend: 0x0, symName: __ZN4pyo311type_object10PyTypeInfo10is_type_of17haf36f1f1402ff849E, symObjAddr: 0x218, symBinAddr: 0x16D4, symSize: 0x50 }
  - { offsetInCU: 0x1985, offset: 0x1985, size: 0x8, addend: 0x0, symName: '__ZN52_$LT$T$u20$as$u20$pyo3..type_object..PyTypeCheck$GT$10type_check17h2ce35c4ce6f822e9E', symObjAddr: 0x2B0, symBinAddr: 0x176C, symSize: 0x24 }
  - { offsetInCU: 0x19BA, offset: 0x19BA, size: 0x8, addend: 0x0, symName: '__ZN52_$LT$T$u20$as$u20$pyo3..type_object..PyTypeCheck$GT$10type_check17h5f0ced27ee653a28E', symObjAddr: 0x2D4, symBinAddr: 0x1790, symSize: 0x24 }
  - { offsetInCU: 0x1A00, offset: 0x1A00, size: 0x8, addend: 0x0, symName: __ZN4pyo35impl_7pyclass11PyClassImpl11dict_offset17hcba185c880c8f51bE, symObjAddr: 0x268, symBinAddr: 0x1724, symSize: 0x8 }
  - { offsetInCU: 0x1A27, offset: 0x1A27, size: 0x8, addend: 0x0, symName: __ZN4pyo35impl_7pyclass11PyClassImpl11dict_offset17he06cd618220101d0E, symObjAddr: 0x270, symBinAddr: 0x172C, symSize: 0x8 }
  - { offsetInCU: 0x1A4E, offset: 0x1A4E, size: 0x8, addend: 0x0, symName: __ZN4pyo35impl_7pyclass11PyClassImpl15weaklist_offset17h579c581d3bdca1fdE, symObjAddr: 0x278, symBinAddr: 0x1734, symSize: 0x8 }
  - { offsetInCU: 0x1A75, offset: 0x1A75, size: 0x8, addend: 0x0, symName: __ZN4pyo35impl_7pyclass11PyClassImpl15weaklist_offset17hbe7b2d1b1085c517E, symObjAddr: 0x280, symBinAddr: 0x173C, symSize: 0x8 }
  - { offsetInCU: 0x1EFF, offset: 0x1EFF, size: 0x8, addend: 0x0, symName: '__ZN7_native10py_results19PyAerialImageResult13cross_section28_$u7b$$u7b$closure$u7d$$u7d$17h96a7fe057497401aE', symObjAddr: 0x2F8, symBinAddr: 0x17B4, symSize: 0x54 }
  - { offsetInCU: 0x1F4F, offset: 0x1F4F, size: 0x8, addend: 0x0, symName: '__ZN7_native10py_results19PyAerialImageResult13cross_section28_$u7b$$u7b$closure$u7d$$u7d$17hbde9cef4bd2dd5c3E', symObjAddr: 0x34C, symBinAddr: 0x1808, symSize: 0x3C }
  - { offsetInCU: 0x1FA5, offset: 0x1FA5, size: 0x8, addend: 0x0, symName: '__ZN7_native10py_results19PyAerialImageResult4nils28_$u7b$$u7b$closure$u7d$$u7d$17h7da57ae23a3681f5E', symObjAddr: 0x3B8, symBinAddr: 0x1874, symSize: 0x3C }
  - { offsetInCU: 0x1FF5, offset: 0x1FF5, size: 0x8, addend: 0x0, symName: '__ZN7_native10py_results19PyAerialImageResult4nils28_$u7b$$u7b$closure$u7d$$u7d$17h900cd438c31b16f6E', symObjAddr: 0x3F4, symBinAddr: 0x18B0, symSize: 0x54 }
  - { offsetInCU: 0x204B, offset: 0x204B, size: 0x8, addend: 0x0, symName: '__ZN7_native10py_results19PyAerialImageResult4x_nm28_$u7b$$u7b$closure$u7d$$u7d$17h2f232f9cd18ea47eE', symObjAddr: 0x448, symBinAddr: 0x1904, symSize: 0x3C }
  - { offsetInCU: 0x20A1, offset: 0x20A1, size: 0x8, addend: 0x0, symName: '__ZN7_native10py_results19PyAerialImageResult4y_nm28_$u7b$$u7b$closure$u7d$$u7d$17h4afe57be67b3f2bdE', symObjAddr: 0x484, symBinAddr: 0x1940, symSize: 0x3C }
  - { offsetInCU: 0x20F7, offset: 0x20F7, size: 0x8, addend: 0x0, symName: '__ZN7_native10py_results19PyAerialImageResult6__eq__28_$u7b$$u7b$closure$u7d$$u7d$17h7af7adaf22f144e8E', symObjAddr: 0x4C0, symBinAddr: 0x197C, symSize: 0x74 }
  - { offsetInCU: 0x2168, offset: 0x2168, size: 0x8, addend: 0x0, symName: '__ZN7_native10py_results19PyAerialImageResult17__pymethod_nils__28_$u7b$$u7b$closure$u7d$$u7d$17h1be89f3ef021c8c0E', symObjAddr: 0x388, symBinAddr: 0x1844, symSize: 0x1C }
  - { offsetInCU: 0x219D, offset: 0x219D, size: 0x8, addend: 0x0, symName: '__ZN7_native10py_results19PyAerialImageResult26__pymethod_cross_section__28_$u7b$$u7b$closure$u7d$$u7d$17hc11fe487b6310ecdE', symObjAddr: 0x3A4, symBinAddr: 0x1860, symSize: 0x14 }
  - { offsetInCU: 0x21E7, offset: 0x21E7, size: 0x8, addend: 0x0, symName: '__ZN7_native10py_results200_$LT$impl$u20$pyo3..impl_..pyclass..PyMethods$LT$_native..py_results..PyAerialImageResult$GT$$u20$for$u20$pyo3..impl_..pyclass..PyClassImplCollector$LT$_native..py_results..PyAerialImageResult$GT$$GT$10py_methods5ITEMS58_$LT$impl$u20$_native..py_results..PyAerialImageResult$GT$24__pymethod___richcmp____28_$u7b$$u7b$closure$u7d$$u7d$17h3f7388f4453512d0E', symObjAddr: 0x534, symBinAddr: 0x19F0, symSize: 0x144 }
  - { offsetInCU: 0x229C, offset: 0x229C, size: 0x8, addend: 0x0, symName: '__ZN7_native10py_results204_$LT$impl$u20$pyo3..impl_..pyclass..PyMethods$LT$_native..py_results..PyResistProfileResult$GT$$u20$for$u20$pyo3..impl_..pyclass..PyClassImplCollector$LT$_native..py_results..PyResistProfileResult$GT$$GT$10py_methods5ITEMS60_$LT$impl$u20$_native..py_results..PyResistProfileResult$GT$24__pymethod___richcmp____28_$u7b$$u7b$closure$u7d$$u7d$17h91e79e887f8d8526E', symObjAddr: 0x678, symBinAddr: 0x1B34, symSize: 0x144 }
  - { offsetInCU: 0x2342, offset: 0x2342, size: 0x8, addend: 0x0, symName: '__ZN7_native10py_results21PyResistProfileResult6__eq__28_$u7b$$u7b$closure$u7d$$u7d$17ha4c9559a5aecfd1cE', symObjAddr: 0x7BC, symBinAddr: 0x1C78, symSize: 0x74 }
  - { offsetInCU: 0x23B3, offset: 0x23B3, size: 0x8, addend: 0x0, symName: '__ZN94_$LT$_native..py_results..PyAerialImageResult$u20$as$u20$pyo3..impl_..pyclass..PyClassImpl$GT$3doc28_$u7b$$u7b$closure$u7d$$u7d$17h73a83872bd02752dE', symObjAddr: 0x830, symBinAddr: 0x1CEC, symSize: 0x58 }
  - { offsetInCU: 0x240B, offset: 0x240B, size: 0x8, addend: 0x0, symName: '__ZN96_$LT$_native..py_results..PyResistProfileResult$u20$as$u20$pyo3..impl_..pyclass..PyClassImpl$GT$3doc28_$u7b$$u7b$closure$u7d$$u7d$17h5abf1b0d77874576E', symObjAddr: 0x888, symBinAddr: 0x1D44, symSize: 0x58 }
  - { offsetInCU: 0x1E, offset: 0x2E92, size: 0x8, addend: 0x0, symName: __ZN4core5slice3raw14from_raw_parts18precondition_check17h2f23993fc98ea4e7E, symObjAddr: 0x0, symBinAddr: 0x1D9C, symSize: 0x10C }
  - { offsetInCU: 0x104, offset: 0x2F78, size: 0x8, addend: 0x0, symName: __ZN4core5slice3raw14from_raw_parts18precondition_check17h2f23993fc98ea4e7E, symObjAddr: 0x0, symBinAddr: 0x1D9C, symSize: 0x10C }
  - { offsetInCU: 0x1E, offset: 0x310D, size: 0x8, addend: 0x0, symName: '__ZN8nalgebra4base11vec_storage27VecStorage$LT$T$C$R$C$C$GT$3new17hf32dcfd9f3824559E', symObjAddr: 0x0, symBinAddr: 0x1EA8, symSize: 0x120 }
  - { offsetInCU: 0x293, offset: 0x3382, size: 0x8, addend: 0x0, symName: '__ZN8nalgebra4base11vec_storage27VecStorage$LT$T$C$R$C$C$GT$3new17hf32dcfd9f3824559E', symObjAddr: 0x0, symBinAddr: 0x1EA8, symSize: 0x120 }
  - { offsetInCU: 0x1E, offset: 0x33FA, size: 0x8, addend: 0x0, symName: '__ZN118_$LT$pyo3..impl_..pyclass..SendablePyClass$LT$T$GT$$u20$as$u20$pyo3..impl_..pyclass..PyClassThreadChecker$LT$T$GT$$GT$3new17h02c7b915d90b0059E', symObjAddr: 0x0, symBinAddr: 0x1FC8, symSize: 0x4 }
  - { offsetInCU: 0x2C1E, offset: 0x5FFA, size: 0x8, addend: 0x0, symName: '__ZN118_$LT$pyo3..impl_..pyclass..SendablePyClass$LT$T$GT$$u20$as$u20$pyo3..impl_..pyclass..PyClassThreadChecker$LT$T$GT$$GT$3new17h02c7b915d90b0059E', symObjAddr: 0x0, symBinAddr: 0x1FC8, symSize: 0x4 }
  - { offsetInCU: 0x2C42, offset: 0x601E, size: 0x8, addend: 0x0, symName: '__ZN118_$LT$pyo3..impl_..pyclass..SendablePyClass$LT$T$GT$$u20$as$u20$pyo3..impl_..pyclass..PyClassThreadChecker$LT$T$GT$$GT$3new17h04eda0d2c35429f5E', symObjAddr: 0x4, symBinAddr: 0x1FCC, symSize: 0x4 }
  - { offsetInCU: 0x2C66, offset: 0x6042, size: 0x8, addend: 0x0, symName: '__ZN118_$LT$pyo3..impl_..pyclass..SendablePyClass$LT$T$GT$$u20$as$u20$pyo3..impl_..pyclass..PyClassThreadChecker$LT$T$GT$$GT$3new17h0534b9ca04f0f5c5E', symObjAddr: 0x8, symBinAddr: 0x1FD0, symSize: 0x4 }
  - { offsetInCU: 0x2C8A, offset: 0x6066, size: 0x8, addend: 0x0, symName: '__ZN118_$LT$pyo3..impl_..pyclass..SendablePyClass$LT$T$GT$$u20$as$u20$pyo3..impl_..pyclass..PyClassThreadChecker$LT$T$GT$$GT$3new17h1b69ffada2ef7f49E', symObjAddr: 0xC, symBinAddr: 0x1FD4, symSize: 0x4 }
  - { offsetInCU: 0x2CAE, offset: 0x608A, size: 0x8, addend: 0x0, symName: '__ZN118_$LT$pyo3..impl_..pyclass..SendablePyClass$LT$T$GT$$u20$as$u20$pyo3..impl_..pyclass..PyClassThreadChecker$LT$T$GT$$GT$3new17h23f3ab483418d238E', symObjAddr: 0x10, symBinAddr: 0x1FD8, symSize: 0x4 }
  - { offsetInCU: 0x2CD2, offset: 0x60AE, size: 0x8, addend: 0x0, symName: '__ZN118_$LT$pyo3..impl_..pyclass..SendablePyClass$LT$T$GT$$u20$as$u20$pyo3..impl_..pyclass..PyClassThreadChecker$LT$T$GT$$GT$3new17h4f4ebc28d0005197E', symObjAddr: 0x14, symBinAddr: 0x1FDC, symSize: 0x4 }
  - { offsetInCU: 0x2CF6, offset: 0x60D2, size: 0x8, addend: 0x0, symName: '__ZN118_$LT$pyo3..impl_..pyclass..SendablePyClass$LT$T$GT$$u20$as$u20$pyo3..impl_..pyclass..PyClassThreadChecker$LT$T$GT$$GT$3new17h5242fa526df04f83E', symObjAddr: 0x18, symBinAddr: 0x1FE0, symSize: 0x4 }
  - { offsetInCU: 0x2D1A, offset: 0x60F6, size: 0x8, addend: 0x0, symName: '__ZN118_$LT$pyo3..impl_..pyclass..SendablePyClass$LT$T$GT$$u20$as$u20$pyo3..impl_..pyclass..PyClassThreadChecker$LT$T$GT$$GT$3new17h5d5ffcd6a5d2d496E', symObjAddr: 0x1C, symBinAddr: 0x1FE4, symSize: 0x4 }
  - { offsetInCU: 0x2D3E, offset: 0x611A, size: 0x8, addend: 0x0, symName: '__ZN118_$LT$pyo3..impl_..pyclass..SendablePyClass$LT$T$GT$$u20$as$u20$pyo3..impl_..pyclass..PyClassThreadChecker$LT$T$GT$$GT$3new17h6835eba475d3dc65E', symObjAddr: 0x20, symBinAddr: 0x1FE8, symSize: 0x4 }
  - { offsetInCU: 0x2D62, offset: 0x613E, size: 0x8, addend: 0x0, symName: '__ZN118_$LT$pyo3..impl_..pyclass..SendablePyClass$LT$T$GT$$u20$as$u20$pyo3..impl_..pyclass..PyClassThreadChecker$LT$T$GT$$GT$3new17h8d92d05bd55c47dbE', symObjAddr: 0x24, symBinAddr: 0x1FEC, symSize: 0x4 }
  - { offsetInCU: 0x2D86, offset: 0x6162, size: 0x8, addend: 0x0, symName: '__ZN118_$LT$pyo3..impl_..pyclass..SendablePyClass$LT$T$GT$$u20$as$u20$pyo3..impl_..pyclass..PyClassThreadChecker$LT$T$GT$$GT$3new17ha160fb1dd8022bd8E', symObjAddr: 0x28, symBinAddr: 0x1FF0, symSize: 0x4 }
  - { offsetInCU: 0x2DAA, offset: 0x6186, size: 0x8, addend: 0x0, symName: '__ZN118_$LT$pyo3..impl_..pyclass..SendablePyClass$LT$T$GT$$u20$as$u20$pyo3..impl_..pyclass..PyClassThreadChecker$LT$T$GT$$GT$3new17ha7714b9513f4a57dE', symObjAddr: 0x2C, symBinAddr: 0x1FF4, symSize: 0x4 }
  - { offsetInCU: 0x2DCE, offset: 0x61AA, size: 0x8, addend: 0x0, symName: '__ZN118_$LT$pyo3..impl_..pyclass..SendablePyClass$LT$T$GT$$u20$as$u20$pyo3..impl_..pyclass..PyClassThreadChecker$LT$T$GT$$GT$3new17hae7be75facae77f1E', symObjAddr: 0x30, symBinAddr: 0x1FF8, symSize: 0x4 }
  - { offsetInCU: 0x2DF2, offset: 0x61CE, size: 0x8, addend: 0x0, symName: '__ZN118_$LT$pyo3..impl_..pyclass..SendablePyClass$LT$T$GT$$u20$as$u20$pyo3..impl_..pyclass..PyClassThreadChecker$LT$T$GT$$GT$3new17haf9cfb9fea4df59fE', symObjAddr: 0x34, symBinAddr: 0x1FFC, symSize: 0x4 }
  - { offsetInCU: 0x2E16, offset: 0x61F2, size: 0x8, addend: 0x0, symName: '__ZN118_$LT$pyo3..impl_..pyclass..SendablePyClass$LT$T$GT$$u20$as$u20$pyo3..impl_..pyclass..PyClassThreadChecker$LT$T$GT$$GT$3new17hb188e60b090e1aebE', symObjAddr: 0x38, symBinAddr: 0x2000, symSize: 0x4 }
  - { offsetInCU: 0x2E3A, offset: 0x6216, size: 0x8, addend: 0x0, symName: '__ZN118_$LT$pyo3..impl_..pyclass..SendablePyClass$LT$T$GT$$u20$as$u20$pyo3..impl_..pyclass..PyClassThreadChecker$LT$T$GT$$GT$3new17hb7ff8212ccfbba96E', symObjAddr: 0x3C, symBinAddr: 0x2004, symSize: 0x4 }
  - { offsetInCU: 0x2E5E, offset: 0x623A, size: 0x8, addend: 0x0, symName: '__ZN118_$LT$pyo3..impl_..pyclass..SendablePyClass$LT$T$GT$$u20$as$u20$pyo3..impl_..pyclass..PyClassThreadChecker$LT$T$GT$$GT$3new17hb86cb99ec132e350E', symObjAddr: 0x40, symBinAddr: 0x2008, symSize: 0x4 }
  - { offsetInCU: 0x2E82, offset: 0x625E, size: 0x8, addend: 0x0, symName: '__ZN118_$LT$pyo3..impl_..pyclass..SendablePyClass$LT$T$GT$$u20$as$u20$pyo3..impl_..pyclass..PyClassThreadChecker$LT$T$GT$$GT$3new17hd6388fd459e2f442E', symObjAddr: 0x44, symBinAddr: 0x200C, symSize: 0x4 }
  - { offsetInCU: 0x2EA6, offset: 0x6282, size: 0x8, addend: 0x0, symName: '__ZN118_$LT$pyo3..impl_..pyclass..SendablePyClass$LT$T$GT$$u20$as$u20$pyo3..impl_..pyclass..PyClassThreadChecker$LT$T$GT$$GT$6ensure17h047ebe8250d7dce0E', symObjAddr: 0x48, symBinAddr: 0x2010, symSize: 0x10 }
  - { offsetInCU: 0x2ED9, offset: 0x62B5, size: 0x8, addend: 0x0, symName: '__ZN118_$LT$pyo3..impl_..pyclass..SendablePyClass$LT$T$GT$$u20$as$u20$pyo3..impl_..pyclass..PyClassThreadChecker$LT$T$GT$$GT$6ensure17h0954ee36961b2c00E', symObjAddr: 0x58, symBinAddr: 0x2020, symSize: 0x10 }
  - { offsetInCU: 0x2F0C, offset: 0x62E8, size: 0x8, addend: 0x0, symName: '__ZN118_$LT$pyo3..impl_..pyclass..SendablePyClass$LT$T$GT$$u20$as$u20$pyo3..impl_..pyclass..PyClassThreadChecker$LT$T$GT$$GT$6ensure17h0d7cf8252718b00eE', symObjAddr: 0x68, symBinAddr: 0x2030, symSize: 0x10 }
  - { offsetInCU: 0x2F3F, offset: 0x631B, size: 0x8, addend: 0x0, symName: '__ZN118_$LT$pyo3..impl_..pyclass..SendablePyClass$LT$T$GT$$u20$as$u20$pyo3..impl_..pyclass..PyClassThreadChecker$LT$T$GT$$GT$6ensure17h140aff517bf49d58E', symObjAddr: 0x78, symBinAddr: 0x2040, symSize: 0x10 }
  - { offsetInCU: 0x2F72, offset: 0x634E, size: 0x8, addend: 0x0, symName: '__ZN118_$LT$pyo3..impl_..pyclass..SendablePyClass$LT$T$GT$$u20$as$u20$pyo3..impl_..pyclass..PyClassThreadChecker$LT$T$GT$$GT$6ensure17h143f5d17381e5d0fE', symObjAddr: 0x88, symBinAddr: 0x2050, symSize: 0x10 }
  - { offsetInCU: 0x2FA5, offset: 0x6381, size: 0x8, addend: 0x0, symName: '__ZN118_$LT$pyo3..impl_..pyclass..SendablePyClass$LT$T$GT$$u20$as$u20$pyo3..impl_..pyclass..PyClassThreadChecker$LT$T$GT$$GT$6ensure17h17d0cc62823478deE', symObjAddr: 0x98, symBinAddr: 0x2060, symSize: 0x10 }
  - { offsetInCU: 0x2FD8, offset: 0x63B4, size: 0x8, addend: 0x0, symName: '__ZN118_$LT$pyo3..impl_..pyclass..SendablePyClass$LT$T$GT$$u20$as$u20$pyo3..impl_..pyclass..PyClassThreadChecker$LT$T$GT$$GT$6ensure17h1d6109e4af416a2fE', symObjAddr: 0xA8, symBinAddr: 0x2070, symSize: 0x10 }
  - { offsetInCU: 0x300B, offset: 0x63E7, size: 0x8, addend: 0x0, symName: '__ZN118_$LT$pyo3..impl_..pyclass..SendablePyClass$LT$T$GT$$u20$as$u20$pyo3..impl_..pyclass..PyClassThreadChecker$LT$T$GT$$GT$6ensure17h2037b357c971daddE', symObjAddr: 0xB8, symBinAddr: 0x2080, symSize: 0x10 }
  - { offsetInCU: 0x303E, offset: 0x641A, size: 0x8, addend: 0x0, symName: '__ZN118_$LT$pyo3..impl_..pyclass..SendablePyClass$LT$T$GT$$u20$as$u20$pyo3..impl_..pyclass..PyClassThreadChecker$LT$T$GT$$GT$6ensure17h44e41276c3bfac83E', symObjAddr: 0xC8, symBinAddr: 0x2090, symSize: 0x10 }
  - { offsetInCU: 0x3071, offset: 0x644D, size: 0x8, addend: 0x0, symName: '__ZN118_$LT$pyo3..impl_..pyclass..SendablePyClass$LT$T$GT$$u20$as$u20$pyo3..impl_..pyclass..PyClassThreadChecker$LT$T$GT$$GT$6ensure17ha4ff4e0d95792ce1E', symObjAddr: 0xD8, symBinAddr: 0x20A0, symSize: 0x10 }
  - { offsetInCU: 0x30A4, offset: 0x6480, size: 0x8, addend: 0x0, symName: '__ZN118_$LT$pyo3..impl_..pyclass..SendablePyClass$LT$T$GT$$u20$as$u20$pyo3..impl_..pyclass..PyClassThreadChecker$LT$T$GT$$GT$6ensure17had1b47865323a0efE', symObjAddr: 0xE8, symBinAddr: 0x20B0, symSize: 0x10 }
  - { offsetInCU: 0x30D7, offset: 0x64B3, size: 0x8, addend: 0x0, symName: '__ZN118_$LT$pyo3..impl_..pyclass..SendablePyClass$LT$T$GT$$u20$as$u20$pyo3..impl_..pyclass..PyClassThreadChecker$LT$T$GT$$GT$6ensure17haff265dcf35c8fa5E', symObjAddr: 0xF8, symBinAddr: 0x20C0, symSize: 0x10 }
  - { offsetInCU: 0x310A, offset: 0x64E6, size: 0x8, addend: 0x0, symName: '__ZN118_$LT$pyo3..impl_..pyclass..SendablePyClass$LT$T$GT$$u20$as$u20$pyo3..impl_..pyclass..PyClassThreadChecker$LT$T$GT$$GT$6ensure17hc783a3778bd126beE', symObjAddr: 0x108, symBinAddr: 0x20D0, symSize: 0x10 }
  - { offsetInCU: 0x313D, offset: 0x6519, size: 0x8, addend: 0x0, symName: '__ZN118_$LT$pyo3..impl_..pyclass..SendablePyClass$LT$T$GT$$u20$as$u20$pyo3..impl_..pyclass..PyClassThreadChecker$LT$T$GT$$GT$6ensure17he03ff5abd129976dE', symObjAddr: 0x118, symBinAddr: 0x20E0, symSize: 0x10 }
  - { offsetInCU: 0x3170, offset: 0x654C, size: 0x8, addend: 0x0, symName: '__ZN118_$LT$pyo3..impl_..pyclass..SendablePyClass$LT$T$GT$$u20$as$u20$pyo3..impl_..pyclass..PyClassThreadChecker$LT$T$GT$$GT$6ensure17he0dbc05fd668d459E', symObjAddr: 0x128, symBinAddr: 0x20F0, symSize: 0x10 }
  - { offsetInCU: 0x31A3, offset: 0x657F, size: 0x8, addend: 0x0, symName: '__ZN118_$LT$pyo3..impl_..pyclass..SendablePyClass$LT$T$GT$$u20$as$u20$pyo3..impl_..pyclass..PyClassThreadChecker$LT$T$GT$$GT$6ensure17he6f26a71210a84e9E', symObjAddr: 0x138, symBinAddr: 0x2100, symSize: 0x10 }
  - { offsetInCU: 0x31D6, offset: 0x65B2, size: 0x8, addend: 0x0, symName: '__ZN118_$LT$pyo3..impl_..pyclass..SendablePyClass$LT$T$GT$$u20$as$u20$pyo3..impl_..pyclass..PyClassThreadChecker$LT$T$GT$$GT$6ensure17he83c9955f595a759E', symObjAddr: 0x148, symBinAddr: 0x2110, symSize: 0x10 }
  - { offsetInCU: 0x3209, offset: 0x65E5, size: 0x8, addend: 0x0, symName: '__ZN118_$LT$pyo3..impl_..pyclass..SendablePyClass$LT$T$GT$$u20$as$u20$pyo3..impl_..pyclass..PyClassThreadChecker$LT$T$GT$$GT$6ensure17hf954692aef7fdcf8E', symObjAddr: 0x158, symBinAddr: 0x2120, symSize: 0x10 }
  - { offsetInCU: 0x323C, offset: 0x6618, size: 0x8, addend: 0x0, symName: '__ZN118_$LT$pyo3..impl_..pyclass..SendablePyClass$LT$T$GT$$u20$as$u20$pyo3..impl_..pyclass..PyClassThreadChecker$LT$T$GT$$GT$8can_drop17h004e62a8947a8e1bE', symObjAddr: 0x168, symBinAddr: 0x2130, symSize: 0x18 }
  - { offsetInCU: 0x328E, offset: 0x666A, size: 0x8, addend: 0x0, symName: '__ZN118_$LT$pyo3..impl_..pyclass..SendablePyClass$LT$T$GT$$u20$as$u20$pyo3..impl_..pyclass..PyClassThreadChecker$LT$T$GT$$GT$8can_drop17h059f686cbc43085aE', symObjAddr: 0x180, symBinAddr: 0x2148, symSize: 0x18 }
  - { offsetInCU: 0x32E0, offset: 0x66BC, size: 0x8, addend: 0x0, symName: '__ZN118_$LT$pyo3..impl_..pyclass..SendablePyClass$LT$T$GT$$u20$as$u20$pyo3..impl_..pyclass..PyClassThreadChecker$LT$T$GT$$GT$8can_drop17h4127cfe3d0156614E', symObjAddr: 0x198, symBinAddr: 0x2160, symSize: 0x18 }
  - { offsetInCU: 0x3332, offset: 0x670E, size: 0x8, addend: 0x0, symName: '__ZN118_$LT$pyo3..impl_..pyclass..SendablePyClass$LT$T$GT$$u20$as$u20$pyo3..impl_..pyclass..PyClassThreadChecker$LT$T$GT$$GT$8can_drop17h52aedc5f0472af39E', symObjAddr: 0x1B0, symBinAddr: 0x2178, symSize: 0x18 }
  - { offsetInCU: 0x3384, offset: 0x6760, size: 0x8, addend: 0x0, symName: '__ZN118_$LT$pyo3..impl_..pyclass..SendablePyClass$LT$T$GT$$u20$as$u20$pyo3..impl_..pyclass..PyClassThreadChecker$LT$T$GT$$GT$8can_drop17h540e8f424b07fd53E', symObjAddr: 0x1C8, symBinAddr: 0x2190, symSize: 0x18 }
  - { offsetInCU: 0x33D6, offset: 0x67B2, size: 0x8, addend: 0x0, symName: '__ZN118_$LT$pyo3..impl_..pyclass..SendablePyClass$LT$T$GT$$u20$as$u20$pyo3..impl_..pyclass..PyClassThreadChecker$LT$T$GT$$GT$8can_drop17h583807dabac992e2E', symObjAddr: 0x1E0, symBinAddr: 0x21A8, symSize: 0x18 }
  - { offsetInCU: 0x3428, offset: 0x6804, size: 0x8, addend: 0x0, symName: '__ZN118_$LT$pyo3..impl_..pyclass..SendablePyClass$LT$T$GT$$u20$as$u20$pyo3..impl_..pyclass..PyClassThreadChecker$LT$T$GT$$GT$8can_drop17h5d0867433bfb4a91E', symObjAddr: 0x1F8, symBinAddr: 0x21C0, symSize: 0x18 }
  - { offsetInCU: 0x347A, offset: 0x6856, size: 0x8, addend: 0x0, symName: '__ZN118_$LT$pyo3..impl_..pyclass..SendablePyClass$LT$T$GT$$u20$as$u20$pyo3..impl_..pyclass..PyClassThreadChecker$LT$T$GT$$GT$8can_drop17h61e276363f03f187E', symObjAddr: 0x210, symBinAddr: 0x21D8, symSize: 0x18 }
  - { offsetInCU: 0x34CC, offset: 0x68A8, size: 0x8, addend: 0x0, symName: '__ZN118_$LT$pyo3..impl_..pyclass..SendablePyClass$LT$T$GT$$u20$as$u20$pyo3..impl_..pyclass..PyClassThreadChecker$LT$T$GT$$GT$8can_drop17h702bb7c90d434934E', symObjAddr: 0x228, symBinAddr: 0x21F0, symSize: 0x18 }
  - { offsetInCU: 0x351E, offset: 0x68FA, size: 0x8, addend: 0x0, symName: '__ZN118_$LT$pyo3..impl_..pyclass..SendablePyClass$LT$T$GT$$u20$as$u20$pyo3..impl_..pyclass..PyClassThreadChecker$LT$T$GT$$GT$8can_drop17h74870e52bfdf4865E', symObjAddr: 0x240, symBinAddr: 0x2208, symSize: 0x18 }
  - { offsetInCU: 0x3570, offset: 0x694C, size: 0x8, addend: 0x0, symName: '__ZN118_$LT$pyo3..impl_..pyclass..SendablePyClass$LT$T$GT$$u20$as$u20$pyo3..impl_..pyclass..PyClassThreadChecker$LT$T$GT$$GT$8can_drop17h9b206f67e9156bf8E', symObjAddr: 0x258, symBinAddr: 0x2220, symSize: 0x18 }
  - { offsetInCU: 0x35C2, offset: 0x699E, size: 0x8, addend: 0x0, symName: '__ZN118_$LT$pyo3..impl_..pyclass..SendablePyClass$LT$T$GT$$u20$as$u20$pyo3..impl_..pyclass..PyClassThreadChecker$LT$T$GT$$GT$8can_drop17h9b3a4ba797a3ac26E', symObjAddr: 0x270, symBinAddr: 0x2238, symSize: 0x18 }
  - { offsetInCU: 0x3614, offset: 0x69F0, size: 0x8, addend: 0x0, symName: '__ZN118_$LT$pyo3..impl_..pyclass..SendablePyClass$LT$T$GT$$u20$as$u20$pyo3..impl_..pyclass..PyClassThreadChecker$LT$T$GT$$GT$8can_drop17h9fd4979d3daa23d8E', symObjAddr: 0x288, symBinAddr: 0x2250, symSize: 0x18 }
  - { offsetInCU: 0x3666, offset: 0x6A42, size: 0x8, addend: 0x0, symName: '__ZN118_$LT$pyo3..impl_..pyclass..SendablePyClass$LT$T$GT$$u20$as$u20$pyo3..impl_..pyclass..PyClassThreadChecker$LT$T$GT$$GT$8can_drop17hc47ab70c237972e9E', symObjAddr: 0x2A0, symBinAddr: 0x2268, symSize: 0x18 }
  - { offsetInCU: 0x36B8, offset: 0x6A94, size: 0x8, addend: 0x0, symName: '__ZN118_$LT$pyo3..impl_..pyclass..SendablePyClass$LT$T$GT$$u20$as$u20$pyo3..impl_..pyclass..PyClassThreadChecker$LT$T$GT$$GT$8can_drop17hcd346e2407606a7bE', symObjAddr: 0x2B8, symBinAddr: 0x2280, symSize: 0x18 }
  - { offsetInCU: 0x370A, offset: 0x6AE6, size: 0x8, addend: 0x0, symName: '__ZN118_$LT$pyo3..impl_..pyclass..SendablePyClass$LT$T$GT$$u20$as$u20$pyo3..impl_..pyclass..PyClassThreadChecker$LT$T$GT$$GT$8can_drop17hd2280241437e985bE', symObjAddr: 0x2D0, symBinAddr: 0x2298, symSize: 0x18 }
  - { offsetInCU: 0x375C, offset: 0x6B38, size: 0x8, addend: 0x0, symName: '__ZN118_$LT$pyo3..impl_..pyclass..SendablePyClass$LT$T$GT$$u20$as$u20$pyo3..impl_..pyclass..PyClassThreadChecker$LT$T$GT$$GT$8can_drop17hd759cedb1165f775E', symObjAddr: 0x2E8, symBinAddr: 0x22B0, symSize: 0x18 }
  - { offsetInCU: 0x37AE, offset: 0x6B8A, size: 0x8, addend: 0x0, symName: '__ZN118_$LT$pyo3..impl_..pyclass..SendablePyClass$LT$T$GT$$u20$as$u20$pyo3..impl_..pyclass..PyClassThreadChecker$LT$T$GT$$GT$8can_drop17hee31d3b8f08f2f12E', symObjAddr: 0x300, symBinAddr: 0x22C8, symSize: 0x18 }
  - { offsetInCU: 0x3806, offset: 0x6BE2, size: 0x8, addend: 0x0, symName: '__ZN130_$LT$$RF$pyo3..impl_..pyclass..PyClassImplCollector$LT$T$GT$$u20$as$u20$pyo3..impl_..pyclass..PyClassNewTextSignature$LT$T$GT$$GT$18new_text_signature17h2f88fccf4b002d4aE', symObjAddr: 0x318, symBinAddr: 0x22E0, symSize: 0x14 }
  - { offsetInCU: 0x383D, offset: 0x6C19, size: 0x8, addend: 0x0, symName: '__ZN130_$LT$$RF$pyo3..impl_..pyclass..PyClassImplCollector$LT$T$GT$$u20$as$u20$pyo3..impl_..pyclass..PyClassNewTextSignature$LT$T$GT$$GT$18new_text_signature17h5a04ae9b0d954265E', symObjAddr: 0x32C, symBinAddr: 0x22F4, symSize: 0x14 }
  - { offsetInCU: 0x3874, offset: 0x6C50, size: 0x8, addend: 0x0, symName: '__ZN130_$LT$$RF$pyo3..impl_..pyclass..PyClassImplCollector$LT$T$GT$$u20$as$u20$pyo3..impl_..pyclass..PyClassNewTextSignature$LT$T$GT$$GT$18new_text_signature17h641e35c12b40f2c9E', symObjAddr: 0x340, symBinAddr: 0x2308, symSize: 0x14 }
  - { offsetInCU: 0x38AB, offset: 0x6C87, size: 0x8, addend: 0x0, symName: '__ZN130_$LT$$RF$pyo3..impl_..pyclass..PyClassImplCollector$LT$T$GT$$u20$as$u20$pyo3..impl_..pyclass..PyClassNewTextSignature$LT$T$GT$$GT$18new_text_signature17h80b3dc3aa360765dE', symObjAddr: 0x354, symBinAddr: 0x231C, symSize: 0x14 }
  - { offsetInCU: 0x38E2, offset: 0x6CBE, size: 0x8, addend: 0x0, symName: '__ZN130_$LT$$RF$pyo3..impl_..pyclass..PyClassImplCollector$LT$T$GT$$u20$as$u20$pyo3..impl_..pyclass..PyClassNewTextSignature$LT$T$GT$$GT$18new_text_signature17heb96792f55b2e473E', symObjAddr: 0x368, symBinAddr: 0x2330, symSize: 0x14 }
  - { offsetInCU: 0x3919, offset: 0x6CF5, size: 0x8, addend: 0x0, symName: '__ZN130_$LT$$RF$pyo3..impl_..pyclass..PyClassImplCollector$LT$T$GT$$u20$as$u20$pyo3..impl_..pyclass..PyClassNewTextSignature$LT$T$GT$$GT$18new_text_signature17hef6894d4365fe8afE', symObjAddr: 0x37C, symBinAddr: 0x2344, symSize: 0x14 }
  - { offsetInCU: 0x3951, offset: 0x6D2D, size: 0x8, addend: 0x0, symName: __ZN4pyo35impl_7pyclass10tp_dealloc17h0a05e3694c4f63bdE, symObjAddr: 0x390, symBinAddr: 0x2358, symSize: 0x34 }
  - { offsetInCU: 0x3984, offset: 0x6D60, size: 0x8, addend: 0x0, symName: __ZN4pyo35impl_7pyclass10tp_dealloc17h1e2bf8f86ec453a8E, symObjAddr: 0x3C4, symBinAddr: 0x238C, symSize: 0x34 }
  - { offsetInCU: 0x39B7, offset: 0x6D93, size: 0x8, addend: 0x0, symName: __ZN4pyo35impl_7pyclass10tp_dealloc17h25af936eb3a48984E, symObjAddr: 0x3F8, symBinAddr: 0x23C0, symSize: 0x34 }
  - { offsetInCU: 0x39EA, offset: 0x6DC6, size: 0x8, addend: 0x0, symName: __ZN4pyo35impl_7pyclass10tp_dealloc17h2b0c9d6c1173a221E, symObjAddr: 0x42C, symBinAddr: 0x23F4, symSize: 0x34 }
  - { offsetInCU: 0x3A1D, offset: 0x6DF9, size: 0x8, addend: 0x0, symName: __ZN4pyo35impl_7pyclass10tp_dealloc17h34b5f3876f592ee9E, symObjAddr: 0x460, symBinAddr: 0x2428, symSize: 0x34 }
  - { offsetInCU: 0x3A50, offset: 0x6E2C, size: 0x8, addend: 0x0, symName: __ZN4pyo35impl_7pyclass10tp_dealloc17h39f03ae8b04fc78bE, symObjAddr: 0x494, symBinAddr: 0x245C, symSize: 0x34 }
  - { offsetInCU: 0x3A83, offset: 0x6E5F, size: 0x8, addend: 0x0, symName: __ZN4pyo35impl_7pyclass10tp_dealloc17h45abee99e4a758a9E, symObjAddr: 0x4C8, symBinAddr: 0x2490, symSize: 0x34 }
  - { offsetInCU: 0x3AB6, offset: 0x6E92, size: 0x8, addend: 0x0, symName: __ZN4pyo35impl_7pyclass10tp_dealloc17h48134c539f6e57ceE, symObjAddr: 0x4FC, symBinAddr: 0x24C4, symSize: 0x34 }
  - { offsetInCU: 0x3AE9, offset: 0x6EC5, size: 0x8, addend: 0x0, symName: __ZN4pyo35impl_7pyclass10tp_dealloc17h4a00de842f682182E, symObjAddr: 0x530, symBinAddr: 0x24F8, symSize: 0x34 }
  - { offsetInCU: 0x3B1C, offset: 0x6EF8, size: 0x8, addend: 0x0, symName: __ZN4pyo35impl_7pyclass10tp_dealloc17h792c875c0b35a15dE, symObjAddr: 0x564, symBinAddr: 0x252C, symSize: 0x34 }
  - { offsetInCU: 0x3B4F, offset: 0x6F2B, size: 0x8, addend: 0x0, symName: __ZN4pyo35impl_7pyclass10tp_dealloc17h7dbfc2aab2be74c3E, symObjAddr: 0x598, symBinAddr: 0x2560, symSize: 0x34 }
  - { offsetInCU: 0x3B82, offset: 0x6F5E, size: 0x8, addend: 0x0, symName: __ZN4pyo35impl_7pyclass10tp_dealloc17ha556e5e1129996f4E, symObjAddr: 0x5CC, symBinAddr: 0x2594, symSize: 0x34 }
  - { offsetInCU: 0x3BB5, offset: 0x6F91, size: 0x8, addend: 0x0, symName: __ZN4pyo35impl_7pyclass10tp_dealloc17haae63f60743886e5E, symObjAddr: 0x600, symBinAddr: 0x25C8, symSize: 0x34 }
  - { offsetInCU: 0x3BE8, offset: 0x6FC4, size: 0x8, addend: 0x0, symName: __ZN4pyo35impl_7pyclass10tp_dealloc17hacaafd282847f96fE, symObjAddr: 0x634, symBinAddr: 0x25FC, symSize: 0x34 }
  - { offsetInCU: 0x3C1B, offset: 0x6FF7, size: 0x8, addend: 0x0, symName: __ZN4pyo35impl_7pyclass10tp_dealloc17hbd6e0dc74b7a3bbaE, symObjAddr: 0x668, symBinAddr: 0x2630, symSize: 0x34 }
  - { offsetInCU: 0x3C4E, offset: 0x702A, size: 0x8, addend: 0x0, symName: __ZN4pyo35impl_7pyclass10tp_dealloc17hd6e05a2b36044b57E, symObjAddr: 0x69C, symBinAddr: 0x2664, symSize: 0x34 }
  - { offsetInCU: 0x3C81, offset: 0x705D, size: 0x8, addend: 0x0, symName: __ZN4pyo35impl_7pyclass10tp_dealloc17he2e1a3135cbec2e2E, symObjAddr: 0x6D0, symBinAddr: 0x2698, symSize: 0x34 }
  - { offsetInCU: 0x3CB4, offset: 0x7090, size: 0x8, addend: 0x0, symName: __ZN4pyo35impl_7pyclass10tp_dealloc17hf3ab56a06986297bE, symObjAddr: 0x704, symBinAddr: 0x26CC, symSize: 0x34 }
  - { offsetInCU: 0x3CE7, offset: 0x70C3, size: 0x8, addend: 0x0, symName: __ZN4pyo35impl_7pyclass12class_offset17h73248ae47c7fc0bfE, symObjAddr: 0x738, symBinAddr: 0x2700, symSize: 0xC }
  - { offsetInCU: 0x3D0F, offset: 0x70EB, size: 0x8, addend: 0x0, symName: __ZN4pyo35impl_7pyclass17field_from_object17h3ee47d2dd5b890c4E, symObjAddr: 0x744, symBinAddr: 0x270C, symSize: 0x40 }
  - { offsetInCU: 0x3D7E, offset: 0x715A, size: 0x8, addend: 0x0, symName: __ZN4pyo35impl_7pyclass17field_from_object17hbd86c40e479fe161E, symObjAddr: 0x784, symBinAddr: 0x274C, symSize: 0x40 }
  - { offsetInCU: 0x3DED, offset: 0x71C9, size: 0x8, addend: 0x0, symName: __ZN4pyo35impl_7pyclass17field_from_object17hf6e17580b0578414E, symObjAddr: 0x7C4, symBinAddr: 0x278C, symSize: 0x40 }
  - { offsetInCU: 0x3E5C, offset: 0x7238, size: 0x8, addend: 0x0, symName: __ZN4pyo35impl_7pyclass18tp_dealloc_with_gc17h0d65db92d3b5ceacE, symObjAddr: 0x804, symBinAddr: 0x27CC, symSize: 0x4C }
  - { offsetInCU: 0x3EAD, offset: 0x7289, size: 0x8, addend: 0x0, symName: __ZN4pyo35impl_7pyclass18tp_dealloc_with_gc17h1422f58377c49198E, symObjAddr: 0x850, symBinAddr: 0x2818, symSize: 0x4C }
  - { offsetInCU: 0x3EFE, offset: 0x72DA, size: 0x8, addend: 0x0, symName: __ZN4pyo35impl_7pyclass18tp_dealloc_with_gc17h1bac2ea38fcb6649E, symObjAddr: 0x89C, symBinAddr: 0x2864, symSize: 0x4C }
  - { offsetInCU: 0x3F4F, offset: 0x732B, size: 0x8, addend: 0x0, symName: __ZN4pyo35impl_7pyclass18tp_dealloc_with_gc17h2cccfc9cedc5d450E, symObjAddr: 0x8E8, symBinAddr: 0x28B0, symSize: 0x4C }
  - { offsetInCU: 0x3FA0, offset: 0x737C, size: 0x8, addend: 0x0, symName: __ZN4pyo35impl_7pyclass18tp_dealloc_with_gc17h2cd7e4a270eb00d2E, symObjAddr: 0x934, symBinAddr: 0x28FC, symSize: 0x4C }
  - { offsetInCU: 0x3FF1, offset: 0x73CD, size: 0x8, addend: 0x0, symName: __ZN4pyo35impl_7pyclass18tp_dealloc_with_gc17h32ab47c45b6ad8a5E, symObjAddr: 0x980, symBinAddr: 0x2948, symSize: 0x4C }
  - { offsetInCU: 0x4042, offset: 0x741E, size: 0x8, addend: 0x0, symName: __ZN4pyo35impl_7pyclass18tp_dealloc_with_gc17h467fd5bd30112e3cE, symObjAddr: 0x9CC, symBinAddr: 0x2994, symSize: 0x4C }
  - { offsetInCU: 0x4093, offset: 0x746F, size: 0x8, addend: 0x0, symName: __ZN4pyo35impl_7pyclass18tp_dealloc_with_gc17h4d449e9b743f1c08E, symObjAddr: 0xA18, symBinAddr: 0x29E0, symSize: 0x4C }
  - { offsetInCU: 0x40E4, offset: 0x74C0, size: 0x8, addend: 0x0, symName: __ZN4pyo35impl_7pyclass18tp_dealloc_with_gc17h863686ec879ad075E, symObjAddr: 0xA64, symBinAddr: 0x2A2C, symSize: 0x4C }
  - { offsetInCU: 0x4135, offset: 0x7511, size: 0x8, addend: 0x0, symName: __ZN4pyo35impl_7pyclass18tp_dealloc_with_gc17h88b61a39c177b23aE, symObjAddr: 0xAB0, symBinAddr: 0x2A78, symSize: 0x4C }
  - { offsetInCU: 0x4186, offset: 0x7562, size: 0x8, addend: 0x0, symName: __ZN4pyo35impl_7pyclass18tp_dealloc_with_gc17h9108b257dd9b70e3E, symObjAddr: 0xAFC, symBinAddr: 0x2AC4, symSize: 0x4C }
  - { offsetInCU: 0x41D7, offset: 0x75B3, size: 0x8, addend: 0x0, symName: __ZN4pyo35impl_7pyclass18tp_dealloc_with_gc17h99efd16d9a486710E, symObjAddr: 0xB48, symBinAddr: 0x2B10, symSize: 0x4C }
  - { offsetInCU: 0x4228, offset: 0x7604, size: 0x8, addend: 0x0, symName: __ZN4pyo35impl_7pyclass18tp_dealloc_with_gc17h9d207d35900489aaE, symObjAddr: 0xB94, symBinAddr: 0x2B5C, symSize: 0x4C }
  - { offsetInCU: 0x4279, offset: 0x7655, size: 0x8, addend: 0x0, symName: __ZN4pyo35impl_7pyclass18tp_dealloc_with_gc17ha88f169d28072612E, symObjAddr: 0xBE0, symBinAddr: 0x2BA8, symSize: 0x4C }
  - { offsetInCU: 0x42CA, offset: 0x76A6, size: 0x8, addend: 0x0, symName: __ZN4pyo35impl_7pyclass18tp_dealloc_with_gc17hb51040d979f5081fE, symObjAddr: 0xC2C, symBinAddr: 0x2BF4, symSize: 0x4C }
  - { offsetInCU: 0x431B, offset: 0x76F7, size: 0x8, addend: 0x0, symName: __ZN4pyo35impl_7pyclass18tp_dealloc_with_gc17he6828ec7a765ee27E, symObjAddr: 0xC78, symBinAddr: 0x2C40, symSize: 0x4C }
  - { offsetInCU: 0x436C, offset: 0x7748, size: 0x8, addend: 0x0, symName: __ZN4pyo35impl_7pyclass18tp_dealloc_with_gc17he7dbfd4fc8792fe2E, symObjAddr: 0xCC4, symBinAddr: 0x2C8C, symSize: 0x4C }
  - { offsetInCU: 0x43BD, offset: 0x7799, size: 0x8, addend: 0x0, symName: __ZN4pyo35impl_7pyclass18tp_dealloc_with_gc17hf4aae82a61df83c7E, symObjAddr: 0xD10, symBinAddr: 0x2CD8, symSize: 0x4C }
  - { offsetInCU: 0x440E, offset: 0x77EA, size: 0x8, addend: 0x0, symName: __ZN4pyo35impl_7pyclass23ensure_no_mutable_alias17hc6af578febb97daeE, symObjAddr: 0xD5C, symBinAddr: 0x2D24, symSize: 0x3C }
  - { offsetInCU: 0x4465, offset: 0x7841, size: 0x8, addend: 0x0, symName: __ZN4pyo35impl_7pyclass25PyClass__ge__SlotFragment6__ge__17hd49ce3b569274424E, symObjAddr: 0xD98, symBinAddr: 0x2D60, symSize: 0x6C }
  - { offsetInCU: 0x44DE, offset: 0x78BA, size: 0x8, addend: 0x0, symName: __ZN4pyo35impl_7pyclass25PyClass__ge__SlotFragment6__ge__17hf3b98247d819aec7E, symObjAddr: 0xE04, symBinAddr: 0x2DCC, symSize: 0x6C }
  - { offsetInCU: 0x455D, offset: 0x7939, size: 0x8, addend: 0x0, symName: __ZN4pyo35impl_7pyclass25PyClass__gt__SlotFragment6__gt__17h46987066811f22b1E, symObjAddr: 0xE70, symBinAddr: 0x2E38, symSize: 0x6C }
  - { offsetInCU: 0x45D6, offset: 0x79B2, size: 0x8, addend: 0x0, symName: __ZN4pyo35impl_7pyclass25PyClass__gt__SlotFragment6__gt__17h53c7d5c8fc3cd911E, symObjAddr: 0xEDC, symBinAddr: 0x2EA4, symSize: 0x6C }
  - { offsetInCU: 0x4655, offset: 0x7A31, size: 0x8, addend: 0x0, symName: __ZN4pyo35impl_7pyclass25PyClass__le__SlotFragment6__le__17h070b1aff27456cc5E, symObjAddr: 0xF48, symBinAddr: 0x2F10, symSize: 0x6C }
  - { offsetInCU: 0x46CE, offset: 0x7AAA, size: 0x8, addend: 0x0, symName: __ZN4pyo35impl_7pyclass25PyClass__le__SlotFragment6__le__17hd0f70c63a3c14406E, symObjAddr: 0xFB4, symBinAddr: 0x2F7C, symSize: 0x6C }
  - { offsetInCU: 0x474D, offset: 0x7B29, size: 0x8, addend: 0x0, symName: __ZN4pyo35impl_7pyclass25PyClass__lt__SlotFragment6__lt__17h1135b2da307bfdc2E, symObjAddr: 0x1020, symBinAddr: 0x2FE8, symSize: 0x6C }
  - { offsetInCU: 0x47C6, offset: 0x7BA2, size: 0x8, addend: 0x0, symName: __ZN4pyo35impl_7pyclass25PyClass__lt__SlotFragment6__lt__17h15a8475d3ef0d6f7E, symObjAddr: 0x108C, symBinAddr: 0x3054, symSize: 0x6C }
  - { offsetInCU: 0x4845, offset: 0x7C21, size: 0x8, addend: 0x0, symName: __ZN4pyo35impl_7pyclass25PyClass__ne__SlotFragment6__ne__17h3a702dbaaca756c6E, symObjAddr: 0x10F8, symBinAddr: 0x30C0, symSize: 0xC4 }
  - { offsetInCU: 0x48FA, offset: 0x7CD6, size: 0x8, addend: 0x0, symName: __ZN4pyo35impl_7pyclass25PyClass__ne__SlotFragment6__ne__17he1a94f83d3031404E, symObjAddr: 0x11BC, symBinAddr: 0x3184, symSize: 0xC4 }
  - { offsetInCU: 0x49B4, offset: 0x7D90, size: 0x8, addend: 0x0, symName: '__ZN4pyo35impl_7pyclass25PyClass__ne__SlotFragment6__ne__28_$u7b$$u7b$closure$u7d$$u7d$17ha0da7aa8aa5e7564E', symObjAddr: 0x1280, symBinAddr: 0x3248, symSize: 0x30 }
  - { offsetInCU: 0x4A0F, offset: 0x7DEB, size: 0x8, addend: 0x0, symName: '__ZN4pyo35impl_7pyclass25PyClass__ne__SlotFragment6__ne__28_$u7b$$u7b$closure$u7d$$u7d$17he816a10a28090efaE', symObjAddr: 0x12B0, symBinAddr: 0x3278, symSize: 0x30 }
  - { offsetInCU: 0x4E28, offset: 0x8204, size: 0x8, addend: 0x0, symName: __ZN4pyo35impl_7pyclass32pyo3_get_value_into_pyobject_ref17h052f58074cde4333E, symObjAddr: 0x1328, symBinAddr: 0x32F0, symSize: 0x1D8 }
  - { offsetInCU: 0x4F19, offset: 0x82F5, size: 0x8, addend: 0x0, symName: __ZN4pyo35impl_7pyclass32pyo3_get_value_into_pyobject_ref17h3578cb63e3f63d43E, symObjAddr: 0x1500, symBinAddr: 0x34C8, symSize: 0x1D8 }
  - { offsetInCU: 0x500A, offset: 0x83E6, size: 0x8, addend: 0x0, symName: __ZN4pyo35impl_7pyclass32pyo3_get_value_into_pyobject_ref17hb7530c1ea8f95ddcE, symObjAddr: 0x16D8, symBinAddr: 0x36A0, symSize: 0x1D8 }
  - { offsetInCU: 0x6021, offset: 0x93FD, size: 0x8, addend: 0x0, symName: '__ZN4pyo35impl_7pyclass29PyClassImplCollector$LT$T$GT$3new17h01376eeb3bf5d71cE', symObjAddr: 0x12E0, symBinAddr: 0x32A8, symSize: 0x4 }
  - { offsetInCU: 0x6509, offset: 0x98E5, size: 0x8, addend: 0x0, symName: '__ZN4pyo35impl_7pyclass29PyClassImplCollector$LT$T$GT$3new17h0be5c65d68b4fc52E', symObjAddr: 0x12E4, symBinAddr: 0x32AC, symSize: 0x4 }
  - { offsetInCU: 0x6556, offset: 0x9932, size: 0x8, addend: 0x0, symName: '__ZN4pyo35impl_7pyclass29PyClassImplCollector$LT$T$GT$3new17h0e4ceb1692b28eccE', symObjAddr: 0x12E8, symBinAddr: 0x32B0, symSize: 0x4 }
  - { offsetInCU: 0x6573, offset: 0x994F, size: 0x8, addend: 0x0, symName: '__ZN4pyo35impl_7pyclass29PyClassImplCollector$LT$T$GT$3new17h2991b26bd0fd076aE', symObjAddr: 0x12EC, symBinAddr: 0x32B4, symSize: 0x4 }
  - { offsetInCU: 0x66E9, offset: 0x9AC5, size: 0x8, addend: 0x0, symName: '__ZN4pyo35impl_7pyclass29PyClassImplCollector$LT$T$GT$3new17h2c6ec00ed91a5b05E', symObjAddr: 0x12F0, symBinAddr: 0x32B8, symSize: 0x4 }
  - { offsetInCU: 0x6D30, offset: 0xA10C, size: 0x8, addend: 0x0, symName: '__ZN4pyo35impl_7pyclass29PyClassImplCollector$LT$T$GT$3new17h2f1a09aa13e74f9fE', symObjAddr: 0x12F4, symBinAddr: 0x32BC, symSize: 0x4 }
  - { offsetInCU: 0x6D4D, offset: 0xA129, size: 0x8, addend: 0x0, symName: '__ZN4pyo35impl_7pyclass29PyClassImplCollector$LT$T$GT$3new17h355e60700cb24786E', symObjAddr: 0x12F8, symBinAddr: 0x32C0, symSize: 0x4 }
  - { offsetInCU: 0x6D6A, offset: 0xA146, size: 0x8, addend: 0x0, symName: '__ZN4pyo35impl_7pyclass29PyClassImplCollector$LT$T$GT$3new17h363aa0b0d57e384eE', symObjAddr: 0x12FC, symBinAddr: 0x32C4, symSize: 0x4 }
  - { offsetInCU: 0x6D87, offset: 0xA163, size: 0x8, addend: 0x0, symName: '__ZN4pyo35impl_7pyclass29PyClassImplCollector$LT$T$GT$3new17h3fb880fdbfe7c1e5E', symObjAddr: 0x1300, symBinAddr: 0x32C8, symSize: 0x4 }
  - { offsetInCU: 0x6DA4, offset: 0xA180, size: 0x8, addend: 0x0, symName: '__ZN4pyo35impl_7pyclass29PyClassImplCollector$LT$T$GT$3new17h4a27150e9daf97ebE', symObjAddr: 0x1304, symBinAddr: 0x32CC, symSize: 0x4 }
  - { offsetInCU: 0x6DC1, offset: 0xA19D, size: 0x8, addend: 0x0, symName: '__ZN4pyo35impl_7pyclass29PyClassImplCollector$LT$T$GT$3new17h50c600dba720cde2E', symObjAddr: 0x1308, symBinAddr: 0x32D0, symSize: 0x4 }
  - { offsetInCU: 0x6DDE, offset: 0xA1BA, size: 0x8, addend: 0x0, symName: '__ZN4pyo35impl_7pyclass29PyClassImplCollector$LT$T$GT$3new17h50d64bd12586742aE', symObjAddr: 0x130C, symBinAddr: 0x32D4, symSize: 0x4 }
  - { offsetInCU: 0x6DFB, offset: 0xA1D7, size: 0x8, addend: 0x0, symName: '__ZN4pyo35impl_7pyclass29PyClassImplCollector$LT$T$GT$3new17h777d5f28d2087fb6E', symObjAddr: 0x1310, symBinAddr: 0x32D8, symSize: 0x4 }
  - { offsetInCU: 0x6E18, offset: 0xA1F4, size: 0x8, addend: 0x0, symName: '__ZN4pyo35impl_7pyclass29PyClassImplCollector$LT$T$GT$3new17h98dcf588706af6e4E', symObjAddr: 0x1314, symBinAddr: 0x32DC, symSize: 0x4 }
  - { offsetInCU: 0x6E35, offset: 0xA211, size: 0x8, addend: 0x0, symName: '__ZN4pyo35impl_7pyclass29PyClassImplCollector$LT$T$GT$3new17ha56c220e679c8f27E', symObjAddr: 0x1318, symBinAddr: 0x32E0, symSize: 0x4 }
  - { offsetInCU: 0x6E52, offset: 0xA22E, size: 0x8, addend: 0x0, symName: '__ZN4pyo35impl_7pyclass29PyClassImplCollector$LT$T$GT$3new17hc7c11dfab1b28d59E', symObjAddr: 0x131C, symBinAddr: 0x32E4, symSize: 0x4 }
  - { offsetInCU: 0x6E6F, offset: 0xA24B, size: 0x8, addend: 0x0, symName: '__ZN4pyo35impl_7pyclass29PyClassImplCollector$LT$T$GT$3new17hd34d0d76be581e8aE', symObjAddr: 0x1320, symBinAddr: 0x32E8, symSize: 0x4 }
  - { offsetInCU: 0x6E8C, offset: 0xA268, size: 0x8, addend: 0x0, symName: '__ZN4pyo35impl_7pyclass29PyClassImplCollector$LT$T$GT$3new17hf42f518905becae0E', symObjAddr: 0x1324, symBinAddr: 0x32EC, symSize: 0x4 }
  - { offsetInCU: 0x6FFE, offset: 0xA3DA, size: 0x8, addend: 0x0, symName: '__ZN4pyo35impl_7pyclass66PyClassGetterGenerator$LT$ClassT$C$FieldT$C$Offset$C$_$C$_$C$_$GT$8generate17h2a4eaaf84b85a0e2E', symObjAddr: 0x18B0, symBinAddr: 0x3878, symSize: 0x78 }
  - { offsetInCU: 0x7090, offset: 0xA46C, size: 0x8, addend: 0x0, symName: '__ZN4pyo35impl_7pyclass66PyClassGetterGenerator$LT$ClassT$C$FieldT$C$Offset$C$_$C$_$C$_$GT$8generate17h48082de0d9cf1c6aE', symObjAddr: 0x1928, symBinAddr: 0x38F0, symSize: 0x78 }
  - { offsetInCU: 0x7122, offset: 0xA4FE, size: 0x8, addend: 0x0, symName: '__ZN4pyo35impl_7pyclass66PyClassGetterGenerator$LT$ClassT$C$FieldT$C$Offset$C$_$C$_$C$_$GT$8generate17hc8e5088de75ea435E', symObjAddr: 0x19A0, symBinAddr: 0x3968, symSize: 0x78 }
  - { offsetInCU: 0x1E, offset: 0xA70B, size: 0x8, addend: 0x0, symName: '__ZN7_native43_$LT$impl$u20$_native.._native..MakeDef$GT$8make_def15__pyo3_pymodule17hffec8799c90f4992E', symObjAddr: 0x0, symBinAddr: 0x39E0, symSize: 0x38 }
  - { offsetInCU: 0x1526, offset: 0xBC13, size: 0x8, addend: 0x0, symName: '__ZN7_native43_$LT$impl$u20$_native.._native..MakeDef$GT$8make_def15__pyo3_pymodule17hffec8799c90f4992E', symObjAddr: 0x0, symBinAddr: 0x39E0, symSize: 0x38 }
  - { offsetInCU: 0x1554, offset: 0xBC41, size: 0x8, addend: 0x0, symName: __ZN7_native7_native17hd1a2eb9cf0c38640E, symObjAddr: 0x38, symBinAddr: 0x3A18, symSize: 0x620 }
  - { offsetInCU: 0x1E, offset: 0xC6E5, size: 0x8, addend: 0x0, symName: __ZN4pyo35types8sequence16extract_sequence17h27b3e82096a74b5bE, symObjAddr: 0x0, symBinAddr: 0x4038, symSize: 0x3F8 }
  - { offsetInCU: 0x16C9, offset: 0xDD90, size: 0x8, addend: 0x0, symName: __ZN4pyo35types8sequence16extract_sequence17h27b3e82096a74b5bE, symObjAddr: 0x0, symBinAddr: 0x4038, symSize: 0x3F8 }
  - { offsetInCU: 0x1E, offset: 0xE911, size: 0x8, addend: 0x0, symName: '__ZN4core3ptr9const_ptr33_$LT$impl$u20$$BP$const$u20$T$GT$20offset_from_unsigned18precondition_check17h307f81efd259467eE', symObjAddr: 0x0, symBinAddr: 0x4430, symSize: 0x60 }
  - { offsetInCU: 0x44, offset: 0xE937, size: 0x8, addend: 0x0, symName: '__ZN4core3ptr9const_ptr33_$LT$impl$u20$$BP$const$u20$T$GT$20offset_from_unsigned18precondition_check17h307f81efd259467eE', symObjAddr: 0x0, symBinAddr: 0x4430, symSize: 0x60 }
  - { offsetInCU: 0x12D, offset: 0xEA20, size: 0x8, addend: 0x0, symName: '__ZN4core3ptr9const_ptr33_$LT$impl$u20$$BP$const$u20$T$GT$6offset18precondition_check17hd5de430f5aca7dc8E', symObjAddr: 0x60, symBinAddr: 0x4490, symSize: 0xC4 }
  - { offsetInCU: 0x1E, offset: 0xEE07, size: 0x8, addend: 0x0, symName: __ZN5numpy5array14clone_elements17h92c2d41439bd89ffE, symObjAddr: 0x0, symBinAddr: 0x4554, symSize: 0xB0 }
  - { offsetInCU: 0x13DE, offset: 0x101C7, size: 0x8, addend: 0x0, symName: __ZN5numpy5array14clone_elements17h92c2d41439bd89ffE, symObjAddr: 0x0, symBinAddr: 0x4554, symSize: 0xB0 }
  - { offsetInCU: 0x1DC8, offset: 0x10BB1, size: 0x8, addend: 0x0, symName: '__ZN5numpy5array20PyArray$LT$T$C$D$GT$10from_array17h54c5e811a3002380E', symObjAddr: 0xB0, symBinAddr: 0x4604, symSize: 0x24 }
  - { offsetInCU: 0x1E2E, offset: 0x10C17, size: 0x8, addend: 0x0, symName: '__ZN5numpy5array20PyArray$LT$T$C$D$GT$10new_uninit17h484f095c7ef9564bE', symObjAddr: 0xD4, symBinAddr: 0x4628, symSize: 0x118 }
  - { offsetInCU: 0x1F27, offset: 0x10D10, size: 0x8, addend: 0x0, symName: '__ZN5numpy5array20PyArray$LT$T$C$D$GT$10new_uninit17hcd51ff6a65a2424dE', symObjAddr: 0x1EC, symBinAddr: 0x4740, symSize: 0x170 }
  - { offsetInCU: 0x201E, offset: 0x10E07, size: 0x8, addend: 0x0, symName: '__ZN5numpy5array20PyArray$LT$T$C$D$GT$3new17h3a9f65e3550cff2dE', symObjAddr: 0x35C, symBinAddr: 0x48B0, symSize: 0xC8 }
  - { offsetInCU: 0x20C8, offset: 0x10EB1, size: 0x8, addend: 0x0, symName: '__ZN5numpy5array20PyArray$LT$T$C$D$GT$3new17hf71decaa7b0d38a6E', symObjAddr: 0x424, symBinAddr: 0x4978, symSize: 0xBC }
  - { offsetInCU: 0x21A7, offset: 0x10F90, size: 0x8, addend: 0x0, symName: '__ZN5numpy5array81PyArray$LT$T$C$ndarray..dimension..dim..Dim$LT$$u5b$usize$u3b$$u20$1$u5d$$GT$$GT$10from_slice17hbc4518a1ff9bab1aE', symObjAddr: 0x4E0, symBinAddr: 0x4A34, symSize: 0x108 }
  - { offsetInCU: 0x1E, offset: 0x11074, size: 0x8, addend: 0x0, symName: '__ZN81_$LT$nalgebra..base..dimension..Dyn$u20$as$u20$nalgebra..base..dimension..Dim$GT$5value17h912aee8ba0d2310dE', symObjAddr: 0x0, symBinAddr: 0x4B3C, symSize: 0x18 }
  - { offsetInCU: 0x3F, offset: 0x11095, size: 0x8, addend: 0x0, symName: '__ZN81_$LT$nalgebra..base..dimension..Dyn$u20$as$u20$nalgebra..base..dimension..Dim$GT$5value17h912aee8ba0d2310dE', symObjAddr: 0x0, symBinAddr: 0x4B3C, symSize: 0x18 }
  - { offsetInCU: 0x1E, offset: 0x1110C, size: 0x8, addend: 0x0, symName: __ZN8pyo3_ffi10boolobject7Py_True17h676a964434452828E, symObjAddr: 0x0, symBinAddr: 0x4B54, symSize: 0xC }
  - { offsetInCU: 0xF1, offset: 0x111DF, size: 0x8, addend: 0x0, symName: __ZN8pyo3_ffi10boolobject7Py_True17h676a964434452828E, symObjAddr: 0x0, symBinAddr: 0x4B54, symSize: 0xC }
  - { offsetInCU: 0x10E, offset: 0x111FC, size: 0x8, addend: 0x0, symName: __ZN8pyo3_ffi10boolobject8Py_False17hff27e3168632f094E, symObjAddr: 0xC, symBinAddr: 0x4B60, symSize: 0xC }
  - { offsetInCU: 0x1E, offset: 0x12684, size: 0x8, addend: 0x0, symName: __ZN4pyo35types14notimplemented16PyNotImplemented3get17h49428c9c9d7fb7e9E, symObjAddr: 0x0, symBinAddr: 0x4B6C, symSize: 0x2C }
  - { offsetInCU: 0x1791, offset: 0x13DF7, size: 0x8, addend: 0x0, symName: __ZN4pyo35types14notimplemented16PyNotImplemented3get17h49428c9c9d7fb7e9E, symObjAddr: 0x0, symBinAddr: 0x4B6C, symSize: 0x2C }
  - { offsetInCU: 0x1E, offset: 0x13E42, size: 0x8, addend: 0x0, symName: '__ZN4core3cmp5impls48_$LT$impl$u20$core..cmp..Ord$u20$for$u20$i64$GT$3cmp17he8ae09fc2e0c126dE', symObjAddr: 0x0, symBinAddr: 0x4B98, symSize: 0x38 }
  - { offsetInCU: 0x5D, offset: 0x13E81, size: 0x8, addend: 0x0, symName: '__ZN4core3cmp5impls48_$LT$impl$u20$core..cmp..Ord$u20$for$u20$i64$GT$3cmp17he8ae09fc2e0c126dE', symObjAddr: 0x0, symBinAddr: 0x4B98, symSize: 0x38 }
  - { offsetInCU: 0x1E, offset: 0x13EFB, size: 0x8, addend: 0x0, symName: '__ZN106_$LT$pyo3..impl_..extract_argument..NoVarargs$u20$as$u20$pyo3..impl_..extract_argument..VarargsHandler$GT$20handle_varargs_tuple17h37bbee77fc759925E', symObjAddr: 0x0, symBinAddr: 0x4BD0, symSize: 0xA0 }
  - { offsetInCU: 0x1945, offset: 0x15822, size: 0x8, addend: 0x0, symName: '__ZN106_$LT$pyo3..impl_..extract_argument..NoVarargs$u20$as$u20$pyo3..impl_..extract_argument..VarargsHandler$GT$20handle_varargs_tuple17h37bbee77fc759925E', symObjAddr: 0x0, symBinAddr: 0x4BD0, symSize: 0xA0 }
  - { offsetInCU: 0x19BE, offset: 0x1589B, size: 0x8, addend: 0x0, symName: '__ZN106_$LT$pyo3..impl_..extract_argument..NoVarargs$u20$as$u20$pyo3..impl_..extract_argument..VarargsHandler$GT$23handle_varargs_fastcall17h737fc1bd538b923dE', symObjAddr: 0xA0, symBinAddr: 0x4C70, symSize: 0xB4 }
  - { offsetInCU: 0x1A32, offset: 0x1590F, size: 0x8, addend: 0x0, symName: '__ZN114_$LT$pyo3..impl_..extract_argument..NoVarkeywords$u20$as$u20$pyo3..impl_..extract_argument..VarkeywordsHandler$GT$17handle_varkeyword17h8b143696719f6e7fE', symObjAddr: 0x154, symBinAddr: 0x4D24, symSize: 0x6C }
  - { offsetInCU: 0x1B71, offset: 0x15A4E, size: 0x8, addend: 0x0, symName: __ZN4pyo35impl_16extract_argument24unwrap_required_argument17h40dc63ec1fb45d5dE, symObjAddr: 0x574, symBinAddr: 0x5144, symSize: 0x58 }
  - { offsetInCU: 0x1EE4, offset: 0x15DC1, size: 0x8, addend: 0x0, symName: __ZN4pyo35impl_16extract_argument19FunctionDescription36find_keyword_parameter_in_positional17hd00d314b0588fdc1E, symObjAddr: 0x1C0, symBinAddr: 0x4D90, symSize: 0x5C }
  - { offsetInCU: 0x1F16, offset: 0x15DF3, size: 0x8, addend: 0x0, symName: __ZN4pyo35impl_16extract_argument19FunctionDescription38find_keyword_parameter_in_keyword_only17h998698d6f0103f8aE, symObjAddr: 0x21C, symBinAddr: 0x4DEC, symSize: 0x5C }
  - { offsetInCU: 0x2604, offset: 0x164E1, size: 0x8, addend: 0x0, symName: __ZN4pyo35impl_16extract_argument19FunctionDescription44ensure_no_missing_required_keyword_arguments17haa146df07fdd0ab1E, symObjAddr: 0x278, symBinAddr: 0x4E48, symSize: 0x160 }
  - { offsetInCU: 0x26D0, offset: 0x165AD, size: 0x8, addend: 0x0, symName: __ZN4pyo35impl_16extract_argument19FunctionDescription47ensure_no_missing_required_positional_arguments17heee1a7fa09a58ec1E, symObjAddr: 0x3D8, symBinAddr: 0x4FA8, symSize: 0x19C }
  - { offsetInCU: 0x1E, offset: 0x16742, size: 0x8, addend: 0x0, symName: '__ZN109_$LT$pyo3..types..dict..borrowed_iter..BorrowedDictIter$u20$as$u20$core..iter..traits..iterator..Iterator$GT$4next17h581751f940f38877E', symObjAddr: 0x0, symBinAddr: 0x519C, symSize: 0xE4 }
  - { offsetInCU: 0x1245, offset: 0x17969, size: 0x8, addend: 0x0, symName: '__ZN109_$LT$pyo3..types..dict..borrowed_iter..BorrowedDictIter$u20$as$u20$core..iter..traits..iterator..Iterator$GT$4next17h581751f940f38877E', symObjAddr: 0x0, symBinAddr: 0x519C, symSize: 0xE4 }
  - { offsetInCU: 0x1E, offset: 0x18084, size: 0x8, addend: 0x0, symName: '__ZN4core3fmt3num52_$LT$impl$u20$core..fmt..Debug$u20$for$u20$usize$GT$3fmt17h97f88e16fe7ae984E', symObjAddr: 0x0, symBinAddr: 0x5280, symSize: 0x90 }
  - { offsetInCU: 0xB9, offset: 0x1811F, size: 0x8, addend: 0x0, symName: '__ZN4core3fmt3num52_$LT$impl$u20$core..fmt..Debug$u20$for$u20$usize$GT$3fmt17h97f88e16fe7ae984E', symObjAddr: 0x0, symBinAddr: 0x5280, symSize: 0x90 }
  - { offsetInCU: 0x1E, offset: 0x18309, size: 0x8, addend: 0x0, symName: __ZN4core3fmt9Arguments17from_str_nonconst17h8a952ec58e8ee206E, symObjAddr: 0x0, symBinAddr: 0x5310, symSize: 0x28 }
  - { offsetInCU: 0x36A, offset: 0x18655, size: 0x8, addend: 0x0, symName: __ZN4core3fmt9Arguments17from_str_nonconst17h8a952ec58e8ee206E, symObjAddr: 0x0, symBinAddr: 0x5310, symSize: 0x28 }
  - { offsetInCU: 0x38D, offset: 0x18678, size: 0x8, addend: 0x0, symName: __ZN4core3fmt9Arguments8from_str17h3944cad45a19c63eE, symObjAddr: 0x28, symBinAddr: 0x5338, symSize: 0x20 }
  - { offsetInCU: 0x1E, offset: 0x186B9, size: 0x8, addend: 0x0, symName: '__ZN7ndarray3zip16Zip$LT$P$C$D$GT$13for_each_core17h0a5dff4333ad5aeeE', symObjAddr: 0x0, symBinAddr: 0x5358, symSize: 0x1B0 }
  - { offsetInCU: 0x2DA, offset: 0x18975, size: 0x8, addend: 0x0, symName: '__ZN7ndarray3zip30Zip$LT$$LP$P1$C$P2$RP$$C$D$GT$8for_each28_$u7b$$u7b$closure$u7d$$u7d$17h3762f656ff78f844E', symObjAddr: 0x2414, symBinAddr: 0x776C, symSize: 0x78 }
  - { offsetInCU: 0x377, offset: 0x18A12, size: 0x8, addend: 0x0, symName: '__ZN7ndarray3zip30Zip$LT$$LP$P1$C$P2$RP$$C$D$GT$8for_each28_$u7b$$u7b$closure$u7d$$u7d$17ha85c0adf0d7954d5E', symObjAddr: 0x248C, symBinAddr: 0x77E4, symSize: 0x4C }
  - { offsetInCU: 0x413, offset: 0x18AAE, size: 0x8, addend: 0x0, symName: '__ZN7ndarray3zip30Zip$LT$$LP$P1$C$P2$RP$$C$D$GT$8for_each28_$u7b$$u7b$closure$u7d$$u7d$17heef0b4555dffe4f9E', symObjAddr: 0x24D8, symBinAddr: 0x7830, symSize: 0x78 }
  - { offsetInCU: 0xD39, offset: 0x193D4, size: 0x8, addend: 0x0, symName: '__ZN7ndarray3zip16Zip$LT$P$C$D$GT$13for_each_core17h0a5dff4333ad5aeeE', symObjAddr: 0x0, symBinAddr: 0x5358, symSize: 0x1B0 }
  - { offsetInCU: 0xDF6, offset: 0x19491, size: 0x8, addend: 0x0, symName: '__ZN7ndarray3zip16Zip$LT$P$C$D$GT$13for_each_core17h2e7e14cfa0441431E', symObjAddr: 0x1B0, symBinAddr: 0x5508, symSize: 0x1C0 }
  - { offsetInCU: 0xE82, offset: 0x1951D, size: 0x8, addend: 0x0, symName: '__ZN7ndarray3zip16Zip$LT$P$C$D$GT$13for_each_core17h51d2187fbded8941E', symObjAddr: 0x370, symBinAddr: 0x56C8, symSize: 0x1C0 }
  - { offsetInCU: 0xF0E, offset: 0x195A9, size: 0x8, addend: 0x0, symName: '__ZN7ndarray3zip16Zip$LT$P$C$D$GT$21for_each_core_strided17h1c3f725fd8c80719E', symObjAddr: 0x530, symBinAddr: 0x5888, symSize: 0x134 }
  - { offsetInCU: 0xF89, offset: 0x19624, size: 0x8, addend: 0x0, symName: '__ZN7ndarray3zip16Zip$LT$P$C$D$GT$21for_each_core_strided17hd3dbe4d954b1ba85E', symObjAddr: 0x664, symBinAddr: 0x59BC, symSize: 0x134 }
  - { offsetInCU: 0x1004, offset: 0x1969F, size: 0x8, addend: 0x0, symName: '__ZN7ndarray3zip16Zip$LT$P$C$D$GT$21for_each_core_strided17hf771510215e86298E', symObjAddr: 0x798, symBinAddr: 0x5AF0, symSize: 0x134 }
  - { offsetInCU: 0x1103, offset: 0x1979E, size: 0x8, addend: 0x0, symName: '__ZN7ndarray3zip16Zip$LT$P$C$D$GT$23for_each_core_strided_c17h0a4b31a3cdc643e2E', symObjAddr: 0x8CC, symBinAddr: 0x5C24, symSize: 0x33C }
  - { offsetInCU: 0x12B0, offset: 0x1994B, size: 0x8, addend: 0x0, symName: '__ZN7ndarray3zip16Zip$LT$P$C$D$GT$23for_each_core_strided_c17h75d93bdcabf95807E', symObjAddr: 0xC08, symBinAddr: 0x5F60, symSize: 0x33C }
  - { offsetInCU: 0x145D, offset: 0x19AF8, size: 0x8, addend: 0x0, symName: '__ZN7ndarray3zip16Zip$LT$P$C$D$GT$23for_each_core_strided_c17hc13f075a2c6a5b9dE', symObjAddr: 0xF44, symBinAddr: 0x629C, symSize: 0x33C }
  - { offsetInCU: 0x160A, offset: 0x19CA5, size: 0x8, addend: 0x0, symName: '__ZN7ndarray3zip16Zip$LT$P$C$D$GT$23for_each_core_strided_f17h08ff20b5e9611287E', symObjAddr: 0x1280, symBinAddr: 0x65D8, symSize: 0x248 }
  - { offsetInCU: 0x179F, offset: 0x19E3A, size: 0x8, addend: 0x0, symName: '__ZN7ndarray3zip16Zip$LT$P$C$D$GT$23for_each_core_strided_f17h5278a2c2e98a2e5eE', symObjAddr: 0x14C8, symBinAddr: 0x6820, symSize: 0x248 }
  - { offsetInCU: 0x1934, offset: 0x19FCF, size: 0x8, addend: 0x0, symName: '__ZN7ndarray3zip16Zip$LT$P$C$D$GT$23for_each_core_strided_f17h83cc75fa23014a42E', symObjAddr: 0x1710, symBinAddr: 0x6A68, symSize: 0x248 }
  - { offsetInCU: 0x1AC9, offset: 0x1A164, size: 0x8, addend: 0x0, symName: '__ZN7ndarray3zip16Zip$LT$P$C$D$GT$24for_each_core_contiguous17h072def9666613950E', symObjAddr: 0x1958, symBinAddr: 0x6CB0, symSize: 0x13C }
  - { offsetInCU: 0x1BB1, offset: 0x1A24C, size: 0x8, addend: 0x0, symName: '__ZN7ndarray3zip16Zip$LT$P$C$D$GT$24for_each_core_contiguous17h375bed9653b050daE', symObjAddr: 0x1A94, symBinAddr: 0x6DEC, symSize: 0x13C }
  - { offsetInCU: 0x1C99, offset: 0x1A334, size: 0x8, addend: 0x0, symName: '__ZN7ndarray3zip16Zip$LT$P$C$D$GT$24for_each_core_contiguous17h9338fe3e4b603623E', symObjAddr: 0x1BD0, symBinAddr: 0x6F28, symSize: 0x13C }
  - { offsetInCU: 0x1DE4, offset: 0x1A47F, size: 0x8, addend: 0x0, symName: '__ZN7ndarray3zip16Zip$LT$P$C$D$GT$5inner17h3068c63958a3be32E', symObjAddr: 0x1D0C, symBinAddr: 0x7064, symSize: 0x228 }
  - { offsetInCU: 0x1EE0, offset: 0x1A57B, size: 0x8, addend: 0x0, symName: '__ZN7ndarray3zip16Zip$LT$P$C$D$GT$5inner17h6fb0850a8bfea2e9E', symObjAddr: 0x1F34, symBinAddr: 0x728C, symSize: 0x200 }
  - { offsetInCU: 0x1FCF, offset: 0x1A66A, size: 0x8, addend: 0x0, symName: '__ZN7ndarray3zip16Zip$LT$P$C$D$GT$5inner17hea184657f8755d12E', symObjAddr: 0x2134, symBinAddr: 0x748C, symSize: 0x228 }
  - { offsetInCU: 0x20B1, offset: 0x1A74C, size: 0x8, addend: 0x0, symName: '__ZN7ndarray3zip30Zip$LT$$LP$P1$C$P2$RP$$C$D$GT$8for_each17h04bf2633073e9c08E', symObjAddr: 0x235C, symBinAddr: 0x76B4, symSize: 0x3C }
  - { offsetInCU: 0x2108, offset: 0x1A7A3, size: 0x8, addend: 0x0, symName: '__ZN7ndarray3zip30Zip$LT$$LP$P1$C$P2$RP$$C$D$GT$8for_each17h4bc64e9f5aa0738eE', symObjAddr: 0x2398, symBinAddr: 0x76F0, symSize: 0x3C }
  - { offsetInCU: 0x215F, offset: 0x1A7FA, size: 0x8, addend: 0x0, symName: '__ZN7ndarray3zip30Zip$LT$$LP$P1$C$P2$RP$$C$D$GT$8for_each17h7d654e9c9386a6e5E', symObjAddr: 0x23D4, symBinAddr: 0x772C, symSize: 0x40 }
  - { offsetInCU: 0x1E, offset: 0x1A894, size: 0x8, addend: 0x0, symName: __ZN4pyo33gil8GILGuard6python17haf949cb69d764dcfE, symObjAddr: 0x0, symBinAddr: 0x78A8, symSize: 0x20 }
  - { offsetInCU: 0xCE, offset: 0x1A944, size: 0x8, addend: 0x0, symName: __ZN4pyo33gil8GILGuard6python17haf949cb69d764dcfE, symObjAddr: 0x0, symBinAddr: 0x78A8, symSize: 0x20 }
  - { offsetInCU: 0x1E, offset: 0x1A984, size: 0x8, addend: 0x0, symName: '__ZN150_$LT$nalgebra..base..default_allocator..DefaultAllocator$u20$as$u20$nalgebra..base..allocator..Allocator$LT$nalgebra..base..dimension..Dyn$C$C$GT$$GT$22allocate_from_iterator17h7bcb0c4a169a6b1cE', symObjAddr: 0x0, symBinAddr: 0x78C8, symSize: 0x164 }
  - { offsetInCU: 0x3F, offset: 0x1A9A5, size: 0x8, addend: 0x0, symName: '__ZN150_$LT$nalgebra..base..default_allocator..DefaultAllocator$u20$as$u20$nalgebra..base..allocator..Allocator$LT$nalgebra..base..dimension..Dyn$C$C$GT$$GT$22allocate_from_iterator17h7bcb0c4a169a6b1cE', symObjAddr: 0x0, symBinAddr: 0x78C8, symSize: 0x164 }
  - { offsetInCU: 0x1E, offset: 0x1ACDF, size: 0x8, addend: 0x0, symName: '__ZN75_$LT$usize$u20$as$u20$core..slice..index..SliceIndex$LT$$u5b$T$u5d$$GT$$GT$13get_unchecked18precondition_check17h1b047e74675c26c5E', symObjAddr: 0x0, symBinAddr: 0x7A2C, symSize: 0x60 }
  - { offsetInCU: 0x44, offset: 0x1AD05, size: 0x8, addend: 0x0, symName: '__ZN75_$LT$usize$u20$as$u20$core..slice..index..SliceIndex$LT$$u5b$T$u5d$$GT$$GT$13get_unchecked18precondition_check17h1b047e74675c26c5E', symObjAddr: 0x0, symBinAddr: 0x7A2C, symSize: 0x60 }
  - { offsetInCU: 0x1E, offset: 0x1ADB0, size: 0x8, addend: 0x0, symName: '__ZN93_$LT$core..ops..index_range..IndexRange$u20$as$u20$core..iter..traits..iterator..Iterator$GT$8try_fold17h24ea02b3c745bedeE', symObjAddr: 0x0, symBinAddr: 0x7A8C, symSize: 0x1AC }
  - { offsetInCU: 0x90B, offset: 0x1B69D, size: 0x8, addend: 0x0, symName: '__ZN93_$LT$core..ops..index_range..IndexRange$u20$as$u20$core..iter..traits..iterator..Iterator$GT$8try_fold17h24ea02b3c745bedeE', symObjAddr: 0x0, symBinAddr: 0x7A8C, symSize: 0x1AC }
  - { offsetInCU: 0x1E, offset: 0x1CF21, size: 0x8, addend: 0x0, symName: _PyInit__native, symObjAddr: 0x0, symBinAddr: 0x7C38, symSize: 0x34 }
  - { offsetInCU: 0x42, offset: 0x1CF45, size: 0x8, addend: 0x0, symName: __ZN7_native7_native9_PYO3_DEF17hc55d95f1cbaeb1a5E, symObjAddr: 0x90, symBinAddr: 0x7C0510, symSize: 0x0 }
  - { offsetInCU: 0x4F, offset: 0x1CF52, size: 0x8, addend: 0x0, symName: _PyInit__native, symObjAddr: 0x0, symBinAddr: 0x7C38, symSize: 0x34 }
  - { offsetInCU: 0x1E, offset: 0x1EF88, size: 0x8, addend: 0x0, symName: '__ZN111_$LT$T$u20$as$u20$pyo3..impl_..callback..IntoPyCallbackOutput$LT$$BP$mut$u20$pyo3_ffi..object..PyObject$GT$$GT$7convert17h3537945364a09d47E', symObjAddr: 0x0, symBinAddr: 0x7C6C, symSize: 0x60 }
  - { offsetInCU: 0x864, offset: 0x1F7CE, size: 0x8, addend: 0x0, symName: '__ZN50_$LT$T$u20$as$u20$core..convert..Into$LT$U$GT$$GT$4into17h0b95b4f0d907d6d0E', symObjAddr: 0x6D0, symBinAddr: 0x833C, symSize: 0x14 }
  - { offsetInCU: 0x8A5, offset: 0x1F80F, size: 0x8, addend: 0x0, symName: '__ZN50_$LT$T$u20$as$u20$core..convert..Into$LT$U$GT$$GT$4into17h3b849f0ddb943c0eE', symObjAddr: 0x6E4, symBinAddr: 0x8350, symSize: 0x20 }
  - { offsetInCU: 0x8E5, offset: 0x1F84F, size: 0x8, addend: 0x0, symName: '__ZN50_$LT$T$u20$as$u20$core..convert..Into$LT$U$GT$$GT$4into17h4620f416dba69060E', symObjAddr: 0x704, symBinAddr: 0x8370, symSize: 0x14 }
  - { offsetInCU: 0x926, offset: 0x1F890, size: 0x8, addend: 0x0, symName: '__ZN50_$LT$T$u20$as$u20$core..convert..Into$LT$U$GT$$GT$4into17h802a73ef46db3cbcE', symObjAddr: 0x718, symBinAddr: 0x8384, symSize: 0x14 }
  - { offsetInCU: 0x967, offset: 0x1F8D1, size: 0x8, addend: 0x0, symName: '__ZN50_$LT$T$u20$as$u20$core..convert..Into$LT$U$GT$$GT$4into17hb1062b3344887accE', symObjAddr: 0x72C, symBinAddr: 0x8398, symSize: 0x14 }
  - { offsetInCU: 0x9A8, offset: 0x1F912, size: 0x8, addend: 0x0, symName: '__ZN50_$LT$T$u20$as$u20$core..convert..Into$LT$U$GT$$GT$4into17he683e5bb7ddaa6f0E', symObjAddr: 0x740, symBinAddr: 0x83AC, symSize: 0x14 }
  - { offsetInCU: 0x29FC, offset: 0x21966, size: 0x8, addend: 0x0, symName: '__ZN111_$LT$T$u20$as$u20$pyo3..impl_..callback..IntoPyCallbackOutput$LT$$BP$mut$u20$pyo3_ffi..object..PyObject$GT$$GT$7convert17h3537945364a09d47E', symObjAddr: 0x0, symBinAddr: 0x7C6C, symSize: 0x60 }
  - { offsetInCU: 0x2A57, offset: 0x219C1, size: 0x8, addend: 0x0, symName: __ZN4pyo35impl_7pyclass11PyClassImpl11dict_offset17h59a8e51e9fa5f327E, symObjAddr: 0x670, symBinAddr: 0x82DC, symSize: 0x8 }
  - { offsetInCU: 0x2A7E, offset: 0x219E8, size: 0x8, addend: 0x0, symName: __ZN4pyo35impl_7pyclass11PyClassImpl11dict_offset17h6fffe712ed5da951E, symObjAddr: 0x678, symBinAddr: 0x82E4, symSize: 0x8 }
  - { offsetInCU: 0x2AA5, offset: 0x21A0F, size: 0x8, addend: 0x0, symName: __ZN4pyo35impl_7pyclass11PyClassImpl11dict_offset17h8dc17fb009ed652cE, symObjAddr: 0x680, symBinAddr: 0x82EC, symSize: 0x8 }
  - { offsetInCU: 0x2ACC, offset: 0x21A36, size: 0x8, addend: 0x0, symName: __ZN4pyo35impl_7pyclass11PyClassImpl11dict_offset17h935c91f875992818E, symObjAddr: 0x688, symBinAddr: 0x82F4, symSize: 0x8 }
  - { offsetInCU: 0x2AF3, offset: 0x21A5D, size: 0x8, addend: 0x0, symName: __ZN4pyo35impl_7pyclass11PyClassImpl11dict_offset17hbc01476019f6f8c3E, symObjAddr: 0x690, symBinAddr: 0x82FC, symSize: 0x8 }
  - { offsetInCU: 0x2B1A, offset: 0x21A84, size: 0x8, addend: 0x0, symName: __ZN4pyo35impl_7pyclass11PyClassImpl11dict_offset17hd285e1d17ef8d239E, symObjAddr: 0x698, symBinAddr: 0x8304, symSize: 0x8 }
  - { offsetInCU: 0x2B41, offset: 0x21AAB, size: 0x8, addend: 0x0, symName: __ZN4pyo35impl_7pyclass11PyClassImpl15weaklist_offset17h27de7c545529a1e9E, symObjAddr: 0x6A0, symBinAddr: 0x830C, symSize: 0x8 }
  - { offsetInCU: 0x2B68, offset: 0x21AD2, size: 0x8, addend: 0x0, symName: __ZN4pyo35impl_7pyclass11PyClassImpl15weaklist_offset17h47b023b5cbddc143E, symObjAddr: 0x6A8, symBinAddr: 0x8314, symSize: 0x8 }
  - { offsetInCU: 0x2B8F, offset: 0x21AF9, size: 0x8, addend: 0x0, symName: __ZN4pyo35impl_7pyclass11PyClassImpl15weaklist_offset17h64a0926ab5294ba1E, symObjAddr: 0x6B0, symBinAddr: 0x831C, symSize: 0x8 }
  - { offsetInCU: 0x2BB6, offset: 0x21B20, size: 0x8, addend: 0x0, symName: __ZN4pyo35impl_7pyclass11PyClassImpl15weaklist_offset17hb59cebeccec1bfc3E, symObjAddr: 0x6B8, symBinAddr: 0x8324, symSize: 0x8 }
  - { offsetInCU: 0x2BDD, offset: 0x21B47, size: 0x8, addend: 0x0, symName: __ZN4pyo35impl_7pyclass11PyClassImpl15weaklist_offset17hbfc93f3b565b27a8E, symObjAddr: 0x6C0, symBinAddr: 0x832C, symSize: 0x8 }
  - { offsetInCU: 0x2C04, offset: 0x21B6E, size: 0x8, addend: 0x0, symName: __ZN4pyo35impl_7pyclass11PyClassImpl15weaklist_offset17hccf3219ab6bcaa32E, symObjAddr: 0x6C8, symBinAddr: 0x8334, symSize: 0x8 }
  - { offsetInCU: 0x2CEB, offset: 0x21C55, size: 0x8, addend: 0x0, symName: '__ZN80_$LT$T$u20$as$u20$pyo3..impl_..extract_argument..PyFunctionArgument$LT$_$GT$$GT$7extract17h27fcab78ef8da2abE', symObjAddr: 0x14E8, symBinAddr: 0x9154, symSize: 0x28 }
  - { offsetInCU: 0x2D2A, offset: 0x21C94, size: 0x8, addend: 0x0, symName: '__ZN80_$LT$T$u20$as$u20$pyo3..impl_..extract_argument..PyFunctionArgument$LT$_$GT$$GT$7extract17h949887aa364e9ad3E', symObjAddr: 0x1510, symBinAddr: 0x917C, symSize: 0x28 }
  - { offsetInCU: 0x2D69, offset: 0x21CD3, size: 0x8, addend: 0x0, symName: '__ZN80_$LT$T$u20$as$u20$pyo3..impl_..extract_argument..PyFunctionArgument$LT$_$GT$$GT$7extract17hf1c4fa45baa86781E', symObjAddr: 0x1538, symBinAddr: 0x91A4, symSize: 0x28 }
  - { offsetInCU: 0x2DA8, offset: 0x21D12, size: 0x8, addend: 0x0, symName: '__ZN80_$LT$T$u20$as$u20$pyo3..impl_..extract_argument..PyFunctionArgument$LT$_$GT$$GT$7extract17hf88169bbe114eb91E', symObjAddr: 0x1560, symBinAddr: 0x91CC, symSize: 0x28 }
  - { offsetInCU: 0x2E33, offset: 0x21D9D, size: 0x8, addend: 0x0, symName: __ZN4pyo310conversion15IntoPyObjectExt11into_py_any17h2adf4e33847ad396E, symObjAddr: 0x60, symBinAddr: 0x7CCC, symSize: 0xCC }
  - { offsetInCU: 0x2EC0, offset: 0x21E2A, size: 0x8, addend: 0x0, symName: __ZN4pyo310conversion15IntoPyObjectExt17into_bound_py_any17h13ab18551a403e7fE, symObjAddr: 0x12C, symBinAddr: 0x7D98, symSize: 0xE4 }
  - { offsetInCU: 0x2F4D, offset: 0x21EB7, size: 0x8, addend: 0x0, symName: __ZN4pyo310conversion15IntoPyObjectExt17into_bound_py_any17h33800c241a8b82dfE, symObjAddr: 0x210, symBinAddr: 0x7E7C, symSize: 0xE4 }
  - { offsetInCU: 0x2FE0, offset: 0x21F4A, size: 0x8, addend: 0x0, symName: '__ZN52_$LT$T$u20$as$u20$pyo3..conversion..FromPyObject$GT$13extract_bound17h0375d70658fe092dE', symObjAddr: 0x754, symBinAddr: 0x83C0, symSize: 0x148 }
  - { offsetInCU: 0x308C, offset: 0x21FF6, size: 0x8, addend: 0x0, symName: '__ZN52_$LT$T$u20$as$u20$pyo3..conversion..FromPyObject$GT$13extract_bound17h7708ef477c91701aE', symObjAddr: 0x89C, symBinAddr: 0x8508, symSize: 0x154 }
  - { offsetInCU: 0x3138, offset: 0x220A2, size: 0x8, addend: 0x0, symName: '__ZN52_$LT$T$u20$as$u20$pyo3..conversion..FromPyObject$GT$13extract_bound17h99714e3968def7f0E', symObjAddr: 0x9F0, symBinAddr: 0x865C, symSize: 0x148 }
  - { offsetInCU: 0x31E4, offset: 0x2214E, size: 0x8, addend: 0x0, symName: '__ZN52_$LT$T$u20$as$u20$pyo3..conversion..FromPyObject$GT$13extract_bound17hdd10c4a8196ae1bdE', symObjAddr: 0xB38, symBinAddr: 0x87A4, symSize: 0x13C }
  - { offsetInCU: 0x3294, offset: 0x221FE, size: 0x8, addend: 0x0, symName: '__ZN57_$LT$T$u20$as$u20$pyo3..conversion..FromPyObjectBound$GT$20from_py_object_bound17h0b986ed48f65eebbE', symObjAddr: 0xD4C, symBinAddr: 0x89B8, symSize: 0x34 }
  - { offsetInCU: 0x32CB, offset: 0x22235, size: 0x8, addend: 0x0, symName: '__ZN57_$LT$T$u20$as$u20$pyo3..conversion..FromPyObjectBound$GT$20from_py_object_bound17h50d5e88f5a08e4d3E', symObjAddr: 0xD80, symBinAddr: 0x89EC, symSize: 0x34 }
  - { offsetInCU: 0x3302, offset: 0x2226C, size: 0x8, addend: 0x0, symName: '__ZN57_$LT$T$u20$as$u20$pyo3..conversion..FromPyObjectBound$GT$20from_py_object_bound17h5f76ac0d60e8a98eE', symObjAddr: 0xDB4, symBinAddr: 0x8A20, symSize: 0x34 }
  - { offsetInCU: 0x3339, offset: 0x222A3, size: 0x8, addend: 0x0, symName: '__ZN57_$LT$T$u20$as$u20$pyo3..conversion..FromPyObjectBound$GT$20from_py_object_bound17hdb12d37a77d6a2deE', symObjAddr: 0xDE8, symBinAddr: 0x8A54, symSize: 0x34 }
  - { offsetInCU: 0x337C, offset: 0x222E6, size: 0x8, addend: 0x0, symName: __ZN4pyo311type_object10PyTypeInfo10is_type_of17h3550ca8b0735033cE, symObjAddr: 0x2F4, symBinAddr: 0x7F60, symSize: 0x50 }
  - { offsetInCU: 0x33B1, offset: 0x2231B, size: 0x8, addend: 0x0, symName: __ZN4pyo311type_object10PyTypeInfo10is_type_of17h4e9360bc71b17ba0E, symObjAddr: 0x344, symBinAddr: 0x7FB0, symSize: 0x50 }
  - { offsetInCU: 0x33E6, offset: 0x22350, size: 0x8, addend: 0x0, symName: __ZN4pyo311type_object10PyTypeInfo10is_type_of17h79ebcbf721ddb4b8E, symObjAddr: 0x394, symBinAddr: 0x8000, symSize: 0x50 }
  - { offsetInCU: 0x341B, offset: 0x22385, size: 0x8, addend: 0x0, symName: __ZN4pyo311type_object10PyTypeInfo10is_type_of17ha9a6836b593f5a81E, symObjAddr: 0x3E4, symBinAddr: 0x8050, symSize: 0x50 }
  - { offsetInCU: 0x3450, offset: 0x223BA, size: 0x8, addend: 0x0, symName: __ZN4pyo311type_object10PyTypeInfo10is_type_of17hbfbabeb8b2421b1cE, symObjAddr: 0x434, symBinAddr: 0x80A0, symSize: 0x50 }
  - { offsetInCU: 0x3485, offset: 0x223EF, size: 0x8, addend: 0x0, symName: __ZN4pyo311type_object10PyTypeInfo10is_type_of17hd91d7e95cbe9229bE, symObjAddr: 0x484, symBinAddr: 0x80F0, symSize: 0x50 }
  - { offsetInCU: 0x34C0, offset: 0x2242A, size: 0x8, addend: 0x0, symName: '__ZN52_$LT$T$u20$as$u20$pyo3..type_object..PyTypeCheck$GT$10type_check17h498f93a09ad7c131E', symObjAddr: 0xC74, symBinAddr: 0x88E0, symSize: 0x24 }
  - { offsetInCU: 0x34F5, offset: 0x2245F, size: 0x8, addend: 0x0, symName: '__ZN52_$LT$T$u20$as$u20$pyo3..type_object..PyTypeCheck$GT$10type_check17h72699320394e743cE', symObjAddr: 0xC98, symBinAddr: 0x8904, symSize: 0x24 }
  - { offsetInCU: 0x352A, offset: 0x22494, size: 0x8, addend: 0x0, symName: '__ZN52_$LT$T$u20$as$u20$pyo3..type_object..PyTypeCheck$GT$10type_check17h75b68db84456e9adE', symObjAddr: 0xCBC, symBinAddr: 0x8928, symSize: 0x24 }
  - { offsetInCU: 0x355F, offset: 0x224C9, size: 0x8, addend: 0x0, symName: '__ZN52_$LT$T$u20$as$u20$pyo3..type_object..PyTypeCheck$GT$10type_check17ha6f467ac74df8427E', symObjAddr: 0xCE0, symBinAddr: 0x894C, symSize: 0x24 }
  - { offsetInCU: 0x3594, offset: 0x224FE, size: 0x8, addend: 0x0, symName: '__ZN52_$LT$T$u20$as$u20$pyo3..type_object..PyTypeCheck$GT$10type_check17hc303b1c79ecce910E', symObjAddr: 0xD04, symBinAddr: 0x8970, symSize: 0x24 }
  - { offsetInCU: 0x35C9, offset: 0x22533, size: 0x8, addend: 0x0, symName: '__ZN52_$LT$T$u20$as$u20$pyo3..type_object..PyTypeCheck$GT$10type_check17hf2bba00006b72512E', symObjAddr: 0xD28, symBinAddr: 0x8994, symSize: 0x24 }
  - { offsetInCU: 0x360A, offset: 0x22574, size: 0x8, addend: 0x0, symName: '__ZN4pyo312pyclass_init130_$LT$impl$u20$pyo3..impl_..callback..IntoPyCallbackOutput$LT$pyo3..pyclass_init..PyClassInitializer$LT$T$GT$$GT$$u20$for$u20$U$GT$7convert17h00e4f95a23a1ba97E', symObjAddr: 0x4D4, symBinAddr: 0x8140, symSize: 0x60 }
  - { offsetInCU: 0x3668, offset: 0x225D2, size: 0x8, addend: 0x0, symName: '__ZN4pyo312pyclass_init130_$LT$impl$u20$pyo3..impl_..callback..IntoPyCallbackOutput$LT$pyo3..pyclass_init..PyClassInitializer$LT$T$GT$$GT$$u20$for$u20$U$GT$7convert17h31852e3ba7741af8E', symObjAddr: 0x534, symBinAddr: 0x81A0, symSize: 0x68 }
  - { offsetInCU: 0x36C6, offset: 0x22630, size: 0x8, addend: 0x0, symName: '__ZN4pyo312pyclass_init130_$LT$impl$u20$pyo3..impl_..callback..IntoPyCallbackOutput$LT$pyo3..pyclass_init..PyClassInitializer$LT$T$GT$$GT$$u20$for$u20$U$GT$7convert17hb504b1890fd247b0E', symObjAddr: 0x59C, symBinAddr: 0x8208, symSize: 0x68 }
  - { offsetInCU: 0x3724, offset: 0x2268E, size: 0x8, addend: 0x0, symName: '__ZN4pyo312pyclass_init130_$LT$impl$u20$pyo3..impl_..callback..IntoPyCallbackOutput$LT$pyo3..pyclass_init..PyClassInitializer$LT$T$GT$$GT$$u20$for$u20$U$GT$7convert17hc710ae9623c7f47aE', symObjAddr: 0x604, symBinAddr: 0x8270, symSize: 0x6C }
  - { offsetInCU: 0x3FE8, offset: 0x22F52, size: 0x8, addend: 0x0, symName: '__ZN7_native7py_mnsl12PyMnslConfig20__pymethod___new____28_$u7b$$u7b$closure$u7d$$u7d$17h93404023da5e3303E', symObjAddr: 0xE1C, symBinAddr: 0x8A88, symSize: 0x18 }
  - { offsetInCU: 0x4010, offset: 0x22F7A, size: 0x8, addend: 0x0, symName: '__ZN7_native7py_mnsl12PyMnslConfig20__pymethod___new____28_$u7b$$u7b$closure$u7d$$u7d$17hb97636ba348f93e6E', symObjAddr: 0xE34, symBinAddr: 0x8AA0, symSize: 0x2C }
  - { offsetInCU: 0x4038, offset: 0x22FA2, size: 0x8, addend: 0x0, symName: '__ZN7_native7py_mnsl12PyMnslConfig20__pymethod___new____28_$u7b$$u7b$closure$u7d$$u7d$17he2ca783394d65097E', symObjAddr: 0xE60, symBinAddr: 0x8ACC, symSize: 0x1C }
  - { offsetInCU: 0x407B, offset: 0x22FE5, size: 0x8, addend: 0x0, symName: '__ZN7_native7py_mnsl12PyMnslConfig30__pymethod_set_set_top_array__28_$u7b$$u7b$closure$u7d$$u7d$17hc2779313d29b8674E', symObjAddr: 0xE7C, symBinAddr: 0x8AE8, symSize: 0x2C }
  - { offsetInCU: 0x40B0, offset: 0x2301A, size: 0x8, addend: 0x0, symName: '__ZN7_native7py_mnsl12PyMnslConfig33__pymethod_set_set_bottom_array__28_$u7b$$u7b$closure$u7d$$u7d$17h71ea4d86c920a523E', symObjAddr: 0xEA8, symBinAddr: 0x8B14, symSize: 0x2C }
  - { offsetInCU: 0x40E5, offset: 0x2304F, size: 0x8, addend: 0x0, symName: '__ZN7_native7py_mnsl12PyMnslConfig34__pymethod_set_set_separation_nm__28_$u7b$$u7b$closure$u7d$$u7d$17h053a999f361d77b6E', symObjAddr: 0xED4, symBinAddr: 0x8B40, symSize: 0x2C }
  - { offsetInCU: 0x411A, offset: 0x23084, size: 0x8, addend: 0x0, symName: '__ZN7_native7py_mnsl12PyMnslConfig34__pymethod_set_set_wavelength_nm__28_$u7b$$u7b$closure$u7d$$u7d$17h492b33b1ae9466c0E', symObjAddr: 0xF00, symBinAddr: 0x8B6C, symSize: 0x2C }
  - { offsetInCU: 0x4155, offset: 0x230BF, size: 0x8, addend: 0x0, symName: '__ZN7_native7py_mnsl12PyMnslConfig3new28_$u7b$$u7b$closure$u7d$$u7d$17h59ea2025a79ff7b1E', symObjAddr: 0xF2C, symBinAddr: 0x8B98, symSize: 0x30 }
  - { offsetInCU: 0x419F, offset: 0x23109, size: 0x8, addend: 0x0, symName: '__ZN7_native7py_mnsl12PyMnslEngine3new28_$u7b$$u7b$closure$u7d$$u7d$17he41d80ced74f4a68E', symObjAddr: 0xF5C, symBinAddr: 0x8BC8, symSize: 0xBC }
  - { offsetInCU: 0x423E, offset: 0x231A8, size: 0x8, addend: 0x0, symName: '__ZN7_native7py_mnsl12PyMnslResult11coordinates28_$u7b$$u7b$closure$u7d$$u7d$17h5ccc081b7f213172E', symObjAddr: 0x1018, symBinAddr: 0x8C84, symSize: 0x30 }
  - { offsetInCU: 0x427E, offset: 0x231E8, size: 0x8, addend: 0x0, symName: '__ZN7_native7py_mnsl12PyMnslResult11coordinates28_$u7b$$u7b$closure$u7d$$u7d$17h63800b0eed09d506E', symObjAddr: 0x1048, symBinAddr: 0x8CB4, symSize: 0x30 }
  - { offsetInCU: 0x42C4, offset: 0x2322E, size: 0x8, addend: 0x0, symName: '__ZN7_native7py_mnsl12PyMnslResult15cross_section_x28_$u7b$$u7b$closure$u7d$$u7d$17h932d57df13ad8923E', symObjAddr: 0x1078, symBinAddr: 0x8CE4, symSize: 0x6C }
  - { offsetInCU: 0x4350, offset: 0x232BA, size: 0x8, addend: 0x0, symName: '__ZN7_native7py_mnsl12PyMnslResult15cross_section_x28_$u7b$$u7b$closure$u7d$$u7d$17hdf8f6b2814aced6dE', symObjAddr: 0x10E4, symBinAddr: 0x8D50, symSize: 0x54 }
  - { offsetInCU: 0x43AA, offset: 0x23314, size: 0x8, addend: 0x0, symName: '__ZN7_native7py_mnsl12PyMnslResult15cross_section_y28_$u7b$$u7b$closure$u7d$$u7d$17h84756c18328acb32E', symObjAddr: 0x1138, symBinAddr: 0x8DA4, symSize: 0x54 }
  - { offsetInCU: 0x43FE, offset: 0x23368, size: 0x8, addend: 0x0, symName: '__ZN7_native7py_mnsl12PyMnslResult15cross_section_y28_$u7b$$u7b$closure$u7d$$u7d$17hef0a7034149d06aaE', symObjAddr: 0x118C, symBinAddr: 0x8DF8, symSize: 0x6C }
  - { offsetInCU: 0x4496, offset: 0x23400, size: 0x8, addend: 0x0, symName: '__ZN7_native7py_mnsl19PySubstrateCoupling20__pymethod___new____28_$u7b$$u7b$closure$u7d$$u7d$17h038f261185ec3338E', symObjAddr: 0x11F8, symBinAddr: 0x8E64, symSize: 0x14 }
  - { offsetInCU: 0x44BE, offset: 0x23428, size: 0x8, addend: 0x0, symName: '__ZN7_native7py_mnsl19PySubstrateCoupling20__pymethod___new____28_$u7b$$u7b$closure$u7d$$u7d$17ha3d6bc4ca72518e2E', symObjAddr: 0x120C, symBinAddr: 0x8E78, symSize: 0x18 }
  - { offsetInCU: 0x44FA, offset: 0x23464, size: 0x8, addend: 0x0, symName: '__ZN7_native7py_mnsl19PySubstrateCoupling37__pymethod_set_set_enable_nearfield__28_$u7b$$u7b$closure$u7d$$u7d$17h7e0603a9a7d95b94E', symObjAddr: 0x1224, symBinAddr: 0x8E90, symSize: 0x2C }
  - { offsetInCU: 0x452F, offset: 0x23499, size: 0x8, addend: 0x0, symName: '__ZN7_native7py_mnsl19PySubstrateCoupling38__pymethod_set_set_coupling_strength__28_$u7b$$u7b$closure$u7d$$u7d$17h8c8db4a3b79d45feE', symObjAddr: 0x1250, symBinAddr: 0x8EBC, symSize: 0x2C }
  - { offsetInCU: 0x456A, offset: 0x234D4, size: 0x8, addend: 0x0, symName: '__ZN7_native7py_mnsl23PyNanosphereArrayConfig20__pymethod___new____28_$u7b$$u7b$closure$u7d$$u7d$17h342b21acbbfe10f8E', symObjAddr: 0x127C, symBinAddr: 0x8EE8, symSize: 0x24 }
  - { offsetInCU: 0x4592, offset: 0x234FC, size: 0x8, addend: 0x0, symName: '__ZN7_native7py_mnsl23PyNanosphereArrayConfig20__pymethod___new____28_$u7b$$u7b$closure$u7d$$u7d$17h45fb142a8cdc5420E', symObjAddr: 0x12A0, symBinAddr: 0x8F0C, symSize: 0x24 }
  - { offsetInCU: 0x45BA, offset: 0x23524, size: 0x8, addend: 0x0, symName: '__ZN7_native7py_mnsl23PyNanosphereArrayConfig20__pymethod___new____28_$u7b$$u7b$closure$u7d$$u7d$17h6ab628a6e41a5c40E', symObjAddr: 0x12C4, symBinAddr: 0x8F30, symSize: 0x14 }
  - { offsetInCU: 0x45E2, offset: 0x2354C, size: 0x8, addend: 0x0, symName: '__ZN7_native7py_mnsl23PyNanosphereArrayConfig20__pymethod___new____28_$u7b$$u7b$closure$u7d$$u7d$17hb1d645caa3f2bb72E', symObjAddr: 0x12D8, symBinAddr: 0x8F44, symSize: 0x24 }
  - { offsetInCU: 0x462C, offset: 0x23596, size: 0x8, addend: 0x0, symName: '__ZN7_native7py_mnsl23PyNanosphereArrayConfig27__pymethod_set_set_n_imag__28_$u7b$$u7b$closure$u7d$$u7d$17h944129143126c7a1E', symObjAddr: 0x12FC, symBinAddr: 0x8F68, symSize: 0x2C }
  - { offsetInCU: 0x4661, offset: 0x235CB, size: 0x8, addend: 0x0, symName: '__ZN7_native7py_mnsl23PyNanosphereArrayConfig27__pymethod_set_set_n_real__28_$u7b$$u7b$closure$u7d$$u7d$17he1b6cbe88c37af98E', symObjAddr: 0x1328, symBinAddr: 0x8F94, symSize: 0x2C }
  - { offsetInCU: 0x4696, offset: 0x23600, size: 0x8, addend: 0x0, symName: '__ZN7_native7py_mnsl23PyNanosphereArrayConfig29__pymethod_set_set_pitch_nm__28_$u7b$$u7b$closure$u7d$$u7d$17h3c5fda73b1e30ce7E', symObjAddr: 0x1354, symBinAddr: 0x8FC0, symSize: 0x2C }
  - { offsetInCU: 0x46CB, offset: 0x23635, size: 0x8, addend: 0x0, symName: '__ZN7_native7py_mnsl23PyNanosphereArrayConfig32__pymethod_set_set_diameter_nm__28_$u7b$$u7b$closure$u7d$$u7d$17hf5ffac242be6cbb3E', symObjAddr: 0x1380, symBinAddr: 0x8FEC, symSize: 0x2C }
  - { offsetInCU: 0x4700, offset: 0x2366A, size: 0x8, addend: 0x0, symName: '__ZN7_native7py_mnsl23PyNanosphereArrayConfig36__pymethod_set_set_orientation_deg__28_$u7b$$u7b$closure$u7d$$u7d$17h6af06b78ea8c9871E', symObjAddr: 0x13AC, symBinAddr: 0x9018, symSize: 0x2C }
  - { offsetInCU: 0x473B, offset: 0x236A5, size: 0x8, addend: 0x0, symName: '__ZN7_native7py_mnsl23PyNanosphereArrayConfig3new28_$u7b$$u7b$closure$u7d$$u7d$17hb57e236103263f2bE', symObjAddr: 0x13D8, symBinAddr: 0x9044, symSize: 0x10 }
  - { offsetInCU: 0x477F, offset: 0x236E9, size: 0x8, addend: 0x0, symName: '__ZN7_native7py_mnsl26py_simulate_moire_emission28_$u7b$$u7b$closure$u7d$$u7d$17hf4cd80624dbed9c5E', symObjAddr: 0x13E8, symBinAddr: 0x9054, symSize: 0xBC }
  - { offsetInCU: 0x4818, offset: 0x23782, size: 0x8, addend: 0x0, symName: '__ZN7_native7py_mnsl39__pyfunction_py_simulate_moire_emission28_$u7b$$u7b$closure$u7d$$u7d$17h3f51d53a34b35ef9E', symObjAddr: 0x14A4, symBinAddr: 0x9110, symSize: 0x18 }
  - { offsetInCU: 0x4842, offset: 0x237AC, size: 0x8, addend: 0x0, symName: '__ZN7_native7py_mnsl39__pyfunction_py_simulate_moire_emission28_$u7b$$u7b$closure$u7d$$u7d$17ha772a8c60b319723E', symObjAddr: 0x14BC, symBinAddr: 0x9128, symSize: 0x18 }
  - { offsetInCU: 0x486C, offset: 0x237D6, size: 0x8, addend: 0x0, symName: '__ZN7_native7py_mnsl39__pyfunction_py_simulate_moire_emission28_$u7b$$u7b$closure$u7d$$u7d$17hc1200e93600fb9ccE', symObjAddr: 0x14D4, symBinAddr: 0x9140, symSize: 0x14 }
  - { offsetInCU: 0x48B6, offset: 0x23820, size: 0x8, addend: 0x0, symName: '__ZN84_$LT$_native..py_mnsl..PyMnslConfig$u20$as$u20$pyo3..impl_..pyclass..PyClassImpl$GT$3doc28_$u7b$$u7b$closure$u7d$$u7d$17hb79ca8bc679e6572E', symObjAddr: 0x1588, symBinAddr: 0x91F4, symSize: 0x54 }
  - { offsetInCU: 0x490E, offset: 0x23878, size: 0x8, addend: 0x0, symName: '__ZN84_$LT$_native..py_mnsl..PyMnslEngine$u20$as$u20$pyo3..impl_..pyclass..PyClassImpl$GT$3doc28_$u7b$$u7b$closure$u7d$$u7d$17hd0a8b20fd2d5b456E', symObjAddr: 0x15DC, symBinAddr: 0x9248, symSize: 0x54 }
  - { offsetInCU: 0x4969, offset: 0x238D3, size: 0x8, addend: 0x0, symName: '__ZN84_$LT$_native..py_mnsl..PyMnslResult$u20$as$u20$pyo3..impl_..pyclass..PyClassImpl$GT$3doc28_$u7b$$u7b$closure$u7d$$u7d$17he075bbdea07a372dE', symObjAddr: 0x1630, symBinAddr: 0x929C, symSize: 0x58 }
  - { offsetInCU: 0x49C4, offset: 0x2392E, size: 0x8, addend: 0x0, symName: '__ZN87_$LT$_native..py_mnsl..PySpherePacking$u20$as$u20$pyo3..impl_..pyclass..PyClassImpl$GT$3doc28_$u7b$$u7b$closure$u7d$$u7d$17h7d49dca26d511a22E', symObjAddr: 0x1688, symBinAddr: 0x92F4, symSize: 0x58 }
  - { offsetInCU: 0x4A1C, offset: 0x23986, size: 0x8, addend: 0x0, symName: '__ZN91_$LT$_native..py_mnsl..PySubstrateCoupling$u20$as$u20$pyo3..impl_..pyclass..PyClassImpl$GT$3doc28_$u7b$$u7b$closure$u7d$$u7d$17h53f69e21c512efadE', symObjAddr: 0x16E0, symBinAddr: 0x934C, symSize: 0x54 }
  - { offsetInCU: 0x4A74, offset: 0x239DE, size: 0x8, addend: 0x0, symName: '__ZN95_$LT$_native..py_mnsl..PyNanosphereArrayConfig$u20$as$u20$pyo3..impl_..pyclass..PyClassImpl$GT$3doc28_$u7b$$u7b$closure$u7d$$u7d$17hf31d0fc0107f5951E', symObjAddr: 0x1734, symBinAddr: 0x93A0, symSize: 0x54 }
  - { offsetInCU: 0x1E, offset: 0x24694, size: 0x8, addend: 0x0, symName: '__ZN7_native7_native11__pyo3_init28_$u7b$$u7b$closure$u7d$$u7d$17h422f5143cef6c9e4E', symObjAddr: 0x0, symBinAddr: 0x93F4, symSize: 0x30 }
  - { offsetInCU: 0x1455, offset: 0x25ACB, size: 0x8, addend: 0x0, symName: '__ZN7_native7_native11__pyo3_init28_$u7b$$u7b$closure$u7d$$u7d$17h422f5143cef6c9e4E', symObjAddr: 0x0, symBinAddr: 0x93F4, symSize: 0x30 }
  - { offsetInCU: 0x1E, offset: 0x263DC, size: 0x8, addend: 0x0, symName: '__ZN87_$LT$T$u20$as$u20$alloc..slice..$LT$impl$u20$$u5b$T$u5d$$GT$..to_vec_in..ConvertVec$GT$6to_vec17h7aeba4531b1088adE', symObjAddr: 0x0, symBinAddr: 0x9424, symSize: 0xFC }
  - { offsetInCU: 0x290, offset: 0x2664E, size: 0x8, addend: 0x0, symName: '__ZN87_$LT$T$u20$as$u20$alloc..slice..$LT$impl$u20$$u5b$T$u5d$$GT$..to_vec_in..ConvertVec$GT$6to_vec17h7aeba4531b1088adE', symObjAddr: 0x0, symBinAddr: 0x9424, symSize: 0xFC }
  - { offsetInCU: 0x1E, offset: 0x26C87, size: 0x8, addend: 0x0, symName: __ZN4core4sync6atomic11AtomicUsize3new17h2c9763c98875bd31E, symObjAddr: 0x0, symBinAddr: 0x9520, symSize: 0x18 }
  - { offsetInCU: 0x93, offset: 0x26CFC, size: 0x8, addend: 0x0, symName: __ZN4core4sync6atomic11AtomicUsize3new17h2c9763c98875bd31E, symObjAddr: 0x0, symBinAddr: 0x9520, symSize: 0x18 }
  - { offsetInCU: 0x1E, offset: 0x26D3D, size: 0x8, addend: 0x0, symName: '__ZN4core3ptr8non_null16NonNull$LT$T$GT$13new_unchecked18precondition_check17h63d58b7a839c98b8E', symObjAddr: 0x0, symBinAddr: 0x9538, symSize: 0x58 }
  - { offsetInCU: 0x44, offset: 0x26D63, size: 0x8, addend: 0x0, symName: '__ZN4core3ptr8non_null16NonNull$LT$T$GT$13new_unchecked18precondition_check17h63d58b7a839c98b8E', symObjAddr: 0x0, symBinAddr: 0x9538, symSize: 0x58 }
  - { offsetInCU: 0x1E, offset: 0x26E14, size: 0x8, addend: 0x0, symName: '__ZN4core3ptr7mut_ptr31_$LT$impl$u20$$BP$mut$u20$T$GT$6offset18precondition_check17hb7319e84a51d1b8fE', symObjAddr: 0x0, symBinAddr: 0x9590, symSize: 0xC4 }
  - { offsetInCU: 0xD4, offset: 0x26ECA, size: 0x8, addend: 0x0, symName: '__ZN4core3ptr7mut_ptr31_$LT$impl$u20$$BP$mut$u20$T$GT$6offset18precondition_check17hb7319e84a51d1b8fE', symObjAddr: 0x0, symBinAddr: 0x9590, symSize: 0xC4 }
  - { offsetInCU: 0x1E, offset: 0x272BD, size: 0x8, addend: 0x0, symName: __ZN4pyo310conversion15IntoPyObjectExt17into_bound_py_any17heb1d7f5bf61be259E, symObjAddr: 0x0, symBinAddr: 0x9654, symSize: 0xE4 }
  - { offsetInCU: 0x86B, offset: 0x27B0A, size: 0x8, addend: 0x0, symName: '__ZN50_$LT$T$u20$as$u20$core..convert..Into$LT$U$GT$$GT$4into17h80bc4560ff4eed75E', symObjAddr: 0x20C, symBinAddr: 0x9860, symSize: 0x14 }
  - { offsetInCU: 0x8AC, offset: 0x27B4B, size: 0x8, addend: 0x0, symName: '__ZN50_$LT$T$u20$as$u20$core..convert..Into$LT$U$GT$$GT$4into17hfa0633f7277426d3E', symObjAddr: 0x220, symBinAddr: 0x9874, symSize: 0x14 }
  - { offsetInCU: 0x284A, offset: 0x29AE9, size: 0x8, addend: 0x0, symName: __ZN4pyo310conversion15IntoPyObjectExt17into_bound_py_any17heb1d7f5bf61be259E, symObjAddr: 0x0, symBinAddr: 0x9654, symSize: 0xE4 }
  - { offsetInCU: 0x28E3, offset: 0x29B82, size: 0x8, addend: 0x0, symName: __ZN4pyo311type_object10PyTypeInfo10is_type_of17h0a729623467ced86E, symObjAddr: 0xE4, symBinAddr: 0x9738, symSize: 0x50 }
  - { offsetInCU: 0x2918, offset: 0x29BB7, size: 0x8, addend: 0x0, symName: __ZN4pyo311type_object10PyTypeInfo10is_type_of17h10c25a4c05e78596E, symObjAddr: 0x134, symBinAddr: 0x9788, symSize: 0x50 }
  - { offsetInCU: 0x2953, offset: 0x29BF2, size: 0x8, addend: 0x0, symName: '__ZN52_$LT$T$u20$as$u20$pyo3..type_object..PyTypeCheck$GT$10type_check17ha5b6c5b46ab3a55fE', symObjAddr: 0x234, symBinAddr: 0x9888, symSize: 0x24 }
  - { offsetInCU: 0x2988, offset: 0x29C27, size: 0x8, addend: 0x0, symName: '__ZN52_$LT$T$u20$as$u20$pyo3..type_object..PyTypeCheck$GT$10type_check17hcb27586608d3e6cdE', symObjAddr: 0x258, symBinAddr: 0x98AC, symSize: 0x24 }
  - { offsetInCU: 0x29C9, offset: 0x29C68, size: 0x8, addend: 0x0, symName: '__ZN4pyo312pyclass_init130_$LT$impl$u20$pyo3..impl_..callback..IntoPyCallbackOutput$LT$pyo3..pyclass_init..PyClassInitializer$LT$T$GT$$GT$$u20$for$u20$U$GT$7convert17h4060dc3e3eb1aee4E', symObjAddr: 0x184, symBinAddr: 0x97D8, symSize: 0x68 }
  - { offsetInCU: 0x2B72, offset: 0x29E11, size: 0x8, addend: 0x0, symName: __ZN4pyo35impl_7pyclass11PyClassImpl11dict_offset17h0d62995ba7f5db3cE, symObjAddr: 0x1EC, symBinAddr: 0x9840, symSize: 0x8 }
  - { offsetInCU: 0x2B99, offset: 0x29E38, size: 0x8, addend: 0x0, symName: __ZN4pyo35impl_7pyclass11PyClassImpl11dict_offset17h31e22994d3dc0b7cE, symObjAddr: 0x1F4, symBinAddr: 0x9848, symSize: 0x8 }
  - { offsetInCU: 0x2BC0, offset: 0x29E5F, size: 0x8, addend: 0x0, symName: __ZN4pyo35impl_7pyclass11PyClassImpl15weaklist_offset17h59422156fb92ce57E, symObjAddr: 0x1FC, symBinAddr: 0x9850, symSize: 0x8 }
  - { offsetInCU: 0x2BE7, offset: 0x29E86, size: 0x8, addend: 0x0, symName: __ZN4pyo35impl_7pyclass11PyClassImpl15weaklist_offset17hcaee41231214291eE, symObjAddr: 0x204, symBinAddr: 0x9858, symSize: 0x8 }
  - { offsetInCU: 0x2F60, offset: 0x2A1FF, size: 0x8, addend: 0x0, symName: '__ZN7_native8py_sweep16PyBatchSimulator13batch_defocus28_$u7b$$u7b$closure$u7d$$u7d$17h19089129af1f2172E', symObjAddr: 0x27C, symBinAddr: 0x98D0, symSize: 0x54 }
  - { offsetInCU: 0x2FA0, offset: 0x2A23F, size: 0x8, addend: 0x0, symName: '__ZN7_native8py_sweep16PyBatchSimulator13batch_defocus28_$u7b$$u7b$closure$u7d$$u7d$17h47d28537fea75cf1E', symObjAddr: 0x2D0, symBinAddr: 0x9924, symSize: 0x88 }
  - { offsetInCU: 0x3027, offset: 0x2A2C6, size: 0x8, addend: 0x0, symName: '__ZN7_native8py_sweep16PyBatchSimulator14process_window28_$u7b$$u7b$closure$u7d$$u7d$17h0804b79a77719085E', symObjAddr: 0x358, symBinAddr: 0x99AC, symSize: 0x6C }
  - { offsetInCU: 0x305E, offset: 0x2A2FD, size: 0x8, addend: 0x0, symName: '__ZN7_native8py_sweep16PyBatchSimulator14process_window28_$u7b$$u7b$closure$u7d$$u7d$17he4e8879911ae5efcE', symObjAddr: 0x3C4, symBinAddr: 0x9A18, symSize: 0x90 }
  - { offsetInCU: 0x30F9, offset: 0x2A398, size: 0x8, addend: 0x0, symName: '__ZN7_native8py_sweep16PyBatchSimulator3new28_$u7b$$u7b$closure$u7d$$u7d$17h3642d4863e7beec0E', symObjAddr: 0x4E0, symBinAddr: 0x9B34, symSize: 0x14 }
  - { offsetInCU: 0x312F, offset: 0x2A3CE, size: 0x8, addend: 0x0, symName: '__ZN7_native8py_sweep16PyBatchSimulator3new28_$u7b$$u7b$closure$u7d$$u7d$17h56135fa03b5d1648E', symObjAddr: 0x4F4, symBinAddr: 0x9B48, symSize: 0x6C }
  - { offsetInCU: 0x3180, offset: 0x2A41F, size: 0x8, addend: 0x0, symName: '__ZN7_native8py_sweep16PyBatchSimulator20__pymethod___new____28_$u7b$$u7b$closure$u7d$$u7d$17hcf3aced3243581dfE', symObjAddr: 0x454, symBinAddr: 0x9AA8, symSize: 0x28 }
  - { offsetInCU: 0x31A8, offset: 0x2A447, size: 0x8, addend: 0x0, symName: '__ZN7_native8py_sweep16PyBatchSimulator20__pymethod___new____28_$u7b$$u7b$closure$u7d$$u7d$17hd817710256d68233E', symObjAddr: 0x47C, symBinAddr: 0x9AD0, symSize: 0x18 }
  - { offsetInCU: 0x31E4, offset: 0x2A483, size: 0x8, addend: 0x0, symName: '__ZN7_native8py_sweep16PyBatchSimulator27__pymethod_process_window__28_$u7b$$u7b$closure$u7d$$u7d$17ha7ca05cb4bb44456E', symObjAddr: 0x494, symBinAddr: 0x9AE8, symSize: 0x14 }
  - { offsetInCU: 0x320C, offset: 0x2A4AB, size: 0x8, addend: 0x0, symName: '__ZN7_native8py_sweep16PyBatchSimulator27__pymethod_process_window__28_$u7b$$u7b$closure$u7d$$u7d$17hd0821882ca55c885E', symObjAddr: 0x4A8, symBinAddr: 0x9AFC, symSize: 0x1C }
  - { offsetInCU: 0x3234, offset: 0x2A4D3, size: 0x8, addend: 0x0, symName: '__ZN7_native8py_sweep16PyBatchSimulator27__pymethod_process_window__28_$u7b$$u7b$closure$u7d$$u7d$17hf97ea881a4f85d1aE', symObjAddr: 0x4C4, symBinAddr: 0x9B18, symSize: 0x1C }
  - { offsetInCU: 0x327D, offset: 0x2A51C, size: 0x8, addend: 0x0, symName: '__ZN89_$LT$_native..py_sweep..PyBatchSimulator$u20$as$u20$pyo3..impl_..pyclass..PyClassImpl$GT$3doc28_$u7b$$u7b$closure$u7d$$u7d$17he7b76139588312b0E', symObjAddr: 0x560, symBinAddr: 0x9BB4, symSize: 0x54 }
  - { offsetInCU: 0x32D5, offset: 0x2A574, size: 0x8, addend: 0x0, symName: '__ZN94_$LT$_native..py_sweep..PyProcessWindowResult$u20$as$u20$pyo3..impl_..pyclass..PyClassImpl$GT$3doc28_$u7b$$u7b$closure$u7d$$u7d$17hb5b9a3456c41d4f3E', symObjAddr: 0x5B4, symBinAddr: 0x9C08, symSize: 0x58 }
  - { offsetInCU: 0x1E, offset: 0x2BB02, size: 0x8, addend: 0x0, symName: '__ZN4pyo35types10boolobject65_$LT$impl$u20$pyo3..conversion..IntoPyObject$u20$for$u20$bool$GT$13into_pyobject17h82bc50170212eb7eE', symObjAddr: 0x0, symBinAddr: 0x9C60, symSize: 0x20 }
  - { offsetInCU: 0x1244, offset: 0x2CD28, size: 0x8, addend: 0x0, symName: '__ZN4pyo35types10boolobject65_$LT$impl$u20$pyo3..conversion..IntoPyObject$u20$for$u20$bool$GT$13into_pyobject17h82bc50170212eb7eE', symObjAddr: 0x0, symBinAddr: 0x9C60, symSize: 0x20 }
  - { offsetInCU: 0x1871, offset: 0x2D355, size: 0x8, addend: 0x0, symName: __ZN4pyo35types10boolobject6PyBool3new17h00d096b1155624d5E, symObjAddr: 0x20, symBinAddr: 0x9C80, symSize: 0x50 }
  - { offsetInCU: 0x1E, offset: 0x2D3AE, size: 0x8, addend: 0x0, symName: __ZN4core3fmt2rt8Argument9new_debug17hb4e273fc7d3caf56E, symObjAddr: 0x0, symBinAddr: 0x9CD0, symSize: 0x2C }
  - { offsetInCU: 0x8A6, offset: 0x2DC36, size: 0x8, addend: 0x0, symName: __ZN4core3fmt2rt8Argument9new_debug17hb4e273fc7d3caf56E, symObjAddr: 0x0, symBinAddr: 0x9CD0, symSize: 0x2C }
  - { offsetInCU: 0xA52, offset: 0x2DDE2, size: 0x8, addend: 0x0, symName: __ZN4core3fmt2rt8Argument9new_debug17he09540daa55a35a9E, symObjAddr: 0x2C, symBinAddr: 0x9CFC, symSize: 0x2C }
  - { offsetInCU: 0x1E, offset: 0x2DE2B, size: 0x8, addend: 0x0, symName: '__ZN76_$LT$ndarray..ArrayBase$LT$S$C$D$GT$$u20$as$u20$numpy..convert..ArrayExt$GT$11npy_strides17h7b92d23343ba596eE', symObjAddr: 0x0, symBinAddr: 0x9D28, symSize: 0x170 }
  - { offsetInCU: 0x15F9, offset: 0x2F406, size: 0x8, addend: 0x0, symName: '__ZN76_$LT$ndarray..ArrayBase$LT$S$C$D$GT$$u20$as$u20$numpy..convert..ArrayExt$GT$11npy_strides17h7b92d23343ba596eE', symObjAddr: 0x0, symBinAddr: 0x9D28, symSize: 0x170 }
  - { offsetInCU: 0x16AA, offset: 0x2F4B7, size: 0x8, addend: 0x0, symName: '__ZN76_$LT$ndarray..ArrayBase$LT$S$C$D$GT$$u20$as$u20$numpy..convert..ArrayExt$GT$5order17h4c46f7d8083cc914E', symObjAddr: 0x170, symBinAddr: 0x9E98, symSize: 0x11C }
  - { offsetInCU: 0x16F7, offset: 0x2F504, size: 0x8, addend: 0x0, symName: '__ZN77_$LT$ndarray..ArrayBase$LT$S$C$D$GT$$u20$as$u20$numpy..convert..ToPyArray$GT$10to_pyarray17hae605f9df6f5a220E', symObjAddr: 0x28C, symBinAddr: 0x9FB4, symSize: 0x3C0 }
  - { offsetInCU: 0x28EA, offset: 0x306F7, size: 0x8, addend: 0x0, symName: '__ZN7ndarray12impl_methods49_$LT$impl$u20$ndarray..ArrayBase$LT$S$C$D$GT$$GT$11map_inplace17h4405c2cb975bef13E', symObjAddr: 0x64C, symBinAddr: 0xA374, symSize: 0x170 }
  - { offsetInCU: 0x2B0A, offset: 0x30917, size: 0x8, addend: 0x0, symName: '__ZN7ndarray12impl_methods49_$LT$impl$u20$ndarray..ArrayBase$LT$S$C$D$GT$$GT$12zip_mut_with17hb900d4d7fe720366E', symObjAddr: 0x7BC, symBinAddr: 0xA4E4, symSize: 0x4F4 }
  - { offsetInCU: 0x2C73, offset: 0x30A80, size: 0x8, addend: 0x0, symName: '__ZN7ndarray12impl_methods49_$LT$impl$u20$ndarray..ArrayBase$LT$S$C$D$GT$$GT$13reversed_axes17h29fac8e3cda7cc3bE', symObjAddr: 0xCB0, symBinAddr: 0xA9D8, symSize: 0x98 }
  - { offsetInCU: 0x2CB2, offset: 0x30ABF, size: 0x8, addend: 0x0, symName: '__ZN7ndarray12impl_methods49_$LT$impl$u20$ndarray..ArrayBase$LT$S$C$D$GT$$GT$17zip_mut_with_elem17haffdf2e73b38bcbfE', symObjAddr: 0xD48, symBinAddr: 0xAA70, symSize: 0x30 }
  - { offsetInCU: 0x2D27, offset: 0x30B34, size: 0x8, addend: 0x0, symName: '__ZN7ndarray12impl_methods49_$LT$impl$u20$ndarray..ArrayBase$LT$S$C$D$GT$$GT$18is_standard_layout17h0dbc8d9b9d406a69E', symObjAddr: 0xD78, symBinAddr: 0xAAA0, symSize: 0x30 }
  - { offsetInCU: 0x2D72, offset: 0x30B7F, size: 0x8, addend: 0x0, symName: '__ZN7ndarray12impl_methods49_$LT$impl$u20$ndarray..ArrayBase$LT$S$C$D$GT$$GT$18is_standard_layout17hb6304ee1747c3ff3E', symObjAddr: 0xDA8, symBinAddr: 0xAAD0, symSize: 0x30 }
  - { offsetInCU: 0x2DF8, offset: 0x30C05, size: 0x8, addend: 0x0, symName: '__ZN7ndarray12impl_methods49_$LT$impl$u20$ndarray..ArrayBase$LT$S$C$D$GT$$GT$19pointer_is_inbounds17h826ff3d595391a61E', symObjAddr: 0xDD8, symBinAddr: 0xAB00, symSize: 0x38 }
  - { offsetInCU: 0x2F32, offset: 0x30D3F, size: 0x8, addend: 0x0, symName: '__ZN7ndarray12impl_methods49_$LT$impl$u20$ndarray..ArrayBase$LT$S$C$D$GT$$GT$23zip_mut_with_same_shape17h6e956f7f51b27cb4E', symObjAddr: 0xE10, symBinAddr: 0xAB38, symSize: 0x614 }
  - { offsetInCU: 0x3138, offset: 0x30F45, size: 0x8, addend: 0x0, symName: '__ZN7ndarray12impl_methods49_$LT$impl$u20$ndarray..ArrayBase$LT$S$C$D$GT$$GT$7strides17hb0fc2015ed1f05eaE', symObjAddr: 0x1424, symBinAddr: 0xB14C, symSize: 0x48 }
  - { offsetInCU: 0x3192, offset: 0x30F9F, size: 0x8, addend: 0x0, symName: '__ZN7ndarray12impl_methods49_$LT$impl$u20$ndarray..ArrayBase$LT$S$C$D$GT$$GT$8raw_view17h71f40d7a79112781E', symObjAddr: 0x146C, symBinAddr: 0xB194, symSize: 0xA4 }
  - { offsetInCU: 0x31E0, offset: 0x30FED, size: 0x8, addend: 0x0, symName: '__ZN7ndarray14impl_raw_views91_$LT$impl$u20$ndarray..ArrayBase$LT$ndarray..RawViewRepr$LT$$BP$const$u20$A$GT$$C$D$GT$$GT$3new17h0f9a26fc1dca3502E', symObjAddr: 0x1510, symBinAddr: 0xB238, symSize: 0xC4 }
  - { offsetInCU: 0x3246, offset: 0x31053, size: 0x8, addend: 0x0, symName: '__ZN7ndarray26impl_internal_constructors110_$LT$impl$u20$ndarray..ArrayBase$LT$S$C$ndarray..dimension..dim..Dim$LT$$u5b$usize$u3b$$u20$1$u5d$$GT$$GT$$GT$13from_data_ptr17he90a1d7c412d31b6E', symObjAddr: 0x15D4, symBinAddr: 0xB2FC, symSize: 0x15C }
  - { offsetInCU: 0x32D9, offset: 0x310E6, size: 0x8, addend: 0x0, symName: '__ZN7ndarray26impl_internal_constructors49_$LT$impl$u20$ndarray..ArrayBase$LT$S$C$D$GT$$GT$16with_strides_dim17h77af7f03fac9f91dE', symObjAddr: 0x1730, symBinAddr: 0xB458, symSize: 0x100 }
  - { offsetInCU: 0x3387, offset: 0x31194, size: 0x8, addend: 0x0, symName: '__ZN7ndarray6linalg11impl_linalg49_$LT$impl$u20$ndarray..ArrayBase$LT$S$C$D$GT$$GT$10scaled_add17h46288ead2a14b15dE', symObjAddr: 0x1830, symBinAddr: 0xB558, symSize: 0x30 }
  - { offsetInCU: 0x1E, offset: 0x3128C, size: 0x8, addend: 0x0, symName: __ZN7_native8py_sweep16PyBatchSimulator13batch_defocus17he0662740d9eb3a09E, symObjAddr: 0x0, symBinAddr: 0xB588, symSize: 0xD4 }
  - { offsetInCU: 0x4C, offset: 0x312BA, size: 0x8, addend: 0x0, symName: '__ZN7_native8py_sweep190_$LT$impl$u20$pyo3..impl_..pyclass..PyMethods$LT$_native..py_sweep..PyBatchSimulator$GT$$u20$for$u20$pyo3..impl_..pyclass..PyClassImplCollector$LT$_native..py_sweep..PyBatchSimulator$GT$$GT$10py_methods5ITEMS17hd3b5c997b8bad10dE', symObjAddr: 0x34E8, symBinAddr: 0x790BE8, symSize: 0x0 }
  - { offsetInCU: 0x5E, offset: 0x312CC, size: 0x8, addend: 0x0, symName: '__ZN7_native8py_sweep190_$LT$impl$u20$pyo3..impl_..pyclass..PyMethods$LT$_native..py_sweep..PyBatchSimulator$GT$$u20$for$u20$pyo3..impl_..pyclass..PyClassImplCollector$LT$_native..py_sweep..PyBatchSimulator$GT$$GT$10py_methods5ITEMS10trampoline17h3a5ae95f01f2ce36E', symObjAddr: 0x1C0C, symBinAddr: 0xD194, symSize: 0x50 }
  - { offsetInCU: 0xB4, offset: 0x31322, size: 0x8, addend: 0x0, symName: '__ZN7_native8py_sweep190_$LT$impl$u20$pyo3..impl_..pyclass..PyMethods$LT$_native..py_sweep..PyBatchSimulator$GT$$u20$for$u20$pyo3..impl_..pyclass..PyClassImplCollector$LT$_native..py_sweep..PyBatchSimulator$GT$$GT$10py_methods5ITEMS10trampoline17h99eb3b274c00ce5aE', symObjAddr: 0x1C5C, symBinAddr: 0xD1E4, symSize: 0x50 }
  - { offsetInCU: 0x10A, offset: 0x31378, size: 0x8, addend: 0x0, symName: '__ZN7_native8py_sweep190_$LT$impl$u20$pyo3..impl_..pyclass..PyMethods$LT$_native..py_sweep..PyBatchSimulator$GT$$u20$for$u20$pyo3..impl_..pyclass..PyClassImplCollector$LT$_native..py_sweep..PyBatchSimulator$GT$$GT$10py_methods5ITEMS10trampoline17hb34aca00f2b4e641E', symObjAddr: 0x1CAC, symBinAddr: 0xD234, symSize: 0x4C }
  - { offsetInCU: 0x16C, offset: 0x313DA, size: 0x8, addend: 0x0, symName: '__ZN7_native8py_sweep200_$LT$impl$u20$pyo3..impl_..pyclass..PyMethods$LT$_native..py_sweep..PyProcessWindowResult$GT$$u20$for$u20$pyo3..impl_..pyclass..PyClassImplCollector$LT$_native..py_sweep..PyProcessWindowResult$GT$$GT$10py_methods5ITEMS17h5881c08b743f5081E', symObjAddr: 0x3658, symBinAddr: 0x790D58, symSize: 0x0 }
  - { offsetInCU: 0x17E, offset: 0x313EC, size: 0x8, addend: 0x0, symName: '__ZN7_native8py_sweep200_$LT$impl$u20$pyo3..impl_..pyclass..PyMethods$LT$_native..py_sweep..PyProcessWindowResult$GT$$u20$for$u20$pyo3..impl_..pyclass..PyClassImplCollector$LT$_native..py_sweep..PyProcessWindowResult$GT$$GT$10py_methods5ITEMS10trampoline17h0c22997835a39610E', symObjAddr: 0x1CF8, symBinAddr: 0xD280, symSize: 0x44 }
  - { offsetInCU: 0x1B8, offset: 0x31426, size: 0x8, addend: 0x0, symName: '__ZN7_native8py_sweep200_$LT$impl$u20$pyo3..impl_..pyclass..PyMethods$LT$_native..py_sweep..PyProcessWindowResult$GT$$u20$for$u20$pyo3..impl_..pyclass..PyClassImplCollector$LT$_native..py_sweep..PyProcessWindowResult$GT$$GT$10py_methods5ITEMS10trampoline17h8c29a1b9fbb7ea74E', symObjAddr: 0x1D3C, symBinAddr: 0xD2C4, symSize: 0x44 }
  - { offsetInCU: 0x1F2, offset: 0x31460, size: 0x8, addend: 0x0, symName: '__ZN7_native8py_sweep200_$LT$impl$u20$pyo3..impl_..pyclass..PyMethods$LT$_native..py_sweep..PyProcessWindowResult$GT$$u20$for$u20$pyo3..impl_..pyclass..PyClassImplCollector$LT$_native..py_sweep..PyProcessWindowResult$GT$$GT$10py_methods5ITEMS10trampoline17hf724972d0fe91b7aE', symObjAddr: 0x1D80, symBinAddr: 0xD308, symSize: 0x3C }
  - { offsetInCU: 0x238, offset: 0x314A6, size: 0x8, addend: 0x0, symName: '__ZN89_$LT$_native..py_sweep..PyBatchSimulator$u20$as$u20$pyo3..impl_..pyclass..PyClassImpl$GT$10items_iter15INTRINSIC_ITEMS17h2170b7b3e6449a78E', symObjAddr: 0x3730, symBinAddr: 0x6A6740, symSize: 0x0 }
  - { offsetInCU: 0x258, offset: 0x314C6, size: 0x8, addend: 0x0, symName: '__ZN89_$LT$_native..py_sweep..PyBatchSimulator$u20$as$u20$pyo3..impl_..pyclass..PyClassImpl$GT$16lazy_type_object11TYPE_OBJECT17hc8aeecc73feaa1a2E', symObjAddr: 0x3788, symBinAddr: 0x7C05A0, symSize: 0x0 }
  - { offsetInCU: 0x278, offset: 0x314E6, size: 0x8, addend: 0x0, symName: '__ZN89_$LT$_native..py_sweep..PyBatchSimulator$u20$as$u20$pyo3..impl_..pyclass..PyClassImpl$GT$3doc3DOC17h8a69f29530cfcf4fE', symObjAddr: 0x37E8, symBinAddr: 0x7C0600, symSize: 0x0 }
  - { offsetInCU: 0x286, offset: 0x314F4, size: 0x8, addend: 0x0, symName: '__ZN89_$LT$_native..py_sweep..PyBatchSimulator$u20$as$u20$pyo3..impl_..pyclass..PyClassImpl$GT$10items_iter17h2541e2ecb02e88b6E', symObjAddr: 0x2884, symBinAddr: 0xDE0C, symSize: 0x38 }
  - { offsetInCU: 0x2C1, offset: 0x3152F, size: 0x8, addend: 0x0, symName: '__ZN89_$LT$_native..py_sweep..PyBatchSimulator$u20$as$u20$pyo3..impl_..pyclass..PyClassImpl$GT$16lazy_type_object17h6ae34514fe91131aE', symObjAddr: 0x28BC, symBinAddr: 0xDE44, symSize: 0xC }
  - { offsetInCU: 0x2DE, offset: 0x3154C, size: 0x8, addend: 0x0, symName: '__ZN89_$LT$_native..py_sweep..PyBatchSimulator$u20$as$u20$pyo3..impl_..pyclass..PyClassImpl$GT$3doc17hf4e485da55bd7122E', symObjAddr: 0x28C8, symBinAddr: 0xDE50, symSize: 0x3C }
  - { offsetInCU: 0x44D, offset: 0x316BB, size: 0x8, addend: 0x0, symName: '__ZN94_$LT$_native..py_sweep..PyProcessWindowResult$u20$as$u20$pyo3..impl_..pyclass..PyClassImpl$GT$10items_iter15INTRINSIC_ITEMS17hb90de99e3c1d5303E', symObjAddr: 0x3750, symBinAddr: 0x6A6760, symSize: 0x0 }
  - { offsetInCU: 0x46D, offset: 0x316DB, size: 0x8, addend: 0x0, symName: '__ZN94_$LT$_native..py_sweep..PyProcessWindowResult$u20$as$u20$pyo3..impl_..pyclass..PyClassImpl$GT$16lazy_type_object11TYPE_OBJECT17hac1224093df54498E', symObjAddr: 0x3808, symBinAddr: 0x7C0620, symSize: 0x0 }
  - { offsetInCU: 0x48D, offset: 0x316FB, size: 0x8, addend: 0x0, symName: '__ZN94_$LT$_native..py_sweep..PyProcessWindowResult$u20$as$u20$pyo3..impl_..pyclass..PyClassImpl$GT$3doc3DOC17h13b3ab0d3d6d31d5E', symObjAddr: 0x3868, symBinAddr: 0x7C0680, symSize: 0x0 }
  - { offsetInCU: 0x49B, offset: 0x31709, size: 0x8, addend: 0x0, symName: '__ZN94_$LT$_native..py_sweep..PyProcessWindowResult$u20$as$u20$pyo3..impl_..pyclass..PyClassImpl$GT$10items_iter17h817897727f74e239E', symObjAddr: 0x2968, symBinAddr: 0xDEF0, symSize: 0x38 }
  - { offsetInCU: 0x4D6, offset: 0x31744, size: 0x8, addend: 0x0, symName: '__ZN94_$LT$_native..py_sweep..PyProcessWindowResult$u20$as$u20$pyo3..impl_..pyclass..PyClassImpl$GT$16lazy_type_object17h0e6a86ee0e3ad489E', symObjAddr: 0x29A0, symBinAddr: 0xDF28, symSize: 0xC }
  - { offsetInCU: 0x4F3, offset: 0x31761, size: 0x8, addend: 0x0, symName: '__ZN94_$LT$_native..py_sweep..PyProcessWindowResult$u20$as$u20$pyo3..impl_..pyclass..PyClassImpl$GT$3doc17h18d5b432bd7071d4E', symObjAddr: 0x29AC, symBinAddr: 0xDF34, symSize: 0x3C }
  - { offsetInCU: 0x66E, offset: 0x318DC, size: 0x8, addend: 0x0, symName: '__ZN85_$LT$_native..py_sweep..PyBatchSimulator$u20$as$u20$pyo3..type_object..PyTypeInfo$GT$15type_object_raw17h6fbcadd33ae03304E', symObjAddr: 0x2860, symBinAddr: 0xDDE8, symSize: 0x24 }
  - { offsetInCU: 0x6AB, offset: 0x31919, size: 0x8, addend: 0x0, symName: '__ZN90_$LT$_native..py_sweep..PyProcessWindowResult$u20$as$u20$pyo3..type_object..PyTypeInfo$GT$15type_object_raw17h68872b46e48c634fE', symObjAddr: 0x2904, symBinAddr: 0xDE8C, symSize: 0x24 }
  - { offsetInCU: 0x6E8, offset: 0x31956, size: 0x8, addend: 0x0, symName: '__ZN91_$LT$_native..py_sweep..PyProcessWindowResult$u20$as$u20$pyo3..conversion..IntoPyObject$GT$13into_pyobject17h5d71f8a29c8705fbE', symObjAddr: 0x2928, symBinAddr: 0xDEB0, symSize: 0x40 }
  - { offsetInCU: 0x563A, offset: 0x368A8, size: 0x8, addend: 0x0, symName: __ZN7_native8py_sweep16PyBatchSimulator13batch_defocus17he0662740d9eb3a09E, symObjAddr: 0x0, symBinAddr: 0xB588, symSize: 0xD4 }
  - { offsetInCU: 0x56A1, offset: 0x3690F, size: 0x8, addend: 0x0, symName: __ZN7_native8py_sweep16PyBatchSimulator14process_window17h7cace64d74b88298E, symObjAddr: 0xD4, symBinAddr: 0xB65C, symSize: 0x1B4 }
  - { offsetInCU: 0x5766, offset: 0x369D4, size: 0x8, addend: 0x0, symName: __ZN7_native8py_sweep16PyBatchSimulator20__pymethod___new____17h04671d4ad9952e9fE, symObjAddr: 0x288, symBinAddr: 0xB810, symSize: 0x9C0 }
  - { offsetInCU: 0x5A00, offset: 0x36C6E, size: 0x8, addend: 0x0, symName: __ZN7_native8py_sweep16PyBatchSimulator26__pymethod_batch_defocus__17h1d1dc6552f931811E, symObjAddr: 0xC48, symBinAddr: 0xC1D0, symSize: 0x430 }
  - { offsetInCU: 0x5B93, offset: 0x36E01, size: 0x8, addend: 0x0, symName: __ZN7_native8py_sweep16PyBatchSimulator27__pymethod_process_window__17ha0e2c28cc7184c14E, symObjAddr: 0x1078, symBinAddr: 0xC600, symSize: 0x938 }
  - { offsetInCU: 0x5E58, offset: 0x370C6, size: 0x8, addend: 0x0, symName: __ZN7_native8py_sweep16PyBatchSimulator3new17h4d7b075ad012c4dcE, symObjAddr: 0x19B0, symBinAddr: 0xCF38, symSize: 0x25C }
  - { offsetInCU: 0x5F1E, offset: 0x3718C, size: 0x8, addend: 0x0, symName: __ZN7_native8py_sweep21PyProcessWindowResult14depth_of_focus17hb8d8134523e314e6E, symObjAddr: 0x1DBC, symBinAddr: 0xD344, symSize: 0x24 }
  - { offsetInCU: 0x5F40, offset: 0x371AE, size: 0x8, addend: 0x0, symName: __ZN7_native8py_sweep21PyProcessWindowResult17exposure_latitude17h03eb25e78bef8893E, symObjAddr: 0x1DE0, symBinAddr: 0xD368, symSize: 0x24 }
  - { offsetInCU: 0x5F62, offset: 0x371D0, size: 0x8, addend: 0x0, symName: __ZN7_native8py_sweep21PyProcessWindowResult21__pymethod___repr____17h3931c78363a60319E, symObjAddr: 0x1E04, symBinAddr: 0xD38C, symSize: 0x178 }
  - { offsetInCU: 0x601C, offset: 0x3728A, size: 0x8, addend: 0x0, symName: __ZN7_native8py_sweep21PyProcessWindowResult22__pymethod_get_doses__17h5858d88f966764d3E, symObjAddr: 0x1F7C, symBinAddr: 0xD504, symSize: 0x134 }
  - { offsetInCU: 0x60AA, offset: 0x37318, size: 0x8, addend: 0x0, symName: __ZN7_native8py_sweep21PyProcessWindowResult24__pymethod_get_focuses__17h517c82e3826f541bE, symObjAddr: 0x20B0, symBinAddr: 0xD638, symSize: 0x134 }
  - { offsetInCU: 0x6138, offset: 0x373A6, size: 0x8, addend: 0x0, symName: __ZN7_native8py_sweep21PyProcessWindowResult26__pymethod_get_cd_matrix__17hf103653a87250935E, symObjAddr: 0x21E4, symBinAddr: 0xD76C, symSize: 0x134 }
  - { offsetInCU: 0x61C6, offset: 0x37434, size: 0x8, addend: 0x0, symName: __ZN7_native8py_sweep21PyProcessWindowResult27__pymethod_depth_of_focus__17hf5e4a885ba8444d3E, symObjAddr: 0x2318, symBinAddr: 0xD8A0, symSize: 0x214 }
  - { offsetInCU: 0x62B6, offset: 0x37524, size: 0x8, addend: 0x0, symName: __ZN7_native8py_sweep21PyProcessWindowResult30__pymethod_exposure_latitude__17heca7c1c280b9ace4E, symObjAddr: 0x252C, symBinAddr: 0xDAB4, symSize: 0x214 }
  - { offsetInCU: 0x63B3, offset: 0x37621, size: 0x8, addend: 0x0, symName: __ZN7_native8py_sweep21PyProcessWindowResult5doses17h5807e73e11e299a2E, symObjAddr: 0x2740, symBinAddr: 0xDCC8, symSize: 0x28 }
  - { offsetInCU: 0x63EE, offset: 0x3765C, size: 0x8, addend: 0x0, symName: __ZN7_native8py_sweep21PyProcessWindowResult7focuses17h18f88cf45f90fd45E, symObjAddr: 0x2768, symBinAddr: 0xDCF0, symSize: 0x28 }
  - { offsetInCU: 0x6429, offset: 0x37697, size: 0x8, addend: 0x0, symName: __ZN7_native8py_sweep21PyProcessWindowResult8__repr__17hb67eb3275a3cfb5cE, symObjAddr: 0x2790, symBinAddr: 0xDD18, symSize: 0xAC }
  - { offsetInCU: 0x64A3, offset: 0x37711, size: 0x8, addend: 0x0, symName: __ZN7_native8py_sweep21PyProcessWindowResult9cd_matrix17h352145a2a2d28de4E, symObjAddr: 0x283C, symBinAddr: 0xDDC4, symSize: 0x24 }
  - { offsetInCU: 0x1E, offset: 0x3794E, size: 0x8, addend: 0x0, symName: __ZN4pyo33err5PyErr10from_state17h589fe34d1d13a900E, symObjAddr: 0x0, symBinAddr: 0xDF70, symSize: 0x30 }
  - { offsetInCU: 0x1B10, offset: 0x39440, size: 0x8, addend: 0x0, symName: __ZN4pyo33err5PyErr10from_state17h589fe34d1d13a900E, symObjAddr: 0x0, symBinAddr: 0xDF70, symSize: 0x30 }
  - { offsetInCU: 0x1E, offset: 0x39482, size: 0x8, addend: 0x0, symName: __ZN4core5alloc6layout6Layout25from_size_align_unchecked18precondition_check17h5378b2dc708ad8e6E, symObjAddr: 0x0, symBinAddr: 0xDFA0, symSize: 0xBC }
  - { offsetInCU: 0x446, offset: 0x398AA, size: 0x8, addend: 0x0, symName: __ZN4core5alloc6layout6Layout25from_size_align_unchecked18precondition_check17h5378b2dc708ad8e6E, symObjAddr: 0x0, symBinAddr: 0xDFA0, symSize: 0xBC }
  - { offsetInCU: 0x1E, offset: 0x39B0D, size: 0x8, addend: 0x0, symName: '__ZN76_$LT$highuvlith_core..resist..ResistParams$u20$as$u20$core..clone..Clone$GT$5clone17h6609f97d4d91263aE', symObjAddr: 0x0, symBinAddr: 0xE05C, symSize: 0x94 }
  - { offsetInCU: 0x3A, offset: 0x39B29, size: 0x8, addend: 0x0, symName: '__ZN76_$LT$highuvlith_core..resist..ResistParams$u20$as$u20$core..clone..Clone$GT$5clone17h6609f97d4d91263aE', symObjAddr: 0x0, symBinAddr: 0xE05C, symSize: 0x94 }
  - { offsetInCU: 0x6C, offset: 0x39B5B, size: 0x8, addend: 0x0, symName: '__ZN80_$LT$highuvlith_core..resist..DevelopmentModel$u20$as$u20$core..clone..Clone$GT$5clone17h8934e54cbbd25867E', symObjAddr: 0x94, symBinAddr: 0xE0F0, symSize: 0x9C }
  - { offsetInCU: 0x1E, offset: 0x39D15, size: 0x8, addend: 0x0, symName: '__ZN73_$LT$highuvlith_core..types..GridConfig$u20$as$u20$core..clone..Clone$GT$5clone17ha9bc7787449048d5E', symObjAddr: 0x0, symBinAddr: 0xE18C, symSize: 0x20 }
  - { offsetInCU: 0x3A, offset: 0x39D31, size: 0x8, addend: 0x0, symName: '__ZN73_$LT$highuvlith_core..types..GridConfig$u20$as$u20$core..clone..Clone$GT$5clone17ha9bc7787449048d5E', symObjAddr: 0x0, symBinAddr: 0xE18C, symSize: 0x20 }
  - { offsetInCU: 0x1E, offset: 0x39DBA, size: 0x8, addend: 0x0, symName: __ZN4pyo35impl_16extract_argument16extract_argument17h1d53e3d168f59ff1E, symObjAddr: 0x0, symBinAddr: 0xE1AC, symSize: 0x15C }
  - { offsetInCU: 0x521C, offset: 0x3EFB8, size: 0x8, addend: 0x0, symName: __ZN4pyo35impl_16extract_argument16extract_argument17h1d53e3d168f59ff1E, symObjAddr: 0x0, symBinAddr: 0xE1AC, symSize: 0x15C }
  - { offsetInCU: 0x52A1, offset: 0x3F03D, size: 0x8, addend: 0x0, symName: __ZN4pyo35impl_16extract_argument16extract_argument17h35ef43c68b3894f1E, symObjAddr: 0x15C, symBinAddr: 0xE308, symSize: 0x144 }
  - { offsetInCU: 0x5327, offset: 0x3F0C3, size: 0x8, addend: 0x0, symName: __ZN4pyo35impl_16extract_argument16extract_argument17h39095907bc9923dcE, symObjAddr: 0x2A0, symBinAddr: 0xE44C, symSize: 0x160 }
  - { offsetInCU: 0x53AC, offset: 0x3F148, size: 0x8, addend: 0x0, symName: __ZN4pyo35impl_16extract_argument16extract_argument17h497f381e42827792E, symObjAddr: 0x400, symBinAddr: 0xE5AC, symSize: 0x15C }
  - { offsetInCU: 0x5431, offset: 0x3F1CD, size: 0x8, addend: 0x0, symName: __ZN4pyo35impl_16extract_argument16extract_argument17h5dc013bddeb88a31E, symObjAddr: 0x55C, symBinAddr: 0xE708, symSize: 0x138 }
  - { offsetInCU: 0x54B6, offset: 0x3F252, size: 0x8, addend: 0x0, symName: __ZN4pyo35impl_16extract_argument16extract_argument17h5e95ff716f7b7f67E, symObjAddr: 0x694, symBinAddr: 0xE840, symSize: 0x144 }
  - { offsetInCU: 0x553C, offset: 0x3F2D8, size: 0x8, addend: 0x0, symName: __ZN4pyo35impl_16extract_argument16extract_argument17h6c473c4378990b9fE, symObjAddr: 0x7D8, symBinAddr: 0xE984, symSize: 0x160 }
  - { offsetInCU: 0x55C1, offset: 0x3F35D, size: 0x8, addend: 0x0, symName: __ZN4pyo35impl_16extract_argument16extract_argument17h701e7c533f926596E, symObjAddr: 0x938, symBinAddr: 0xEAE4, symSize: 0x138 }
  - { offsetInCU: 0x5646, offset: 0x3F3E2, size: 0x8, addend: 0x0, symName: __ZN4pyo35impl_16extract_argument16extract_argument17h7c67e065c3f62137E, symObjAddr: 0xA70, symBinAddr: 0xEC1C, symSize: 0x15C }
  - { offsetInCU: 0x56CB, offset: 0x3F467, size: 0x8, addend: 0x0, symName: __ZN4pyo35impl_16extract_argument16extract_argument17h939527bbdb5358d7E, symObjAddr: 0xBCC, symBinAddr: 0xED78, symSize: 0x160 }
  - { offsetInCU: 0x5750, offset: 0x3F4EC, size: 0x8, addend: 0x0, symName: __ZN4pyo35impl_16extract_argument16extract_argument17ha02807e91979490cE, symObjAddr: 0xD2C, symBinAddr: 0xEED8, symSize: 0x138 }
  - { offsetInCU: 0x57D5, offset: 0x3F571, size: 0x8, addend: 0x0, symName: __ZN4pyo35impl_16extract_argument16extract_argument17hb0727f45676e6a29E, symObjAddr: 0xE64, symBinAddr: 0xF010, symSize: 0x150 }
  - { offsetInCU: 0x585A, offset: 0x3F5F6, size: 0x8, addend: 0x0, symName: __ZN4pyo35impl_16extract_argument16extract_argument17hc16dc6d0414a794fE, symObjAddr: 0xFB4, symBinAddr: 0xF160, symSize: 0x138 }
  - { offsetInCU: 0x58DF, offset: 0x3F67B, size: 0x8, addend: 0x0, symName: __ZN4pyo35impl_16extract_argument16extract_argument17hdcd9f01b2bc76c18E, symObjAddr: 0x10EC, symBinAddr: 0xF298, symSize: 0x138 }
  - { offsetInCU: 0x5964, offset: 0x3F700, size: 0x8, addend: 0x0, symName: __ZN4pyo35impl_16extract_argument16extract_argument17hdce8691d2e49f3c5E, symObjAddr: 0x1224, symBinAddr: 0xF3D0, symSize: 0x144 }
  - { offsetInCU: 0x59E9, offset: 0x3F785, size: 0x8, addend: 0x0, symName: __ZN4pyo35impl_16extract_argument16extract_argument17hfba9aebe9bf4f138E, symObjAddr: 0x1368, symBinAddr: 0xF514, symSize: 0x160 }
  - { offsetInCU: 0x5BEF, offset: 0x3F98B, size: 0x8, addend: 0x0, symName: '__ZN4pyo35impl_16extract_argument19FunctionDescription26extract_arguments_fastcall28_$u7b$$u7b$closure$u7d$$u7d$17hd0ab39e0035f799cE', symObjAddr: 0x2914, symBinAddr: 0x10AC0, symSize: 0x24 }
  - { offsetInCU: 0x5C47, offset: 0x3F9E3, size: 0x8, addend: 0x0, symName: '__ZN4pyo35impl_16extract_argument19FunctionDescription28extract_arguments_tuple_dict28_$u7b$$u7b$closure$u7d$$u7d$17h3caba1bedd8de6b8E', symObjAddr: 0x2E18, symBinAddr: 0x10FC4, symSize: 0x24 }
  - { offsetInCU: 0x5C9F, offset: 0x3FA3B, size: 0x8, addend: 0x0, symName: '__ZN4pyo35impl_16extract_argument19FunctionDescription36find_keyword_parameter_in_positional28_$u7b$$u7b$closure$u7d$$u7d$17h8bdacec2b578c76fE', symObjAddr: 0x2E3C, symBinAddr: 0x10FE8, symSize: 0x48 }
  - { offsetInCU: 0x5CFF, offset: 0x3FA9B, size: 0x8, addend: 0x0, symName: '__ZN4pyo35impl_16extract_argument19FunctionDescription38find_keyword_parameter_in_keyword_only28_$u7b$$u7b$closure$u7d$$u7d$17hc129cc6caff0ed96E', symObjAddr: 0x2E84, symBinAddr: 0x11030, symSize: 0x38 }
  - { offsetInCU: 0x5D41, offset: 0x3FADD, size: 0x8, addend: 0x0, symName: __ZN4pyo35impl_16extract_argument19extract_pyclass_ref17h0254a710b4cd6eb6E, symObjAddr: 0x2EBC, symBinAddr: 0x11068, symSize: 0xC8 }
  - { offsetInCU: 0x5DA4, offset: 0x3FB40, size: 0x8, addend: 0x0, symName: __ZN4pyo35impl_16extract_argument19extract_pyclass_ref17h0283f404ff6ba019E, symObjAddr: 0x2F84, symBinAddr: 0x11130, symSize: 0xC8 }
  - { offsetInCU: 0x5E07, offset: 0x3FBA3, size: 0x8, addend: 0x0, symName: __ZN4pyo35impl_16extract_argument19extract_pyclass_ref17h033439c57fe83e5eE, symObjAddr: 0x304C, symBinAddr: 0x111F8, symSize: 0xC8 }
  - { offsetInCU: 0x5E6A, offset: 0x3FC06, size: 0x8, addend: 0x0, symName: __ZN4pyo35impl_16extract_argument19extract_pyclass_ref17h11bc796fdddcce14E, symObjAddr: 0x3114, symBinAddr: 0x112C0, symSize: 0xC8 }
  - { offsetInCU: 0x5ECD, offset: 0x3FC69, size: 0x8, addend: 0x0, symName: __ZN4pyo35impl_16extract_argument19extract_pyclass_ref17h2e5afece4138402fE, symObjAddr: 0x31DC, symBinAddr: 0x11388, symSize: 0xC8 }
  - { offsetInCU: 0x5F30, offset: 0x3FCCC, size: 0x8, addend: 0x0, symName: __ZN4pyo35impl_16extract_argument19extract_pyclass_ref17h36dee14757e73a95E, symObjAddr: 0x32A4, symBinAddr: 0x11450, symSize: 0xC8 }
  - { offsetInCU: 0x5F93, offset: 0x3FD2F, size: 0x8, addend: 0x0, symName: __ZN4pyo35impl_16extract_argument19extract_pyclass_ref17h79ddca1484051289E, symObjAddr: 0x336C, symBinAddr: 0x11518, symSize: 0xC8 }
  - { offsetInCU: 0x5FF6, offset: 0x3FD92, size: 0x8, addend: 0x0, symName: __ZN4pyo35impl_16extract_argument19extract_pyclass_ref17h87c2509e49a1b493E, symObjAddr: 0x3434, symBinAddr: 0x115E0, symSize: 0xC8 }
  - { offsetInCU: 0x6059, offset: 0x3FDF5, size: 0x8, addend: 0x0, symName: __ZN4pyo35impl_16extract_argument19extract_pyclass_ref17h9bd8c2fbbe066ec2E, symObjAddr: 0x34FC, symBinAddr: 0x116A8, symSize: 0xC8 }
  - { offsetInCU: 0x60BC, offset: 0x3FE58, size: 0x8, addend: 0x0, symName: __ZN4pyo35impl_16extract_argument19extract_pyclass_ref17had23273024309edeE, symObjAddr: 0x35C4, symBinAddr: 0x11770, symSize: 0xC8 }
  - { offsetInCU: 0x611F, offset: 0x3FEBB, size: 0x8, addend: 0x0, symName: __ZN4pyo35impl_16extract_argument19extract_pyclass_ref17hb29d2a559f48644eE, symObjAddr: 0x368C, symBinAddr: 0x11838, symSize: 0xC8 }
  - { offsetInCU: 0x6182, offset: 0x3FF1E, size: 0x8, addend: 0x0, symName: __ZN4pyo35impl_16extract_argument19extract_pyclass_ref17hbb9c4d36cfd338fdE, symObjAddr: 0x3754, symBinAddr: 0x11900, symSize: 0xC8 }
  - { offsetInCU: 0x61E5, offset: 0x3FF81, size: 0x8, addend: 0x0, symName: __ZN4pyo35impl_16extract_argument19extract_pyclass_ref17hc76fca3fbc06fbb9E, symObjAddr: 0x381C, symBinAddr: 0x119C8, symSize: 0xC8 }
  - { offsetInCU: 0x6248, offset: 0x3FFE4, size: 0x8, addend: 0x0, symName: __ZN4pyo35impl_16extract_argument19extract_pyclass_ref17hc7a043fb67a8188eE, symObjAddr: 0x38E4, symBinAddr: 0x11A90, symSize: 0xC8 }
  - { offsetInCU: 0x62AB, offset: 0x40047, size: 0x8, addend: 0x0, symName: __ZN4pyo35impl_16extract_argument19extract_pyclass_ref17hc815e4833b9d8499E, symObjAddr: 0x39AC, symBinAddr: 0x11B58, symSize: 0xC8 }
  - { offsetInCU: 0x630E, offset: 0x400AA, size: 0x8, addend: 0x0, symName: __ZN4pyo35impl_16extract_argument19extract_pyclass_ref17he9d2f5e834e4d2e7E, symObjAddr: 0x3A74, symBinAddr: 0x11C20, symSize: 0xC8 }
  - { offsetInCU: 0x6371, offset: 0x4010D, size: 0x8, addend: 0x0, symName: __ZN4pyo35impl_16extract_argument19extract_pyclass_ref17hf1f378c33899a997E, symObjAddr: 0x3B3C, symBinAddr: 0x11CE8, symSize: 0xC8 }
  - { offsetInCU: 0x63D4, offset: 0x40170, size: 0x8, addend: 0x0, symName: __ZN4pyo35impl_16extract_argument19extract_pyclass_ref17hf4d94842295cca0dE, symObjAddr: 0x3C04, symBinAddr: 0x11DB0, symSize: 0xC8 }
  - { offsetInCU: 0x6437, offset: 0x401D3, size: 0x8, addend: 0x0, symName: __ZN4pyo35impl_16extract_argument23extract_pyclass_ref_mut17h19d8092e84a5366cE, symObjAddr: 0x3CCC, symBinAddr: 0x11E78, symSize: 0xC8 }
  - { offsetInCU: 0x649A, offset: 0x40236, size: 0x8, addend: 0x0, symName: __ZN4pyo35impl_16extract_argument23extract_pyclass_ref_mut17h797ea18101cfa164E, symObjAddr: 0x3D94, symBinAddr: 0x11F40, symSize: 0xC8 }
  - { offsetInCU: 0x64FD, offset: 0x40299, size: 0x8, addend: 0x0, symName: __ZN4pyo35impl_16extract_argument23extract_pyclass_ref_mut17hb8098ebf9af28487E, symObjAddr: 0x3E5C, symBinAddr: 0x12008, symSize: 0xC8 }
  - { offsetInCU: 0x6560, offset: 0x402FC, size: 0x8, addend: 0x0, symName: __ZN4pyo35impl_16extract_argument23extract_pyclass_ref_mut17hc2d70801703ad6ebE, symObjAddr: 0x3F24, symBinAddr: 0x120D0, symSize: 0xC8 }
  - { offsetInCU: 0x65C3, offset: 0x4035F, size: 0x8, addend: 0x0, symName: __ZN4pyo35impl_16extract_argument23extract_pyclass_ref_mut17hdec89572a5595e17E, symObjAddr: 0x3FEC, symBinAddr: 0x12198, symSize: 0xC8 }
  - { offsetInCU: 0x6626, offset: 0x403C2, size: 0x8, addend: 0x0, symName: __ZN4pyo35impl_16extract_argument23extract_pyclass_ref_mut17hf2e0b047c2533edaE, symObjAddr: 0x40B4, symBinAddr: 0x12260, symSize: 0xC8 }
  - { offsetInCU: 0x6689, offset: 0x40425, size: 0x8, addend: 0x0, symName: __ZN4pyo35impl_16extract_argument25extract_optional_argument17h13c3933aef269eacE, symObjAddr: 0x417C, symBinAddr: 0x12328, symSize: 0xC4 }
  - { offsetInCU: 0x66FE, offset: 0x4049A, size: 0x8, addend: 0x0, symName: __ZN4pyo35impl_16extract_argument25extract_optional_argument17h4e2a744abfb1c52cE, symObjAddr: 0x4240, symBinAddr: 0x123EC, symSize: 0xE8 }
  - { offsetInCU: 0x6773, offset: 0x4050F, size: 0x8, addend: 0x0, symName: __ZN4pyo35impl_16extract_argument25extract_optional_argument17hdd9e2fc7ba94a566E, symObjAddr: 0x4328, symBinAddr: 0x124D4, symSize: 0xE8 }
  - { offsetInCU: 0x67E8, offset: 0x40584, size: 0x8, addend: 0x0, symName: __ZN4pyo35impl_16extract_argument25extract_optional_argument17hebc20e882f53e268E, symObjAddr: 0x4410, symBinAddr: 0x125BC, symSize: 0xE0 }
  - { offsetInCU: 0x685D, offset: 0x405F9, size: 0x8, addend: 0x0, symName: __ZN4pyo35impl_16extract_argument29extract_argument_with_default17h054bbb082df36edcE, symObjAddr: 0x44F0, symBinAddr: 0x1269C, symSize: 0x8C }
  - { offsetInCU: 0x68D9, offset: 0x40675, size: 0x8, addend: 0x0, symName: __ZN4pyo35impl_16extract_argument29extract_argument_with_default17h329d6d7dd93c6b39E, symObjAddr: 0x457C, symBinAddr: 0x12728, symSize: 0x8C }
  - { offsetInCU: 0x6955, offset: 0x406F1, size: 0x8, addend: 0x0, symName: __ZN4pyo35impl_16extract_argument29extract_argument_with_default17h70fbf8529040fc47E, symObjAddr: 0x4608, symBinAddr: 0x127B4, symSize: 0x8C }
  - { offsetInCU: 0x69D1, offset: 0x4076D, size: 0x8, addend: 0x0, symName: __ZN4pyo35impl_16extract_argument29extract_argument_with_default17hc4146bb56472281bE, symObjAddr: 0x4694, symBinAddr: 0x12840, symSize: 0x90 }
  - { offsetInCU: 0x6A52, offset: 0x407EE, size: 0x8, addend: 0x0, symName: '__ZN80_$LT$T$u20$as$u20$pyo3..impl_..extract_argument..PyFunctionArgument$LT$_$GT$$GT$7extract17h0c8cab0ea9881f34E', symObjAddr: 0x4724, symBinAddr: 0x128D0, symSize: 0x28 }
  - { offsetInCU: 0x6A91, offset: 0x4082D, size: 0x8, addend: 0x0, symName: '__ZN80_$LT$T$u20$as$u20$pyo3..impl_..extract_argument..PyFunctionArgument$LT$_$GT$$GT$7extract17h415484e8748a0829E', symObjAddr: 0x474C, symBinAddr: 0x128F8, symSize: 0x28 }
  - { offsetInCU: 0x6AD0, offset: 0x4086C, size: 0x8, addend: 0x0, symName: '__ZN80_$LT$T$u20$as$u20$pyo3..impl_..extract_argument..PyFunctionArgument$LT$_$GT$$GT$7extract17h7473a6fd7196a60eE', symObjAddr: 0x4774, symBinAddr: 0x12920, symSize: 0x28 }
  - { offsetInCU: 0x6B0F, offset: 0x408AB, size: 0x8, addend: 0x0, symName: '__ZN80_$LT$T$u20$as$u20$pyo3..impl_..extract_argument..PyFunctionArgument$LT$_$GT$$GT$7extract17hc29d29898601efbfE', symObjAddr: 0x479C, symBinAddr: 0x12948, symSize: 0x28 }
  - { offsetInCU: 0x8081, offset: 0x41E1D, size: 0x8, addend: 0x0, symName: __ZN4pyo35impl_16extract_argument19FunctionDescription13handle_kwargs17h604be64e2682bb78E, symObjAddr: 0x14C8, symBinAddr: 0xF674, symSize: 0x70C }
  - { offsetInCU: 0x8282, offset: 0x4201E, size: 0x8, addend: 0x0, symName: __ZN4pyo35impl_16extract_argument19FunctionDescription13handle_kwargs17hd066f53b40336cfdE, symObjAddr: 0x1BD4, symBinAddr: 0xFD80, symSize: 0x708 }
  - { offsetInCU: 0x84A1, offset: 0x4223D, size: 0x8, addend: 0x0, symName: __ZN4pyo35impl_16extract_argument19FunctionDescription26extract_arguments_fastcall17hdc757aa3ef91c528E, symObjAddr: 0x22DC, symBinAddr: 0x10488, symSize: 0x638 }
  - { offsetInCU: 0x87D4, offset: 0x42570, size: 0x8, addend: 0x0, symName: __ZN4pyo35impl_16extract_argument19FunctionDescription28extract_arguments_tuple_dict17h3731fc3afebbb4faE, symObjAddr: 0x2938, symBinAddr: 0x10AE4, symSize: 0x4E0 }
  - { offsetInCU: 0x1E, offset: 0x43755, size: 0x8, addend: 0x0, symName: '__ZN75_$LT$highuvlith_core..thinfilm..FilmStack$u20$as$u20$core..clone..Clone$GT$5clone17h66b6bd52dcd05b91E', symObjAddr: 0x0, symBinAddr: 0x12970, symSize: 0xB8 }
  - { offsetInCU: 0x3A, offset: 0x43771, size: 0x8, addend: 0x0, symName: '__ZN75_$LT$highuvlith_core..thinfilm..FilmStack$u20$as$u20$core..clone..Clone$GT$5clone17h66b6bd52dcd05b91E', symObjAddr: 0x0, symBinAddr: 0x12970, symSize: 0xB8 }
  - { offsetInCU: 0x1E, offset: 0x43A5F, size: 0x8, addend: 0x0, symName: '__ZN110_$LT$core..array..iter..IntoIter$LT$T$C$_$GT$$u20$as$u20$core..iter..traits..exact_size..ExactSizeIterator$GT$3len17h3c480e7f3b6b5fabE', symObjAddr: 0x0, symBinAddr: 0x12A28, symSize: 0x20 }
  - { offsetInCU: 0x9FA, offset: 0x4443B, size: 0x8, addend: 0x0, symName: '__ZN110_$LT$core..array..iter..IntoIter$LT$T$C$_$GT$$u20$as$u20$core..iter..traits..exact_size..ExactSizeIterator$GT$3len17h3c480e7f3b6b5fabE', symObjAddr: 0x0, symBinAddr: 0x12A28, symSize: 0x20 }
  - { offsetInCU: 0xA9D, offset: 0x444DE, size: 0x8, addend: 0x0, symName: '__ZN4core5array4iter94_$LT$impl$u20$core..iter..traits..collect..IntoIterator$u20$for$u20$$u5b$T$u3b$$u20$N$u5d$$GT$9into_iter17h81ff440d989c94efE', symObjAddr: 0x48, symBinAddr: 0x12A70, symSize: 0x58 }
  - { offsetInCU: 0xB15, offset: 0x44556, size: 0x8, addend: 0x0, symName: '__ZN99_$LT$core..array..iter..IntoIter$LT$T$C$_$GT$$u20$as$u20$core..iter..traits..iterator..Iterator$GT$4next17ha3e2a7f1facb217aE', symObjAddr: 0xA0, symBinAddr: 0x12AC8, symSize: 0x2C }
  - { offsetInCU: 0xB4A, offset: 0x4458B, size: 0x8, addend: 0x0, symName: '__ZN99_$LT$core..array..iter..IntoIter$LT$T$C$_$GT$$u20$as$u20$core..iter..traits..iterator..Iterator$GT$8try_fold17heeb1c3164d8fda36E', symObjAddr: 0xCC, symBinAddr: 0x12AF4, symSize: 0x64 }
  - { offsetInCU: 0xE2D, offset: 0x4486E, size: 0x8, addend: 0x0, symName: __ZN4core4iter6traits8iterator8Iterator3map17h24adcd58cb7c7941E, symObjAddr: 0x20, symBinAddr: 0x12A48, symSize: 0x28 }
  - { offsetInCU: 0x1E, offset: 0x46072, size: 0x8, addend: 0x0, symName: '__ZN73_$LT$pyo3..types..any..PyAny$u20$as$u20$pyo3..type_object..PyTypeInfo$GT$15type_object_raw17hbf16717a5d70af88E', symObjAddr: 0x0, symBinAddr: 0x12B58, symSize: 0x24 }
  - { offsetInCU: 0x1149, offset: 0x4719D, size: 0x8, addend: 0x0, symName: '__ZN73_$LT$pyo3..types..any..PyAny$u20$as$u20$pyo3..type_object..PyTypeInfo$GT$15type_object_raw17hbf16717a5d70af88E', symObjAddr: 0x0, symBinAddr: 0x12B58, symSize: 0x24 }
  - { offsetInCU: 0x1E, offset: 0x47709, size: 0x8, addend: 0x0, symName: '__ZN5alloc7raw_vec19RawVec$LT$T$C$A$GT$8grow_one17h01292e51e88115d3E', symObjAddr: 0x0, symBinAddr: 0x12B7C, symSize: 0x88 }
  - { offsetInCU: 0x837, offset: 0x47F22, size: 0x8, addend: 0x0, symName: '__ZN5alloc7raw_vec19RawVec$LT$T$C$A$GT$8grow_one17h01292e51e88115d3E', symObjAddr: 0x0, symBinAddr: 0x12B7C, symSize: 0x88 }
  - { offsetInCU: 0x950, offset: 0x4803B, size: 0x8, addend: 0x0, symName: '__ZN5alloc7raw_vec19RawVec$LT$T$C$A$GT$8grow_one17h1ea361b6bf269ae0E', symObjAddr: 0x88, symBinAddr: 0x12C04, symSize: 0x88 }
  - { offsetInCU: 0xAF6, offset: 0x481E1, size: 0x8, addend: 0x0, symName: '__ZN5alloc7raw_vec19RawVec$LT$T$C$A$GT$8grow_one17h266e65198c2006adE', symObjAddr: 0x110, symBinAddr: 0x12C8C, symSize: 0x88 }
  - { offsetInCU: 0xBCD, offset: 0x482B8, size: 0x8, addend: 0x0, symName: '__ZN5alloc7raw_vec19RawVec$LT$T$C$A$GT$8grow_one17h6300f812a8ba6bc6E', symObjAddr: 0x198, symBinAddr: 0x12D14, symSize: 0x88 }
  - { offsetInCU: 0xCB1, offset: 0x4839C, size: 0x8, addend: 0x0, symName: '__ZN5alloc7raw_vec19RawVec$LT$T$C$A$GT$8grow_one17hcc652d44eb264b2eE', symObjAddr: 0x220, symBinAddr: 0x12D9C, symSize: 0x88 }
  - { offsetInCU: 0xD8A, offset: 0x48475, size: 0x8, addend: 0x0, symName: '__ZN5alloc7raw_vec19RawVec$LT$T$C$A$GT$8grow_one17he7183bd24e66d3beE', symObjAddr: 0x2A8, symBinAddr: 0x12E24, symSize: 0x88 }
  - { offsetInCU: 0x1E, offset: 0x484FE, size: 0x8, addend: 0x0, symName: '__ZN103_$LT$pyo3..instance..Bound$LT$pyo3..types..any..PyAny$GT$$u20$as$u20$pyo3..types..any..PyAnyMethods$GT$2eq28_$u7b$$u7b$closure$u7d$$u7d$17h869673f0cdb1dc54E', symObjAddr: 0x0, symBinAddr: 0x12EAC, symSize: 0x5C }
  - { offsetInCU: 0x14BF, offset: 0x4999F, size: 0x8, addend: 0x0, symName: '__ZN103_$LT$pyo3..instance..Bound$LT$pyo3..types..any..PyAny$GT$$u20$as$u20$pyo3..types..any..PyAnyMethods$GT$2eq28_$u7b$$u7b$closure$u7d$$u7d$17h869673f0cdb1dc54E', symObjAddr: 0x0, symBinAddr: 0x12EAC, symSize: 0x5C }
  - { offsetInCU: 0x1E, offset: 0x4A2ED, size: 0x8, addend: 0x0, symName: __ZN3std9panicking12catch_unwind7do_call17h3efe172ffa037313E, symObjAddr: 0x0, symBinAddr: 0x12F08, symSize: 0x94 }
  - { offsetInCU: 0x21E5, offset: 0x4C4B4, size: 0x8, addend: 0x0, symName: __ZN3std9panicking12catch_unwind7do_call17h3efe172ffa037313E, symObjAddr: 0x0, symBinAddr: 0x12F08, symSize: 0x94 }
  - { offsetInCU: 0x22E0, offset: 0x4C5AF, size: 0x8, addend: 0x0, symName: __ZN3std9panicking12catch_unwind7do_call17h4a039c4c5ad9a7a0E, symObjAddr: 0x94, symBinAddr: 0x12F9C, symSize: 0x94 }
  - { offsetInCU: 0x23DB, offset: 0x4C6AA, size: 0x8, addend: 0x0, symName: __ZN3std9panicking12catch_unwind7do_call17h68c510abc1b704acE, symObjAddr: 0x128, symBinAddr: 0x13030, symSize: 0x88 }
  - { offsetInCU: 0x24D6, offset: 0x4C7A5, size: 0x8, addend: 0x0, symName: __ZN3std9panicking12catch_unwind7do_call17h9d4ff8fcbe818f79E, symObjAddr: 0x1B0, symBinAddr: 0x130B8, symSize: 0x98 }
  - { offsetInCU: 0x25D1, offset: 0x4C8A0, size: 0x8, addend: 0x0, symName: __ZN3std9panicking12catch_unwind7do_call17hd37444b50d232186E, symObjAddr: 0x248, symBinAddr: 0x13150, symSize: 0x94 }
  - { offsetInCU: 0x26CC, offset: 0x4C99B, size: 0x8, addend: 0x0, symName: __ZN3std9panicking12catch_unwind7do_call17he89d19383f95ae79E, symObjAddr: 0x2DC, symBinAddr: 0x131E4, symSize: 0x98 }
  - { offsetInCU: 0x27C7, offset: 0x4CA96, size: 0x8, addend: 0x0, symName: __ZN3std9panicking12catch_unwind8do_catch17h30f153a9aaa425ecE, symObjAddr: 0x374, symBinAddr: 0x1327C, symSize: 0x70 }
  - { offsetInCU: 0x285C, offset: 0x4CB2B, size: 0x8, addend: 0x0, symName: __ZN3std9panicking12catch_unwind8do_catch17h980ca2d0f42a8fecE, symObjAddr: 0x3E4, symBinAddr: 0x132EC, symSize: 0x70 }
  - { offsetInCU: 0x28F1, offset: 0x4CBC0, size: 0x8, addend: 0x0, symName: __ZN3std9panicking12catch_unwind8do_catch17hc3d49ca97331ae69E, symObjAddr: 0x454, symBinAddr: 0x1335C, symSize: 0x70 }
  - { offsetInCU: 0x2986, offset: 0x4CC55, size: 0x8, addend: 0x0, symName: __ZN3std9panicking12catch_unwind8do_catch17hd4002794b8e999c9E, symObjAddr: 0x4C4, symBinAddr: 0x133CC, symSize: 0x70 }
  - { offsetInCU: 0x2A1B, offset: 0x4CCEA, size: 0x8, addend: 0x0, symName: __ZN3std9panicking12catch_unwind8do_catch17hf866f46cbb50468cE, symObjAddr: 0x534, symBinAddr: 0x1343C, symSize: 0x70 }
  - { offsetInCU: 0x2AB0, offset: 0x4CD7F, size: 0x8, addend: 0x0, symName: __ZN3std9panicking12catch_unwind8do_catch17hf9045d9d2125176eE, symObjAddr: 0x5A4, symBinAddr: 0x134AC, symSize: 0x70 }
  - { offsetInCU: 0x1E, offset: 0x4D426, size: 0x8, addend: 0x0, symName: __ZN4pyo36marker6Python14NotImplemented17haa21874d4bedb4a0E, symObjAddr: 0x0, symBinAddr: 0x1351C, symSize: 0x28 }
  - { offsetInCU: 0x1744, offset: 0x4EB4C, size: 0x8, addend: 0x0, symName: __ZN4pyo36marker6Python14NotImplemented17haa21874d4bedb4a0E, symObjAddr: 0x0, symBinAddr: 0x1351C, symSize: 0x28 }
  - { offsetInCU: 0x1773, offset: 0x4EB7B, size: 0x8, addend: 0x0, symName: __ZN4pyo36marker6Python19assume_gil_acquired17hf5bd83c39a5b24d7E, symObjAddr: 0x28, symBinAddr: 0x13544, symSize: 0x4 }
  - { offsetInCU: 0x1786, offset: 0x4EB8E, size: 0x8, addend: 0x0, symName: __ZN4pyo36marker6Python4None17he5c09485953ef4e7E, symObjAddr: 0x2C, symBinAddr: 0x13548, symSize: 0x28 }
  - { offsetInCU: 0x1E, offset: 0x4EBDB, size: 0x8, addend: 0x0, symName: __ZN4pyo35types4none6PyNone3get17h2dfa95bc90781939E, symObjAddr: 0x0, symBinAddr: 0x13570, symSize: 0x2C }
  - { offsetInCU: 0x1791, offset: 0x5034E, size: 0x8, addend: 0x0, symName: __ZN4pyo35types4none6PyNone3get17h2dfa95bc90781939E, symObjAddr: 0x0, symBinAddr: 0x13570, symSize: 0x2C }
  - { offsetInCU: 0x1E, offset: 0x50399, size: 0x8, addend: 0x0, symName: '__ZN4pyo311conversions3std6option90_$LT$impl$u20$pyo3..conversion..IntoPyObject$u20$for$u20$core..option..Option$LT$T$GT$$GT$13into_pyobject28_$u7b$$u7b$closure$u7d$$u7d$17hc099eb729163c68dE', symObjAddr: 0x0, symBinAddr: 0x1359C, symSize: 0x2C }
  - { offsetInCU: 0x128A, offset: 0x51605, size: 0x8, addend: 0x0, symName: '__ZN4pyo311conversions3std6option90_$LT$impl$u20$pyo3..conversion..IntoPyObject$u20$for$u20$core..option..Option$LT$T$GT$$GT$13into_pyobject28_$u7b$$u7b$closure$u7d$$u7d$17hc099eb729163c68dE', symObjAddr: 0x0, symBinAddr: 0x1359C, symSize: 0x2C }
  - { offsetInCU: 0x12D8, offset: 0x51653, size: 0x8, addend: 0x0, symName: '__ZN4pyo311conversions3std6option90_$LT$impl$u20$pyo3..conversion..IntoPyObject$u20$for$u20$core..option..Option$LT$T$GT$$GT$13into_pyobject28_$u7b$$u7b$closure$u7d$$u7d$17he13caed57312da53E', symObjAddr: 0x2C, symBinAddr: 0x135C8, symSize: 0x24 }
  - { offsetInCU: 0x1E, offset: 0x51C8C, size: 0x8, addend: 0x0, symName: '__ZN83_$LT$$LP$$RP$$u20$as$u20$pyo3..impl_..callback..IntoPyCallbackOutput$LT$i32$GT$$GT$7convert17hb3344994ae3c7e29E', symObjAddr: 0x0, symBinAddr: 0x135EC, symSize: 0x14 }
  - { offsetInCU: 0x1448, offset: 0x530B6, size: 0x8, addend: 0x0, symName: '__ZN83_$LT$$LP$$RP$$u20$as$u20$pyo3..impl_..callback..IntoPyCallbackOutput$LT$i32$GT$$GT$7convert17hb3344994ae3c7e29E', symObjAddr: 0x0, symBinAddr: 0x135EC, symSize: 0x14 }
  - { offsetInCU: 0x1E, offset: 0x53963, size: 0x8, addend: 0x0, symName: '__ZN7_native10py_results200_$LT$impl$u20$pyo3..impl_..pyclass..PyMethods$LT$_native..py_results..PyAerialImageResult$GT$$u20$for$u20$pyo3..impl_..pyclass..PyClassImplCollector$LT$_native..py_results..PyAerialImageResult$GT$$GT$10py_methods17h99852d9ebfc2685dE', symObjAddr: 0x0, symBinAddr: 0x13600, symSize: 0x14 }
  - { offsetInCU: 0x29C2, offset: 0x56307, size: 0x8, addend: 0x0, symName: '__ZN7_native10py_results200_$LT$impl$u20$pyo3..impl_..pyclass..PyMethods$LT$_native..py_results..PyAerialImageResult$GT$$u20$for$u20$pyo3..impl_..pyclass..PyClassImplCollector$LT$_native..py_results..PyAerialImageResult$GT$$GT$10py_methods17h99852d9ebfc2685dE', symObjAddr: 0x0, symBinAddr: 0x13600, symSize: 0x14 }
  - { offsetInCU: 0x29FF, offset: 0x56344, size: 0x8, addend: 0x0, symName: '__ZN7_native10py_results204_$LT$impl$u20$pyo3..impl_..pyclass..PyMethods$LT$_native..py_results..PyResistProfileResult$GT$$u20$for$u20$pyo3..impl_..pyclass..PyClassImplCollector$LT$_native..py_results..PyResistProfileResult$GT$$GT$10py_methods17hcc2101f42796e384E', symObjAddr: 0x14, symBinAddr: 0x13614, symSize: 0x14 }
  - { offsetInCU: 0x2A3C, offset: 0x56381, size: 0x8, addend: 0x0, symName: '__ZN7_native10py_results216_$LT$impl$u20$pyo3..impl_..pyclass..PyClass__eq__SlotFragment$LT$_native..py_results..PyAerialImageResult$GT$$u20$for$u20$pyo3..impl_..pyclass..PyClassImplCollector$LT$_native..py_results..PyAerialImageResult$GT$$GT$6__eq__17hf4a134fbe06ae664E', symObjAddr: 0x28, symBinAddr: 0x13628, symSize: 0x2C }
  - { offsetInCU: 0x2AAE, offset: 0x563F3, size: 0x8, addend: 0x0, symName: '__ZN7_native10py_results220_$LT$impl$u20$pyo3..impl_..pyclass..PyClass__eq__SlotFragment$LT$_native..py_results..PyResistProfileResult$GT$$u20$for$u20$pyo3..impl_..pyclass..PyClassImplCollector$LT$_native..py_results..PyResistProfileResult$GT$$GT$6__eq__17h73fcab37d943a0dcE', symObjAddr: 0x54, symBinAddr: 0x13654, symSize: 0x2C }
  - { offsetInCU: 0x2B98, offset: 0x564DD, size: 0x8, addend: 0x0, symName: '__ZN7_native13py_simulation204_$LT$impl$u20$pyo3..impl_..pyclass..PyMethods$LT$_native..py_simulation..PySimulationEngine$GT$$u20$for$u20$pyo3..impl_..pyclass..PyClassImplCollector$LT$_native..py_simulation..PySimulationEngine$GT$$GT$10py_methods17h42736e3f96c6a2cbE', symObjAddr: 0x80, symBinAddr: 0x13680, symSize: 0x14 }
  - { offsetInCU: 0x2BE3, offset: 0x56528, size: 0x8, addend: 0x0, symName: '__ZN7_native13py_simulation204_$LT$impl$u20$pyo3..impl_..pyclass..PyMethods$LT$_native..py_simulation..PySimulationEngine$GT$$u20$for$u20$pyo3..impl_..pyclass..PyClassImplCollector$LT$_native..py_simulation..PySimulationEngine$GT$$GT$10py_methods5ITEMS10trampoline218_$LT$impl$u20$pyo3..impl_..pyclass..PyClassNewTextSignature$LT$_native..py_simulation..PySimulationEngine$GT$$u20$for$u20$pyo3..impl_..pyclass..PyClassImplCollector$LT$_native..py_simulation..PySimulationEngine$GT$$GT$18new_text_signature17h7d6ee469662ced3fE', symObjAddr: 0x94, symBinAddr: 0x13694, symSize: 0x1C }
  - { offsetInCU: 0x2C7E, offset: 0x565C3, size: 0x8, addend: 0x0, symName: '__ZN7_native7py_mnsl180_$LT$impl$u20$pyo3..impl_..pyclass..PyMethods$LT$_native..py_mnsl..PyMnslConfig$GT$$u20$for$u20$pyo3..impl_..pyclass..PyClassImplCollector$LT$_native..py_mnsl..PyMnslConfig$GT$$GT$10py_methods17h55eedf69512bc4cfE', symObjAddr: 0xB0, symBinAddr: 0x136B0, symSize: 0x14 }
  - { offsetInCU: 0x2CC9, offset: 0x5660E, size: 0x8, addend: 0x0, symName: '__ZN7_native7py_mnsl180_$LT$impl$u20$pyo3..impl_..pyclass..PyMethods$LT$_native..py_mnsl..PyMnslConfig$GT$$u20$for$u20$pyo3..impl_..pyclass..PyClassImplCollector$LT$_native..py_mnsl..PyMnslConfig$GT$$GT$10py_methods5ITEMS10trampoline194_$LT$impl$u20$pyo3..impl_..pyclass..PyClassNewTextSignature$LT$_native..py_mnsl..PyMnslConfig$GT$$u20$for$u20$pyo3..impl_..pyclass..PyClassImplCollector$LT$_native..py_mnsl..PyMnslConfig$GT$$GT$18new_text_signature17hfa80d301984bcaf8E', symObjAddr: 0xC4, symBinAddr: 0x136C4, symSize: 0x1C }
  - { offsetInCU: 0x2D0A, offset: 0x5664F, size: 0x8, addend: 0x0, symName: '__ZN7_native7py_mnsl180_$LT$impl$u20$pyo3..impl_..pyclass..PyMethods$LT$_native..py_mnsl..PyMnslEngine$GT$$u20$for$u20$pyo3..impl_..pyclass..PyClassImplCollector$LT$_native..py_mnsl..PyMnslEngine$GT$$GT$10py_methods17h29edc932dc6ccac7E', symObjAddr: 0xE0, symBinAddr: 0x136E0, symSize: 0x14 }
  - { offsetInCU: 0x2D58, offset: 0x5669D, size: 0x8, addend: 0x0, symName: '__ZN7_native7py_mnsl180_$LT$impl$u20$pyo3..impl_..pyclass..PyMethods$LT$_native..py_mnsl..PyMnslEngine$GT$$u20$for$u20$pyo3..impl_..pyclass..PyClassImplCollector$LT$_native..py_mnsl..PyMnslEngine$GT$$GT$10py_methods5ITEMS10trampoline194_$LT$impl$u20$pyo3..impl_..pyclass..PyClassNewTextSignature$LT$_native..py_mnsl..PyMnslEngine$GT$$u20$for$u20$pyo3..impl_..pyclass..PyClassImplCollector$LT$_native..py_mnsl..PyMnslEngine$GT$$GT$18new_text_signature17h899d59b7fc1cda64E', symObjAddr: 0xF4, symBinAddr: 0x136F4, symSize: 0x1C }
  - { offsetInCU: 0x2D9C, offset: 0x566E1, size: 0x8, addend: 0x0, symName: '__ZN7_native7py_mnsl180_$LT$impl$u20$pyo3..impl_..pyclass..PyMethods$LT$_native..py_mnsl..PyMnslResult$GT$$u20$for$u20$pyo3..impl_..pyclass..PyClassImplCollector$LT$_native..py_mnsl..PyMnslResult$GT$$GT$10py_methods17h97c8720d04e24df7E', symObjAddr: 0x110, symBinAddr: 0x13710, symSize: 0x14 }
  - { offsetInCU: 0x2DDC, offset: 0x56721, size: 0x8, addend: 0x0, symName: '__ZN7_native7py_mnsl186_$LT$impl$u20$pyo3..impl_..pyclass..PyMethods$LT$_native..py_mnsl..PySpherePacking$GT$$u20$for$u20$pyo3..impl_..pyclass..PyClassImplCollector$LT$_native..py_mnsl..PySpherePacking$GT$$GT$10py_methods17hf2ee1746d08f5c5eE', symObjAddr: 0x124, symBinAddr: 0x13724, symSize: 0x14 }
  - { offsetInCU: 0x2E19, offset: 0x5675E, size: 0x8, addend: 0x0, symName: '__ZN7_native7py_mnsl194_$LT$impl$u20$pyo3..impl_..pyclass..PyMethods$LT$_native..py_mnsl..PySubstrateCoupling$GT$$u20$for$u20$pyo3..impl_..pyclass..PyClassImplCollector$LT$_native..py_mnsl..PySubstrateCoupling$GT$$GT$10py_methods17h7c4936abab770008E', symObjAddr: 0x138, symBinAddr: 0x13738, symSize: 0x14 }
  - { offsetInCU: 0x2E64, offset: 0x567A9, size: 0x8, addend: 0x0, symName: '__ZN7_native7py_mnsl194_$LT$impl$u20$pyo3..impl_..pyclass..PyMethods$LT$_native..py_mnsl..PySubstrateCoupling$GT$$u20$for$u20$pyo3..impl_..pyclass..PyClassImplCollector$LT$_native..py_mnsl..PySubstrateCoupling$GT$$GT$10py_methods5ITEMS10trampoline208_$LT$impl$u20$pyo3..impl_..pyclass..PyClassNewTextSignature$LT$_native..py_mnsl..PySubstrateCoupling$GT$$u20$for$u20$pyo3..impl_..pyclass..PyClassImplCollector$LT$_native..py_mnsl..PySubstrateCoupling$GT$$GT$18new_text_signature17h7fe649f5ccf4a5fdE', symObjAddr: 0x14C, symBinAddr: 0x1374C, symSize: 0x1C }
  - { offsetInCU: 0x2EA5, offset: 0x567EA, size: 0x8, addend: 0x0, symName: '__ZN7_native7py_mnsl202_$LT$impl$u20$pyo3..impl_..pyclass..PyMethods$LT$_native..py_mnsl..PyNanosphereArrayConfig$GT$$u20$for$u20$pyo3..impl_..pyclass..PyClassImplCollector$LT$_native..py_mnsl..PyNanosphereArrayConfig$GT$$GT$10py_methods17h1ee1f7ae44e33e3fE', symObjAddr: 0x168, symBinAddr: 0x13768, symSize: 0x14 }
  - { offsetInCU: 0x2EF0, offset: 0x56835, size: 0x8, addend: 0x0, symName: '__ZN7_native7py_mnsl202_$LT$impl$u20$pyo3..impl_..pyclass..PyMethods$LT$_native..py_mnsl..PyNanosphereArrayConfig$GT$$u20$for$u20$pyo3..impl_..pyclass..PyClassImplCollector$LT$_native..py_mnsl..PyNanosphereArrayConfig$GT$$GT$10py_methods5ITEMS10trampoline216_$LT$impl$u20$pyo3..impl_..pyclass..PyClassNewTextSignature$LT$_native..py_mnsl..PyNanosphereArrayConfig$GT$$u20$for$u20$pyo3..impl_..pyclass..PyClassImplCollector$LT$_native..py_mnsl..PyNanosphereArrayConfig$GT$$GT$18new_text_signature17h612eb79f7fe838a6E', symObjAddr: 0x17C, symBinAddr: 0x1377C, symSize: 0x1C }
  - { offsetInCU: 0x2FB6, offset: 0x568FB, size: 0x8, addend: 0x0, symName: '__ZN7_native8py_sweep190_$LT$impl$u20$pyo3..impl_..pyclass..PyMethods$LT$_native..py_sweep..PyBatchSimulator$GT$$u20$for$u20$pyo3..impl_..pyclass..PyClassImplCollector$LT$_native..py_sweep..PyBatchSimulator$GT$$GT$10py_methods17h76ae0e45a4ae98fcE', symObjAddr: 0x198, symBinAddr: 0x13798, symSize: 0x14 }
  - { offsetInCU: 0x3001, offset: 0x56946, size: 0x8, addend: 0x0, symName: '__ZN7_native8py_sweep190_$LT$impl$u20$pyo3..impl_..pyclass..PyMethods$LT$_native..py_sweep..PyBatchSimulator$GT$$u20$for$u20$pyo3..impl_..pyclass..PyClassImplCollector$LT$_native..py_sweep..PyBatchSimulator$GT$$GT$10py_methods5ITEMS10trampoline204_$LT$impl$u20$pyo3..impl_..pyclass..PyClassNewTextSignature$LT$_native..py_sweep..PyBatchSimulator$GT$$u20$for$u20$pyo3..impl_..pyclass..PyClassImplCollector$LT$_native..py_sweep..PyBatchSimulator$GT$$GT$18new_text_signature17h7bdbff5a234210d7E', symObjAddr: 0x1AC, symBinAddr: 0x137AC, symSize: 0x1C }
  - { offsetInCU: 0x3042, offset: 0x56987, size: 0x8, addend: 0x0, symName: '__ZN7_native8py_sweep200_$LT$impl$u20$pyo3..impl_..pyclass..PyMethods$LT$_native..py_sweep..PyProcessWindowResult$GT$$u20$for$u20$pyo3..impl_..pyclass..PyClassImplCollector$LT$_native..py_sweep..PyProcessWindowResult$GT$$GT$10py_methods17he983d9d14423f25dE', symObjAddr: 0x1C8, symBinAddr: 0x137C8, symSize: 0x14 }
  - { offsetInCU: 0x30C9, offset: 0x56A0E, size: 0x8, addend: 0x0, symName: '__ZN7_native9py_config184_$LT$impl$u20$pyo3..impl_..pyclass..PyMethods$LT$_native..py_config..PyGridConfig$GT$$u20$for$u20$pyo3..impl_..pyclass..PyClassImplCollector$LT$_native..py_config..PyGridConfig$GT$$GT$10py_methods17h3ad41d6071dd30eaE', symObjAddr: 0x1DC, symBinAddr: 0x137DC, symSize: 0x14 }
  - { offsetInCU: 0x3117, offset: 0x56A5C, size: 0x8, addend: 0x0, symName: '__ZN7_native9py_config184_$LT$impl$u20$pyo3..impl_..pyclass..PyMethods$LT$_native..py_config..PyGridConfig$GT$$u20$for$u20$pyo3..impl_..pyclass..PyClassImplCollector$LT$_native..py_config..PyGridConfig$GT$$GT$10py_methods5ITEMS10trampoline198_$LT$impl$u20$pyo3..impl_..pyclass..PyClassNewTextSignature$LT$_native..py_config..PyGridConfig$GT$$u20$for$u20$pyo3..impl_..pyclass..PyClassImplCollector$LT$_native..py_config..PyGridConfig$GT$$GT$18new_text_signature17hc7df2401659a27cfE', symObjAddr: 0x1F0, symBinAddr: 0x137F0, symSize: 0x1C }
  - { offsetInCU: 0x315B, offset: 0x56AA0, size: 0x8, addend: 0x0, symName: '__ZN7_native9py_config184_$LT$impl$u20$pyo3..impl_..pyclass..PyMethods$LT$_native..py_config..PyMaskConfig$GT$$u20$for$u20$pyo3..impl_..pyclass..PyClassImplCollector$LT$_native..py_config..PyMaskConfig$GT$$GT$10py_methods17h6a68a80362b25df9E', symObjAddr: 0x20C, symBinAddr: 0x1380C, symSize: 0x14 }
  - { offsetInCU: 0x3198, offset: 0x56ADD, size: 0x8, addend: 0x0, symName: '__ZN7_native9py_config188_$LT$impl$u20$pyo3..impl_..pyclass..PyMethods$LT$_native..py_config..PyOpticsConfig$GT$$u20$for$u20$pyo3..impl_..pyclass..PyClassImplCollector$LT$_native..py_config..PyOpticsConfig$GT$$GT$10py_methods17hc99c78d3a6c5e036E', symObjAddr: 0x220, symBinAddr: 0x13820, symSize: 0x14 }
  - { offsetInCU: 0x31E3, offset: 0x56B28, size: 0x8, addend: 0x0, symName: '__ZN7_native9py_config188_$LT$impl$u20$pyo3..impl_..pyclass..PyMethods$LT$_native..py_config..PyOpticsConfig$GT$$u20$for$u20$pyo3..impl_..pyclass..PyClassImplCollector$LT$_native..py_config..PyOpticsConfig$GT$$GT$10py_methods5ITEMS10trampoline202_$LT$impl$u20$pyo3..impl_..pyclass..PyClassNewTextSignature$LT$_native..py_config..PyOpticsConfig$GT$$u20$for$u20$pyo3..impl_..pyclass..PyClassImplCollector$LT$_native..py_config..PyOpticsConfig$GT$$GT$18new_text_signature17hd8863ebf9268c9dbE', symObjAddr: 0x234, symBinAddr: 0x13834, symSize: 0x1C }
  - { offsetInCU: 0x3224, offset: 0x56B69, size: 0x8, addend: 0x0, symName: '__ZN7_native9py_config188_$LT$impl$u20$pyo3..impl_..pyclass..PyMethods$LT$_native..py_config..PyResistConfig$GT$$u20$for$u20$pyo3..impl_..pyclass..PyClassImplCollector$LT$_native..py_config..PyResistConfig$GT$$GT$10py_methods17h224e788907e9c8eeE', symObjAddr: 0x250, symBinAddr: 0x13850, symSize: 0x14 }
  - { offsetInCU: 0x326F, offset: 0x56BB4, size: 0x8, addend: 0x0, symName: '__ZN7_native9py_config188_$LT$impl$u20$pyo3..impl_..pyclass..PyMethods$LT$_native..py_config..PyResistConfig$GT$$u20$for$u20$pyo3..impl_..pyclass..PyClassImplCollector$LT$_native..py_config..PyResistConfig$GT$$GT$10py_methods5ITEMS10trampoline202_$LT$impl$u20$pyo3..impl_..pyclass..PyClassNewTextSignature$LT$_native..py_config..PyResistConfig$GT$$u20$for$u20$pyo3..impl_..pyclass..PyClassImplCollector$LT$_native..py_config..PyResistConfig$GT$$GT$18new_text_signature17h6d6f73b94fcf25daE', symObjAddr: 0x264, symBinAddr: 0x13864, symSize: 0x1C }
  - { offsetInCU: 0x32B0, offset: 0x56BF5, size: 0x8, addend: 0x0, symName: '__ZN7_native9py_config188_$LT$impl$u20$pyo3..impl_..pyclass..PyMethods$LT$_native..py_config..PySourceConfig$GT$$u20$for$u20$pyo3..impl_..pyclass..PyClassImplCollector$LT$_native..py_config..PySourceConfig$GT$$GT$10py_methods17h2aae358db06070b4E', symObjAddr: 0x280, symBinAddr: 0x13880, symSize: 0x14 }
  - { offsetInCU: 0x32FB, offset: 0x56C40, size: 0x8, addend: 0x0, symName: '__ZN7_native9py_config188_$LT$impl$u20$pyo3..impl_..pyclass..PyMethods$LT$_native..py_config..PySourceConfig$GT$$u20$for$u20$pyo3..impl_..pyclass..PyClassImplCollector$LT$_native..py_config..PySourceConfig$GT$$GT$10py_methods5ITEMS10trampoline202_$LT$impl$u20$pyo3..impl_..pyclass..PyClassNewTextSignature$LT$_native..py_config..PySourceConfig$GT$$u20$for$u20$pyo3..impl_..pyclass..PyClassImplCollector$LT$_native..py_config..PySourceConfig$GT$$GT$18new_text_signature17he1060480d1e9bdbfE', symObjAddr: 0x294, symBinAddr: 0x13894, symSize: 0x1C }
  - { offsetInCU: 0x333C, offset: 0x56C81, size: 0x8, addend: 0x0, symName: '__ZN7_native9py_config190_$LT$impl$u20$pyo3..impl_..pyclass..PyMethods$LT$_native..py_config..PyProcessConfig$GT$$u20$for$u20$pyo3..impl_..pyclass..PyClassImplCollector$LT$_native..py_config..PyProcessConfig$GT$$GT$10py_methods17h381701a352d02218E', symObjAddr: 0x2B0, symBinAddr: 0x138B0, symSize: 0x14 }
  - { offsetInCU: 0x338A, offset: 0x56CCF, size: 0x8, addend: 0x0, symName: '__ZN7_native9py_config190_$LT$impl$u20$pyo3..impl_..pyclass..PyMethods$LT$_native..py_config..PyProcessConfig$GT$$u20$for$u20$pyo3..impl_..pyclass..PyClassImplCollector$LT$_native..py_config..PyProcessConfig$GT$$GT$10py_methods5ITEMS10trampoline204_$LT$impl$u20$pyo3..impl_..pyclass..PyClassNewTextSignature$LT$_native..py_config..PyProcessConfig$GT$$u20$for$u20$pyo3..impl_..pyclass..PyClassImplCollector$LT$_native..py_config..PyProcessConfig$GT$$GT$18new_text_signature17h4749ea7b926c2092E', symObjAddr: 0x2C4, symBinAddr: 0x138C4, symSize: 0x1C }
  - { offsetInCU: 0x33CE, offset: 0x56D13, size: 0x8, addend: 0x0, symName: '__ZN7_native9py_config194_$LT$impl$u20$pyo3..impl_..pyclass..PyMethods$LT$_native..py_config..PyFilmStackConfig$GT$$u20$for$u20$pyo3..impl_..pyclass..PyClassImplCollector$LT$_native..py_config..PyFilmStackConfig$GT$$GT$10py_methods17h825202d89367a0a2E', symObjAddr: 0x2E0, symBinAddr: 0x138E0, symSize: 0x14 }
  - { offsetInCU: 0x341C, offset: 0x56D61, size: 0x8, addend: 0x0, symName: '__ZN7_native9py_config194_$LT$impl$u20$pyo3..impl_..pyclass..PyMethods$LT$_native..py_config..PyFilmStackConfig$GT$$u20$for$u20$pyo3..impl_..pyclass..PyClassImplCollector$LT$_native..py_config..PyFilmStackConfig$GT$$GT$10py_methods5ITEMS10trampoline208_$LT$impl$u20$pyo3..impl_..pyclass..PyClassNewTextSignature$LT$_native..py_config..PyFilmStackConfig$GT$$u20$for$u20$pyo3..impl_..pyclass..PyClassImplCollector$LT$_native..py_config..PyFilmStackConfig$GT$$GT$18new_text_signature17h259c9145d2dc58f5E', symObjAddr: 0x2F4, symBinAddr: 0x138F4, symSize: 0x1C }
  - { offsetInCU: 0x1E, offset: 0x587C1, size: 0x8, addend: 0x0, symName: __ZN4core5slice20copy_from_slice_impl17h93f0530534308c98E, symObjAddr: 0x0, symBinAddr: 0x13910, symSize: 0xAC }
  - { offsetInCU: 0x897, offset: 0x5903A, size: 0x8, addend: 0x0, symName: '__ZN4core5slice29_$LT$impl$u20$$u5b$T$u5d$$GT$4iter17h42588464b88a62d6E', symObjAddr: 0xAC, symBinAddr: 0x139BC, symSize: 0x28 }
  - { offsetInCU: 0x8CF, offset: 0x59072, size: 0x8, addend: 0x0, symName: __ZN4core5slice20copy_from_slice_impl17h93f0530534308c98E, symObjAddr: 0x0, symBinAddr: 0x13910, symSize: 0xAC }
  - { offsetInCU: 0x1E, offset: 0x5A23A, size: 0x8, addend: 0x0, symName: __ZN4core3ptr9alignment9Alignment13new_unchecked18precondition_check17h8065d34a52fe0ac5E, symObjAddr: 0x0, symBinAddr: 0x139E4, symSize: 0x70 }
  - { offsetInCU: 0x8A, offset: 0x5A2A6, size: 0x8, addend: 0x0, symName: __ZN4core3ptr9alignment9Alignment13new_unchecked18precondition_check17h8065d34a52fe0ac5E, symObjAddr: 0x0, symBinAddr: 0x139E4, symSize: 0x70 }
  - { offsetInCU: 0x1E, offset: 0x5A38C, size: 0x8, addend: 0x0, symName: __ZN4core9ub_checks23maybe_is_nonoverlapping7runtime17hc9cc1a72566a16edE, symObjAddr: 0x0, symBinAddr: 0x13A54, symSize: 0xD8 }
  - { offsetInCU: 0x1A3, offset: 0x5A511, size: 0x8, addend: 0x0, symName: __ZN4core9ub_checks23maybe_is_nonoverlapping7runtime17hc9cc1a72566a16edE, symObjAddr: 0x0, symBinAddr: 0x13A54, symSize: 0xD8 }
  - { offsetInCU: 0x1E, offset: 0x5A724, size: 0x8, addend: 0x0, symName: '__ZN7ndarray12impl_methods49_$LT$impl$u20$ndarray..ArrayBase$LT$S$C$D$GT$$GT$17zip_mut_with_elem28_$u7b$$u7b$closure$u7d$$u7d$17hacba9573704a6b13E', symObjAddr: 0x0, symBinAddr: 0x13B2C, symSize: 0x34 }
  - { offsetInCU: 0x3F, offset: 0x5A745, size: 0x8, addend: 0x0, symName: '__ZN7ndarray12impl_methods49_$LT$impl$u20$ndarray..ArrayBase$LT$S$C$D$GT$$GT$17zip_mut_with_elem28_$u7b$$u7b$closure$u7d$$u7d$17hacba9573704a6b13E', symObjAddr: 0x0, symBinAddr: 0x13B2C, symSize: 0x34 }
  - { offsetInCU: 0xC0, offset: 0x5A7C6, size: 0x8, addend: 0x0, symName: '__ZN7ndarray12impl_methods49_$LT$impl$u20$ndarray..ArrayBase$LT$S$C$D$GT$$GT$20zip_mut_with_by_rows28_$u7b$$u7b$closure$u7d$$u7d$17h77c7eb3985135cc6E', symObjAddr: 0x34, symBinAddr: 0x13B60, symSize: 0x80 }
  - { offsetInCU: 0x14C, offset: 0x5A852, size: 0x8, addend: 0x0, symName: '__ZN7ndarray12impl_methods49_$LT$impl$u20$ndarray..ArrayBase$LT$S$C$D$GT$$GT$20zip_mut_with_by_rows28_$u7b$$u7b$closure$u7d$$u7d$17ha89353e1f710018bE', symObjAddr: 0xB4, symBinAddr: 0x13BE0, symSize: 0x80 }
  - { offsetInCU: 0x1E, offset: 0x5AB31, size: 0x8, addend: 0x0, symName: __ZN5numpy7convert9ToNpyDims11as_dims_ptr17h4103cfade750347aE, symObjAddr: 0x0, symBinAddr: 0x13C60, symSize: 0x30 }
  - { offsetInCU: 0x3A, offset: 0x5AB4D, size: 0x8, addend: 0x0, symName: __ZN5numpy7convert9ToNpyDims11as_dims_ptr17h4103cfade750347aE, symObjAddr: 0x0, symBinAddr: 0x13C60, symSize: 0x30 }
  - { offsetInCU: 0x71, offset: 0x5AB84, size: 0x8, addend: 0x0, symName: __ZN5numpy7convert9ToNpyDims11as_dims_ptr17hfb7817af3dbc27a0E, symObjAddr: 0x30, symBinAddr: 0x13C90, symSize: 0x30 }
  - { offsetInCU: 0xA8, offset: 0x5ABBB, size: 0x8, addend: 0x0, symName: __ZN5numpy7convert9ToNpyDims9ndim_cint17h69704614ec856372E, symObjAddr: 0x60, symBinAddr: 0x13CC0, symSize: 0x24 }
  - { offsetInCU: 0xDF, offset: 0x5ABF2, size: 0x8, addend: 0x0, symName: __ZN5numpy7convert9ToNpyDims9ndim_cint17h7566654f7119a6e7E, symObjAddr: 0x84, symBinAddr: 0x13CE4, symSize: 0x24 }
  - { offsetInCU: 0x1E, offset: 0x5AD0F, size: 0x8, addend: 0x0, symName: __ZN4pyo35impl_10trampoline11module_init17h7933a7ca3477ffdfE, symObjAddr: 0x0, symBinAddr: 0x13D08, symSize: 0x28 }
  - { offsetInCU: 0x14D5, offset: 0x5C1C6, size: 0x8, addend: 0x0, symName: __ZN4pyo35impl_10trampoline11module_init17h7933a7ca3477ffdfE, symObjAddr: 0x0, symBinAddr: 0x13D08, symSize: 0x28 }
  - { offsetInCU: 0x1501, offset: 0x5C1F2, size: 0x8, addend: 0x0, symName: __ZN4pyo35impl_10trampoline11richcmpfunc17h3c80b8dd4dd7a31aE, symObjAddr: 0x28, symBinAddr: 0x13D30, symSize: 0x50 }
  - { offsetInCU: 0x1557, offset: 0x5C248, size: 0x8, addend: 0x0, symName: __ZN4pyo35impl_10trampoline22fastcall_with_keywords17h8c25af1dc6469e10E, symObjAddr: 0x78, symBinAddr: 0x13D80, symSize: 0x5C }
  - { offsetInCU: 0x15BB, offset: 0x5C2AC, size: 0x8, addend: 0x0, symName: __ZN4pyo35impl_10trampoline6noargs17hcc2d00daa3214bc1E, symObjAddr: 0xD4, symBinAddr: 0x13DDC, symSize: 0x64 }
  - { offsetInCU: 0x1603, offset: 0x5C2F4, size: 0x8, addend: 0x0, symName: __ZN4pyo35impl_10trampoline7dealloc17h0c76e030f78700c8E, symObjAddr: 0x138, symBinAddr: 0x13E40, symSize: 0x34 }
  - { offsetInCU: 0x1639, offset: 0x5C32A, size: 0x8, addend: 0x0, symName: __ZN4pyo35impl_10trampoline7newfunc17h8050597b95ecb0d8E, symObjAddr: 0x16C, symBinAddr: 0x13E74, symSize: 0x50 }
  - { offsetInCU: 0x168F, offset: 0x5C380, size: 0x8, addend: 0x0, symName: __ZN4pyo35impl_10trampoline8reprfunc17hb54a9a0eb6e1a6cbE, symObjAddr: 0x1BC, symBinAddr: 0x13EC4, symSize: 0x30 }
  - { offsetInCU: 0x1E, offset: 0x5CD32, size: 0x8, addend: 0x0, symName: '__ZN77_$LT$highuvlith_core..error..LithographyError$u20$as$u20$core..fmt..Debug$GT$3fmt17h364fb7179d78e76fE', symObjAddr: 0x0, symBinAddr: 0x13EF4, symSize: 0x378 }
  - { offsetInCU: 0x628, offset: 0x5D33C, size: 0x8, addend: 0x0, symName: '__ZN77_$LT$highuvlith_core..error..LithographyError$u20$as$u20$core..fmt..Debug$GT$3fmt17h364fb7179d78e76fE', symObjAddr: 0x0, symBinAddr: 0x13EF4, symSize: 0x378 }
  - { offsetInCU: 0x1E, offset: 0x5D72B, size: 0x8, addend: 0x0, symName: '__ZN54_$LT$f64$u20$as$u20$core..iter..traits..accum..Sum$GT$3sum17h2e8d06d5ec2cbc57E', symObjAddr: 0x0, symBinAddr: 0x1426C, symSize: 0x34 }
  - { offsetInCU: 0x44, offset: 0x5D751, size: 0x8, addend: 0x0, symName: '__ZN54_$LT$f64$u20$as$u20$core..iter..traits..accum..Sum$GT$3sum17h2e8d06d5ec2cbc57E', symObjAddr: 0x0, symBinAddr: 0x1426C, symSize: 0x34 }
  - { offsetInCU: 0x7E, offset: 0x5D78B, size: 0x8, addend: 0x0, symName: '__ZN54_$LT$f64$u20$as$u20$core..iter..traits..accum..Sum$GT$3sum28_$u7b$$u7b$closure$u7d$$u7d$17hb9165287f8d05b51E', symObjAddr: 0x34, symBinAddr: 0x142A0, symSize: 0x1C }
  - { offsetInCU: 0x1E, offset: 0x5DAC5, size: 0x8, addend: 0x0, symName: __ZN4pyo36marker6Python13allow_threads17h7c1fcc6a177fe1a7E, symObjAddr: 0x0, symBinAddr: 0x142BC, symSize: 0xC4 }
  - { offsetInCU: 0x2105, offset: 0x5FBAC, size: 0x8, addend: 0x0, symName: __ZN4pyo36marker6Python13allow_threads17h7c1fcc6a177fe1a7E, symObjAddr: 0x0, symBinAddr: 0x142BC, symSize: 0xC4 }
  - { offsetInCU: 0x2224, offset: 0x5FCCB, size: 0x8, addend: 0x0, symName: __ZN4pyo36marker6Python13allow_threads17h97f5cffe4f0c1c9aE, symObjAddr: 0xC4, symBinAddr: 0x14380, symSize: 0xCC }
  - { offsetInCU: 0x1E, offset: 0x5FD79, size: 0x8, addend: 0x0, symName: '__ZN4pyo34sync20GILOnceCell$LT$T$GT$15get_or_try_init17h040d68bafd6cf7d6E', symObjAddr: 0x0, symBinAddr: 0x1444C, symSize: 0xB4 }
  - { offsetInCU: 0x29AE, offset: 0x62709, size: 0x8, addend: 0x0, symName: '__ZN4pyo34sync20GILOnceCell$LT$T$GT$15get_or_try_init17h040d68bafd6cf7d6E', symObjAddr: 0x0, symBinAddr: 0x1444C, symSize: 0xB4 }
  - { offsetInCU: 0x2A27, offset: 0x62782, size: 0x8, addend: 0x0, symName: '__ZN4pyo34sync20GILOnceCell$LT$T$GT$15get_or_try_init17h08a0f5a572fd2259E', symObjAddr: 0xB4, symBinAddr: 0x14500, symSize: 0xB4 }
  - { offsetInCU: 0x2AA0, offset: 0x627FB, size: 0x8, addend: 0x0, symName: '__ZN4pyo34sync20GILOnceCell$LT$T$GT$15get_or_try_init17h151ba0d40700076eE', symObjAddr: 0x168, symBinAddr: 0x145B4, symSize: 0xB4 }
  - { offsetInCU: 0x2B19, offset: 0x62874, size: 0x8, addend: 0x0, symName: '__ZN4pyo34sync20GILOnceCell$LT$T$GT$15get_or_try_init17h169fcbad1c585866E', symObjAddr: 0x21C, symBinAddr: 0x14668, symSize: 0xB4 }
  - { offsetInCU: 0x2B92, offset: 0x628ED, size: 0x8, addend: 0x0, symName: '__ZN4pyo34sync20GILOnceCell$LT$T$GT$15get_or_try_init17h25278dc7e090c76eE', symObjAddr: 0x2D0, symBinAddr: 0x1471C, symSize: 0xB4 }
  - { offsetInCU: 0x2C0B, offset: 0x62966, size: 0x8, addend: 0x0, symName: '__ZN4pyo34sync20GILOnceCell$LT$T$GT$15get_or_try_init17h2fb821ff5a2b82c4E', symObjAddr: 0x384, symBinAddr: 0x147D0, symSize: 0xB4 }
  - { offsetInCU: 0x2C84, offset: 0x629DF, size: 0x8, addend: 0x0, symName: '__ZN4pyo34sync20GILOnceCell$LT$T$GT$15get_or_try_init17h3957fd6458beaec4E', symObjAddr: 0x438, symBinAddr: 0x14884, symSize: 0xB4 }
  - { offsetInCU: 0x2CFD, offset: 0x62A58, size: 0x8, addend: 0x0, symName: '__ZN4pyo34sync20GILOnceCell$LT$T$GT$15get_or_try_init17h45abb8f1d8e64816E', symObjAddr: 0x4EC, symBinAddr: 0x14938, symSize: 0xB4 }
  - { offsetInCU: 0x2D76, offset: 0x62AD1, size: 0x8, addend: 0x0, symName: '__ZN4pyo34sync20GILOnceCell$LT$T$GT$15get_or_try_init17h545d4045581a290bE', symObjAddr: 0x5A0, symBinAddr: 0x149EC, symSize: 0xB4 }
  - { offsetInCU: 0x2DEF, offset: 0x62B4A, size: 0x8, addend: 0x0, symName: '__ZN4pyo34sync20GILOnceCell$LT$T$GT$15get_or_try_init17h7927fb8fdd34c07bE', symObjAddr: 0x654, symBinAddr: 0x14AA0, symSize: 0xB4 }
  - { offsetInCU: 0x2E68, offset: 0x62BC3, size: 0x8, addend: 0x0, symName: '__ZN4pyo34sync20GILOnceCell$LT$T$GT$15get_or_try_init17h86f71955e1f071fcE', symObjAddr: 0x708, symBinAddr: 0x14B54, symSize: 0xB4 }
  - { offsetInCU: 0x2EE1, offset: 0x62C3C, size: 0x8, addend: 0x0, symName: '__ZN4pyo34sync20GILOnceCell$LT$T$GT$15get_or_try_init17h9a885cb3d3619329E', symObjAddr: 0x7BC, symBinAddr: 0x14C08, symSize: 0xB4 }
  - { offsetInCU: 0x2F5A, offset: 0x62CB5, size: 0x8, addend: 0x0, symName: '__ZN4pyo34sync20GILOnceCell$LT$T$GT$15get_or_try_init17hb800ed71f47d4839E', symObjAddr: 0x870, symBinAddr: 0x14CBC, symSize: 0xB4 }
  - { offsetInCU: 0x2FD3, offset: 0x62D2E, size: 0x8, addend: 0x0, symName: '__ZN4pyo34sync20GILOnceCell$LT$T$GT$15get_or_try_init17hc35297d639badd37E', symObjAddr: 0x924, symBinAddr: 0x14D70, symSize: 0xB4 }
  - { offsetInCU: 0x304C, offset: 0x62DA7, size: 0x8, addend: 0x0, symName: '__ZN4pyo34sync20GILOnceCell$LT$T$GT$15get_or_try_init17hc56b3264403ac196E', symObjAddr: 0x9D8, symBinAddr: 0x14E24, symSize: 0xB4 }
  - { offsetInCU: 0x30C5, offset: 0x62E20, size: 0x8, addend: 0x0, symName: '__ZN4pyo34sync20GILOnceCell$LT$T$GT$15get_or_try_init17hd2bf2798932bc50cE', symObjAddr: 0xA8C, symBinAddr: 0x14ED8, symSize: 0xB4 }
  - { offsetInCU: 0x313E, offset: 0x62E99, size: 0x8, addend: 0x0, symName: '__ZN4pyo34sync20GILOnceCell$LT$T$GT$15get_or_try_init17he347388f2dd5afa8E', symObjAddr: 0xB40, symBinAddr: 0x14F8C, symSize: 0xB4 }
  - { offsetInCU: 0x31B7, offset: 0x62F12, size: 0x8, addend: 0x0, symName: '__ZN4pyo34sync20GILOnceCell$LT$T$GT$15get_or_try_init17he7c88898c61b953bE', symObjAddr: 0xBF4, symBinAddr: 0x15040, symSize: 0xB4 }
  - { offsetInCU: 0x32A4, offset: 0x62FFF, size: 0x8, addend: 0x0, symName: '__ZN4pyo34sync20GILOnceCell$LT$T$GT$4init17h0d368c8bb43cc276E', symObjAddr: 0xCA8, symBinAddr: 0x691614, symSize: 0x1A0 }
  - { offsetInCU: 0x337B, offset: 0x630D6, size: 0x8, addend: 0x0, symName: '__ZN4pyo34sync20GILOnceCell$LT$T$GT$4init17h164267af1efb47deE', symObjAddr: 0xE48, symBinAddr: 0x6917B4, symSize: 0x1A0 }
  - { offsetInCU: 0x3452, offset: 0x631AD, size: 0x8, addend: 0x0, symName: '__ZN4pyo34sync20GILOnceCell$LT$T$GT$4init17h1670b3a72bbd070cE', symObjAddr: 0xFE8, symBinAddr: 0x691954, symSize: 0x1A0 }
  - { offsetInCU: 0x3529, offset: 0x63284, size: 0x8, addend: 0x0, symName: '__ZN4pyo34sync20GILOnceCell$LT$T$GT$4init17h1ae4f31c7b91a801E', symObjAddr: 0x1188, symBinAddr: 0x691AF4, symSize: 0x1A0 }
  - { offsetInCU: 0x3600, offset: 0x6335B, size: 0x8, addend: 0x0, symName: '__ZN4pyo34sync20GILOnceCell$LT$T$GT$4init17h1ce4991e67e36a90E', symObjAddr: 0x1328, symBinAddr: 0x691C94, symSize: 0x1A0 }
  - { offsetInCU: 0x36D7, offset: 0x63432, size: 0x8, addend: 0x0, symName: '__ZN4pyo34sync20GILOnceCell$LT$T$GT$4init17h1d7afeef6e2195b7E', symObjAddr: 0x14C8, symBinAddr: 0x691E34, symSize: 0x1A0 }
  - { offsetInCU: 0x37AE, offset: 0x63509, size: 0x8, addend: 0x0, symName: '__ZN4pyo34sync20GILOnceCell$LT$T$GT$4init17h36531bbbf0ecc63dE', symObjAddr: 0x1668, symBinAddr: 0x691FD4, symSize: 0x1A0 }
  - { offsetInCU: 0x3885, offset: 0x635E0, size: 0x8, addend: 0x0, symName: '__ZN4pyo34sync20GILOnceCell$LT$T$GT$4init17h36c60593cf00f604E', symObjAddr: 0x1808, symBinAddr: 0x692174, symSize: 0x1A0 }
  - { offsetInCU: 0x395C, offset: 0x636B7, size: 0x8, addend: 0x0, symName: '__ZN4pyo34sync20GILOnceCell$LT$T$GT$4init17h6682ba7916a72458E', symObjAddr: 0x19A8, symBinAddr: 0x692314, symSize: 0x1A0 }
  - { offsetInCU: 0x3A33, offset: 0x6378E, size: 0x8, addend: 0x0, symName: '__ZN4pyo34sync20GILOnceCell$LT$T$GT$4init17h7281c221bfc1eeb6E', symObjAddr: 0x1B48, symBinAddr: 0x6924B4, symSize: 0x1A0 }
  - { offsetInCU: 0x3B0A, offset: 0x63865, size: 0x8, addend: 0x0, symName: '__ZN4pyo34sync20GILOnceCell$LT$T$GT$4init17h79f8d5f429ad5ad8E', symObjAddr: 0x1CE8, symBinAddr: 0x692654, symSize: 0x1A0 }
  - { offsetInCU: 0x3BE1, offset: 0x6393C, size: 0x8, addend: 0x0, symName: '__ZN4pyo34sync20GILOnceCell$LT$T$GT$4init17h86d6af4653379068E', symObjAddr: 0x1E88, symBinAddr: 0x6927F4, symSize: 0x1A0 }
  - { offsetInCU: 0x3CB8, offset: 0x63A13, size: 0x8, addend: 0x0, symName: '__ZN4pyo34sync20GILOnceCell$LT$T$GT$4init17h946bd584d51faabfE', symObjAddr: 0x2028, symBinAddr: 0x692994, symSize: 0x1A0 }
  - { offsetInCU: 0x3D8F, offset: 0x63AEA, size: 0x8, addend: 0x0, symName: '__ZN4pyo34sync20GILOnceCell$LT$T$GT$4init17ha51208421c8bf7ebE', symObjAddr: 0x21C8, symBinAddr: 0x692B34, symSize: 0x1A0 }
  - { offsetInCU: 0x3E66, offset: 0x63BC1, size: 0x8, addend: 0x0, symName: '__ZN4pyo34sync20GILOnceCell$LT$T$GT$4init17hafadb777d1b03175E', symObjAddr: 0x2368, symBinAddr: 0x692CD4, symSize: 0x1A0 }
  - { offsetInCU: 0x3F3D, offset: 0x63C98, size: 0x8, addend: 0x0, symName: '__ZN4pyo34sync20GILOnceCell$LT$T$GT$4init17hb2cfd351884298e8E', symObjAddr: 0x2508, symBinAddr: 0x692E74, symSize: 0x1A0 }
  - { offsetInCU: 0x4014, offset: 0x63D6F, size: 0x8, addend: 0x0, symName: '__ZN4pyo34sync20GILOnceCell$LT$T$GT$4init17hdb2ed2407783753cE', symObjAddr: 0x26A8, symBinAddr: 0x693014, symSize: 0x1A0 }
  - { offsetInCU: 0x40EB, offset: 0x63E46, size: 0x8, addend: 0x0, symName: '__ZN4pyo34sync20GILOnceCell$LT$T$GT$4init17he3bc7944227e5a9aE', symObjAddr: 0x2848, symBinAddr: 0x6931B4, symSize: 0x1A0 }
  - { offsetInCU: 0x1E, offset: 0x63F3B, size: 0x8, addend: 0x0, symName: __ZN4pyo35impl_9pymethods11tp_new_impl17h29f34d09fc44afc0E, symObjAddr: 0x0, symBinAddr: 0x150F4, symSize: 0x6C }
  - { offsetInCU: 0x16D3, offset: 0x655F0, size: 0x8, addend: 0x0, symName: '__ZN50_$LT$T$u20$as$u20$core..convert..Into$LT$U$GT$$GT$4into17h267c3c1444140818E', symObjAddr: 0x4DC, symBinAddr: 0x155D0, symSize: 0x24 }
  - { offsetInCU: 0x1713, offset: 0x65630, size: 0x8, addend: 0x0, symName: '__ZN50_$LT$T$u20$as$u20$core..convert..Into$LT$U$GT$$GT$4into17h670fb17bc265fcdeE', symObjAddr: 0x500, symBinAddr: 0x155F4, symSize: 0x24 }
  - { offsetInCU: 0x2805, offset: 0x66722, size: 0x8, addend: 0x0, symName: __ZN4pyo35impl_9pymethods11tp_new_impl17h29f34d09fc44afc0E, symObjAddr: 0x0, symBinAddr: 0x150F4, symSize: 0x6C }
  - { offsetInCU: 0x286A, offset: 0x66787, size: 0x8, addend: 0x0, symName: __ZN4pyo35impl_9pymethods11tp_new_impl17h50ffcabc134269c6E, symObjAddr: 0x6C, symBinAddr: 0x15160, symSize: 0x54 }
  - { offsetInCU: 0x28CC, offset: 0x667E9, size: 0x8, addend: 0x0, symName: __ZN4pyo35impl_9pymethods11tp_new_impl17h68f7067a38a562f6E, symObjAddr: 0xC0, symBinAddr: 0x151B4, symSize: 0x64 }
  - { offsetInCU: 0x292F, offset: 0x6684C, size: 0x8, addend: 0x0, symName: __ZN4pyo35impl_9pymethods11tp_new_impl17h7b8a4ef59f71bcdeE, symObjAddr: 0x124, symBinAddr: 0x15218, symSize: 0x6C }
  - { offsetInCU: 0x2994, offset: 0x668B1, size: 0x8, addend: 0x0, symName: __ZN4pyo35impl_9pymethods11tp_new_impl17h97a6561ca63f4bfcE, symObjAddr: 0x190, symBinAddr: 0x15284, symSize: 0x54 }
  - { offsetInCU: 0x29F6, offset: 0x66913, size: 0x8, addend: 0x0, symName: __ZN4pyo35impl_9pymethods11tp_new_impl17hadcc65f9163e7db9E, symObjAddr: 0x1E4, symBinAddr: 0x152D8, symSize: 0x64 }
  - { offsetInCU: 0x2A5B, offset: 0x66978, size: 0x8, addend: 0x0, symName: __ZN4pyo35impl_9pymethods11tp_new_impl17hbb836678a68014f4E, symObjAddr: 0x248, symBinAddr: 0x1533C, symSize: 0x6C }
  - { offsetInCU: 0x2AC0, offset: 0x669DD, size: 0x8, addend: 0x0, symName: __ZN4pyo35impl_9pymethods11tp_new_impl17hbfb179bd68b88287E, symObjAddr: 0x2B4, symBinAddr: 0x153A8, symSize: 0x6C }
  - { offsetInCU: 0x2B25, offset: 0x66A42, size: 0x8, addend: 0x0, symName: __ZN4pyo35impl_9pymethods11tp_new_impl17hc2e5c7214c1c065bE, symObjAddr: 0x320, symBinAddr: 0x15414, symSize: 0x6C }
  - { offsetInCU: 0x2B8A, offset: 0x66AA7, size: 0x8, addend: 0x0, symName: __ZN4pyo35impl_9pymethods11tp_new_impl17hced0dbc02eb47c2dE, symObjAddr: 0x38C, symBinAddr: 0x15480, symSize: 0x64 }
  - { offsetInCU: 0x2BEF, offset: 0x66B0C, size: 0x8, addend: 0x0, symName: __ZN4pyo35impl_9pymethods11tp_new_impl17he17e375a6e9e3ceaE, symObjAddr: 0x3F0, symBinAddr: 0x154E4, symSize: 0x64 }
  - { offsetInCU: 0x2C54, offset: 0x66B71, size: 0x8, addend: 0x0, symName: __ZN4pyo35impl_9pymethods11tp_new_impl17hee23733b71d3397dE, symObjAddr: 0x454, symBinAddr: 0x15548, symSize: 0x64 }
  - { offsetInCU: 0x2D18, offset: 0x66C35, size: 0x8, addend: 0x0, symName: '__ZN85_$LT$pyo3..impl_..pymethods..BoundRef$LT$T$GT$$u20$as$u20$core..ops..deref..Deref$GT$5deref17h5e51011039fcd2f9E', symObjAddr: 0x524, symBinAddr: 0x15618, symSize: 0x18 }
  - { offsetInCU: 0x3FC1, offset: 0x67EDE, size: 0x8, addend: 0x0, symName: '__ZN4pyo35impl_9pymethods39BoundRef$LT$pyo3..types..any..PyAny$GT$18downcast_unchecked17hcb60c2e34b139cd5E', symObjAddr: 0x4B8, symBinAddr: 0x155AC, symSize: 0x24 }
  - { offsetInCU: 0x1E, offset: 0x68B8E, size: 0x8, addend: 0x0, symName: __ZN4pyo33err5PyErr3new17habfb855db85a4bc3E, symObjAddr: 0x0, symBinAddr: 0x15630, symSize: 0x9C }
  - { offsetInCU: 0x73, offset: 0x68BE3, size: 0x8, addend: 0x0, symName: '__ZN4pyo33err5PyErr3new28_$u7b$$u7b$closure$u7d$$u7d$17h28b68d23f85b6bbdE', symObjAddr: 0x138, symBinAddr: 0x15768, symSize: 0xC0 }
  - { offsetInCU: 0xCB, offset: 0x68C3B, size: 0x8, addend: 0x0, symName: '__ZN4pyo33err5PyErr3new28_$u7b$$u7b$closure$u7d$$u7d$17he3a675b32041549cE', symObjAddr: 0x1F8, symBinAddr: 0x15828, symSize: 0xC0 }
  - { offsetInCU: 0x1E17, offset: 0x6A987, size: 0x8, addend: 0x0, symName: __ZN4pyo33err5PyErr3new17habfb855db85a4bc3E, symObjAddr: 0x0, symBinAddr: 0x15630, symSize: 0x9C }
  - { offsetInCU: 0x1E75, offset: 0x6A9E5, size: 0x8, addend: 0x0, symName: __ZN4pyo33err5PyErr3new17hb82de374821b1643E, symObjAddr: 0x9C, symBinAddr: 0x156CC, symSize: 0x9C }
  - { offsetInCU: 0x1E, offset: 0x6AA8C, size: 0x8, addend: 0x0, symName: '__ZN4core3cmp5impls69_$LT$impl$u20$core..cmp..PartialEq$LT$$RF$B$GT$$u20$for$u20$$RF$A$GT$2ne17hb50662ba6f7cee67E', symObjAddr: 0x0, symBinAddr: 0x158E8, symSize: 0x44 }
  - { offsetInCU: 0x3F, offset: 0x6AAAD, size: 0x8, addend: 0x0, symName: '__ZN4core3cmp5impls69_$LT$impl$u20$core..cmp..PartialEq$LT$$RF$B$GT$$u20$for$u20$$RF$A$GT$2ne17hb50662ba6f7cee67E', symObjAddr: 0x0, symBinAddr: 0x158E8, symSize: 0x44 }
  - { offsetInCU: 0x1E, offset: 0x6AB60, size: 0x8, addend: 0x0, symName: __ZN4core4iter6traits8iterator8Iterator3map17hd387b008d01d7a8eE, symObjAddr: 0x0, symBinAddr: 0x1592C, symSize: 0x1C }
  - { offsetInCU: 0x853, offset: 0x6B395, size: 0x8, addend: 0x0, symName: __ZN4core4iter6traits8iterator8Iterator3map17hd387b008d01d7a8eE, symObjAddr: 0x0, symBinAddr: 0x1592C, symSize: 0x1C }
  - { offsetInCU: 0x8AB, offset: 0x6B3ED, size: 0x8, addend: 0x0, symName: __ZN4core4iter6traits8iterator8Iterator6copied17h8b0a88daf96a8c7aE, symObjAddr: 0x1C, symBinAddr: 0x15948, symSize: 0x1C }
  - { offsetInCU: 0x8EB, offset: 0x6B42D, size: 0x8, addend: 0x0, symName: __ZN4core4iter6traits8iterator8Iterator9enumerate17hb1e43562e4089085E, symObjAddr: 0x38, symBinAddr: 0x15964, symSize: 0x28 }
  - { offsetInCU: 0xB34, offset: 0x6B676, size: 0x8, addend: 0x0, symName: '__ZN91_$LT$core..slice..iter..Iter$LT$T$GT$$u20$as$u20$core..iter..traits..iterator..Iterator$GT$4fold17h15832a6e163962ecE', symObjAddr: 0x150, symBinAddr: 0x15A7C, symSize: 0x1F0 }
  - { offsetInCU: 0xD3D, offset: 0x6B87F, size: 0x8, addend: 0x0, symName: '__ZN91_$LT$core..slice..iter..Iter$LT$T$GT$$u20$as$u20$core..iter..traits..iterator..Iterator$GT$4next17h6fba7dc8612ce9dfE', symObjAddr: 0x340, symBinAddr: 0x15C6C, symSize: 0x84 }
  - { offsetInCU: 0xDF3, offset: 0x6B935, size: 0x8, addend: 0x0, symName: '__ZN91_$LT$core..slice..iter..Iter$LT$T$GT$$u20$as$u20$core..iter..traits..iterator..Iterator$GT$4next17h98d2ba92078f073dE', symObjAddr: 0x3C4, symBinAddr: 0x15CF0, symSize: 0x84 }
  - { offsetInCU: 0xEA9, offset: 0x6B9EB, size: 0x8, addend: 0x0, symName: '__ZN91_$LT$core..slice..iter..Iter$LT$T$GT$$u20$as$u20$core..iter..traits..iterator..Iterator$GT$4next17hb8eaf437530a1938E', symObjAddr: 0x448, symBinAddr: 0x15D74, symSize: 0x84 }
  - { offsetInCU: 0xFAE, offset: 0x6BAF0, size: 0x8, addend: 0x0, symName: '__ZN91_$LT$core..slice..iter..Iter$LT$T$GT$$u20$as$u20$core..iter..traits..iterator..Iterator$GT$8position17h03d56dbfce00e83bE', symObjAddr: 0x4CC, symBinAddr: 0x15DF8, symSize: 0x1D0 }
  - { offsetInCU: 0x120B, offset: 0x6BD4D, size: 0x8, addend: 0x0, symName: '__ZN91_$LT$core..slice..iter..Iter$LT$T$GT$$u20$as$u20$core..iter..traits..iterator..Iterator$GT$8position17h6f025797ff3af32dE', symObjAddr: 0x69C, symBinAddr: 0x15FC8, symSize: 0x1D0 }
  - { offsetInCU: 0x148B, offset: 0x6BFCD, size: 0x8, addend: 0x0, symName: '__ZN94_$LT$core..slice..iter..IterMut$LT$T$GT$$u20$as$u20$core..iter..traits..iterator..Iterator$GT$4next17h96dbe4fbeb7d4d69E', symObjAddr: 0x86C, symBinAddr: 0x16198, symSize: 0x84 }
  - { offsetInCU: 0x1590, offset: 0x6C0D2, size: 0x8, addend: 0x0, symName: '__ZN94_$LT$core..slice..iter..IterMut$LT$T$GT$$u20$as$u20$core..iter..traits..iterator..Iterator$GT$8for_each17h0cebe7708a82655eE', symObjAddr: 0x8F0, symBinAddr: 0x1621C, symSize: 0xB4 }
  - { offsetInCU: 0x2DE9, offset: 0x6D92B, size: 0x8, addend: 0x0, symName: '__ZN4core5slice4iter13Iter$LT$T$GT$3new17h1b77399c5ad9cb5bE', symObjAddr: 0x60, symBinAddr: 0x1598C, symSize: 0x50 }
  - { offsetInCU: 0x35C5, offset: 0x6E107, size: 0x8, addend: 0x0, symName: '__ZN4core5slice4iter13Iter$LT$T$GT$3new17hf13d36497865ed58E', symObjAddr: 0xB0, symBinAddr: 0x159DC, symSize: 0x50 }
  - { offsetInCU: 0x38A6, offset: 0x6E3E8, size: 0x8, addend: 0x0, symName: '__ZN4core5slice4iter13Iter$LT$T$GT$3new17hf80f6ef66b9dff1eE', symObjAddr: 0x100, symBinAddr: 0x15A2C, symSize: 0x50 }
  - { offsetInCU: 0x1E, offset: 0x6E909, size: 0x8, addend: 0x0, symName: '__ZN111_$LT$T$u20$as$u20$pyo3..impl_..callback..IntoPyCallbackOutput$LT$$BP$mut$u20$pyo3_ffi..object..PyObject$GT$$GT$7convert17h108cbdfab7de3126E', symObjAddr: 0x0, symBinAddr: 0x162D0, symSize: 0x44 }
  - { offsetInCU: 0x14BD, offset: 0x6FDA8, size: 0x8, addend: 0x0, symName: '__ZN111_$LT$T$u20$as$u20$pyo3..impl_..callback..IntoPyCallbackOutput$LT$$BP$mut$u20$pyo3_ffi..object..PyObject$GT$$GT$7convert17h108cbdfab7de3126E', symObjAddr: 0x0, symBinAddr: 0x162D0, symSize: 0x44 }
  - { offsetInCU: 0x1E, offset: 0x70747, size: 0x8, addend: 0x0, symName: '__ZN58_$LT$alloc..string..String$u20$as$u20$core..fmt..Debug$GT$3fmt17h90e5d6cf1ef695e0E', symObjAddr: 0x0, symBinAddr: 0x16314, symSize: 0x3C }
  - { offsetInCU: 0x3C7, offset: 0x70AF0, size: 0x8, addend: 0x0, symName: '__ZN58_$LT$alloc..string..String$u20$as$u20$core..fmt..Debug$GT$3fmt17h90e5d6cf1ef695e0E', symObjAddr: 0x0, symBinAddr: 0x16314, symSize: 0x3C }
  - { offsetInCU: 0x4B3, offset: 0x70BDC, size: 0x8, addend: 0x0, symName: '__ZN58_$LT$alloc..string..String$u20$as$u20$core..fmt..Write$GT$10write_char17ha2eb962478941e80E', symObjAddr: 0x3C, symBinAddr: 0x16350, symSize: 0x30 }
  - { offsetInCU: 0x4F0, offset: 0x70C19, size: 0x8, addend: 0x0, symName: '__ZN58_$LT$alloc..string..String$u20$as$u20$core..fmt..Write$GT$9write_str17hd3f5df20d1dc098bE', symObjAddr: 0x6C, symBinAddr: 0x16380, symSize: 0x38 }
  - { offsetInCU: 0xD00, offset: 0x71429, size: 0x8, addend: 0x0, symName: __ZN5alloc6string6String4push17hab06d3159c556311E, symObjAddr: 0xA4, symBinAddr: 0x163B8, symSize: 0x114 }
  - { offsetInCU: 0x10A2, offset: 0x717CB, size: 0x8, addend: 0x0, symName: __ZN5alloc6string6String8push_str17h7c942b1369fe0126E, symObjAddr: 0x1B8, symBinAddr: 0x164CC, symSize: 0xDC }
  - { offsetInCU: 0x1E, offset: 0x71B7A, size: 0x8, addend: 0x0, symName: '__ZN4core5slice29_$LT$impl$u20$$u5b$T$u5d$$GT$18split_at_unchecked18precondition_check17h72253567b2475a07E', symObjAddr: 0x0, symBinAddr: 0x165A8, symSize: 0x60 }
  - { offsetInCU: 0x3F, offset: 0x71B9B, size: 0x8, addend: 0x0, symName: '__ZN4core5slice29_$LT$impl$u20$$u5b$T$u5d$$GT$18split_at_unchecked18precondition_check17h72253567b2475a07E', symObjAddr: 0x0, symBinAddr: 0x165A8, symSize: 0x60 }
  - { offsetInCU: 0x1E, offset: 0x71C45, size: 0x8, addend: 0x0, symName: '__ZN111_$LT$alloc..vec..in_place_drop..InPlaceDstDataSrcBufDrop$LT$Src$C$Dest$GT$$u20$as$u20$core..ops..drop..Drop$GT$4drop17hd1d00609779a24c2E', symObjAddr: 0x0, symBinAddr: 0x16608, symSize: 0xB4 }
  - { offsetInCU: 0xBC4, offset: 0x727EB, size: 0x8, addend: 0x0, symName: '__ZN4core3ptr100drop_in_place$LT$core..result..Result$LT$_native..py_config..PyGridConfig$C$pyo3..err..PyErr$GT$$GT$17h63af78bde7b14c22E', symObjAddr: 0x17BC, symBinAddr: 0x17DA0, symSize: 0x40 }
  - { offsetInCU: 0xBF3, offset: 0x7281A, size: 0x8, addend: 0x0, symName: '__ZN4core3ptr100drop_in_place$LT$core..result..Result$LT$_native..py_config..PyMaskConfig$C$pyo3..err..PyErr$GT$$GT$17hdfea854cc6cf203dE', symObjAddr: 0x17FC, symBinAddr: 0x17DE0, symSize: 0x50 }
  - { offsetInCU: 0xC22, offset: 0x72849, size: 0x8, addend: 0x0, symName: '__ZN4core3ptr100drop_in_place$LT$pyo3..pyclass_init..PyClassInitializer$LT$_native..py_mnsl..PySpherePacking$GT$$GT$17hf9c1a76b6a1ab64dE', symObjAddr: 0x184C, symBinAddr: 0x17E30, symSize: 0x24 }
  - { offsetInCU: 0xC51, offset: 0x72878, size: 0x8, addend: 0x0, symName: '__ZN4core3ptr101drop_in_place$LT$pyo3..pyclass_init..PyClassInitializer$LT$_native..py_config..PyOpticsConfig$GT$$GT$17haba192ad98036096E', symObjAddr: 0x1870, symBinAddr: 0x17E54, symSize: 0x24 }
  - { offsetInCU: 0xC80, offset: 0x728A7, size: 0x8, addend: 0x0, symName: '__ZN4core3ptr101drop_in_place$LT$pyo3..pyclass_init..PyClassInitializer$LT$_native..py_config..PyResistConfig$GT$$GT$17ha9f76111f247274aE', symObjAddr: 0x1894, symBinAddr: 0x17E78, symSize: 0x24 }
  - { offsetInCU: 0xCAF, offset: 0x728D6, size: 0x8, addend: 0x0, symName: '__ZN4core3ptr101drop_in_place$LT$pyo3..pyclass_init..PyClassInitializer$LT$_native..py_config..PySourceConfig$GT$$GT$17h24846072563113bcE', symObjAddr: 0x18B8, symBinAddr: 0x17E9C, symSize: 0x24 }
  - { offsetInCU: 0xCDE, offset: 0x72905, size: 0x8, addend: 0x0, symName: '__ZN4core3ptr101drop_in_place$LT$pyo3..pyclass_init..PyClassInitializerImpl$LT$_native..py_mnsl..PyMnslConfig$GT$$GT$17h365141aa54eb6aa4E', symObjAddr: 0x18DC, symBinAddr: 0x17EC0, symSize: 0x58 }
  - { offsetInCU: 0xD0D, offset: 0x72934, size: 0x8, addend: 0x0, symName: '__ZN4core3ptr101drop_in_place$LT$pyo3..pyclass_init..PyClassInitializerImpl$LT$_native..py_mnsl..PyMnslEngine$GT$$GT$17h0d0d9bbf1caa40bfE', symObjAddr: 0x1934, symBinAddr: 0x17F18, symSize: 0x58 }
  - { offsetInCU: 0xD3C, offset: 0x72963, size: 0x8, addend: 0x0, symName: '__ZN4core3ptr101drop_in_place$LT$pyo3..pyclass_init..PyClassInitializerImpl$LT$_native..py_mnsl..PyMnslResult$GT$$GT$17h3e09adf16d1ad669E', symObjAddr: 0x198C, symBinAddr: 0x17F70, symSize: 0x58 }
  - { offsetInCU: 0xD6B, offset: 0x72992, size: 0x8, addend: 0x0, symName: '__ZN4core3ptr102drop_in_place$LT$core..result..Result$LT$_native..py_config..PyOpticsConfig$C$pyo3..err..PyErr$GT$$GT$17h6a794920bd7abaeaE', symObjAddr: 0x19E4, symBinAddr: 0x17FC8, symSize: 0x58 }
  - { offsetInCU: 0xD9A, offset: 0x729C1, size: 0x8, addend: 0x0, symName: '__ZN4core3ptr102drop_in_place$LT$core..result..Result$LT$_native..py_config..PyResistConfig$C$pyo3..err..PyErr$GT$$GT$17h479f5ba2c5602ae5E', symObjAddr: 0x1A3C, symBinAddr: 0x18020, symSize: 0x4C }
  - { offsetInCU: 0xDC9, offset: 0x729F0, size: 0x8, addend: 0x0, symName: '__ZN4core3ptr102drop_in_place$LT$core..result..Result$LT$_native..py_config..PySourceConfig$C$pyo3..err..PyErr$GT$$GT$17h0e19b68b90d750e0E', symObjAddr: 0x1A88, symBinAddr: 0x1806C, symSize: 0x58 }
  - { offsetInCU: 0xDF8, offset: 0x72A1F, size: 0x8, addend: 0x0, symName: '__ZN4core3ptr102drop_in_place$LT$pyo3..pyclass_init..PyClassInitializer$LT$_native..py_config..PyProcessConfig$GT$$GT$17h16f520b029ba65b0E', symObjAddr: 0x1AE0, symBinAddr: 0x180C4, symSize: 0x24 }
  - { offsetInCU: 0xE27, offset: 0x72A4E, size: 0x8, addend: 0x0, symName: '__ZN4core3ptr102drop_in_place$LT$pyo3..pyclass_init..PyClassInitializer$LT$_native..py_sweep..PyBatchSimulator$GT$$GT$17haf7aa949bed7f0e5E', symObjAddr: 0x1B04, symBinAddr: 0x180E8, symSize: 0x24 }
  - { offsetInCU: 0xE56, offset: 0x72A7D, size: 0x8, addend: 0x0, symName: '__ZN4core3ptr103drop_in_place$LT$core..result..Result$LT$_native..py_sweep..PyBatchSimulator$C$pyo3..err..PyErr$GT$$GT$17he32d7359975ee3d3E', symObjAddr: 0x1B28, symBinAddr: 0x1810C, symSize: 0x58 }
  - { offsetInCU: 0xE85, offset: 0x72AAC, size: 0x8, addend: 0x0, symName: '__ZN4core3ptr103drop_in_place$LT$pyo3..pyclass_init..PyClassInitializerImpl$LT$_native..py_config..PyGridConfig$GT$$GT$17h553052033800d61cE', symObjAddr: 0x1B80, symBinAddr: 0x18164, symSize: 0x40 }
  - { offsetInCU: 0xEB4, offset: 0x72ADB, size: 0x8, addend: 0x0, symName: '__ZN4core3ptr103drop_in_place$LT$pyo3..pyclass_init..PyClassInitializerImpl$LT$_native..py_config..PyMaskConfig$GT$$GT$17hb0d273cc632ebabdE', symObjAddr: 0x1BC0, symBinAddr: 0x181A4, symSize: 0x54 }
  - { offsetInCU: 0xEE3, offset: 0x72B0A, size: 0x8, addend: 0x0, symName: '__ZN4core3ptr104drop_in_place$LT$pyo3..pyclass_init..PyClassInitializer$LT$_native..py_config..PyFilmStackConfig$GT$$GT$17h1b7995fbc20dc371E', symObjAddr: 0x1C14, symBinAddr: 0x181F8, symSize: 0x24 }
  - { offsetInCU: 0xF12, offset: 0x72B39, size: 0x8, addend: 0x0, symName: '__ZN4core3ptr104drop_in_place$LT$pyo3..pyclass_init..PyClassInitializer$LT$_native..py_mnsl..PySubstrateCoupling$GT$$GT$17hf99978d0b6e7508cE', symObjAddr: 0x1C38, symBinAddr: 0x1821C, symSize: 0x24 }
  - { offsetInCU: 0xF41, offset: 0x72B68, size: 0x8, addend: 0x0, symName: '__ZN4core3ptr104drop_in_place$LT$pyo3..pyclass_init..PyClassInitializerImpl$LT$_native..py_mnsl..PySpherePacking$GT$$GT$17h3bad99da85d30c5aE', symObjAddr: 0x1C5C, symBinAddr: 0x18240, symSize: 0x40 }
  - { offsetInCU: 0xF70, offset: 0x72B97, size: 0x8, addend: 0x0, symName: '__ZN4core3ptr105drop_in_place$LT$core..result..Result$LT$_native..py_mnsl..PySubstrateCoupling$C$pyo3..err..PyErr$GT$$GT$17hb19ee7003d95c7e7E', symObjAddr: 0x1C9C, symBinAddr: 0x18280, symSize: 0x5C }
  - { offsetInCU: 0xF9F, offset: 0x72BC6, size: 0x8, addend: 0x0, symName: '__ZN4core3ptr105drop_in_place$LT$pyo3..pyclass_init..PyClassInitializerImpl$LT$_native..py_config..PyOpticsConfig$GT$$GT$17h8dc3a7ce1527fa41E', symObjAddr: 0x1CF8, symBinAddr: 0x182DC, symSize: 0x54 }
  - { offsetInCU: 0xFCE, offset: 0x72BF5, size: 0x8, addend: 0x0, symName: '__ZN4core3ptr105drop_in_place$LT$pyo3..pyclass_init..PyClassInitializerImpl$LT$_native..py_config..PyResistConfig$GT$$GT$17h009ebcf855350230E', symObjAddr: 0x1D4C, symBinAddr: 0x18330, symSize: 0x48 }
  - { offsetInCU: 0xFFD, offset: 0x72C24, size: 0x8, addend: 0x0, symName: '__ZN4core3ptr105drop_in_place$LT$pyo3..pyclass_init..PyClassInitializerImpl$LT$_native..py_config..PySourceConfig$GT$$GT$17h21d12016a61730b1E', symObjAddr: 0x1D94, symBinAddr: 0x18378, symSize: 0x54 }
  - { offsetInCU: 0x102C, offset: 0x72C53, size: 0x8, addend: 0x0, symName: '__ZN4core3ptr106drop_in_place$LT$core..option..Option$LT$pyo3..pycell..PyRef$LT$_native..py_mnsl..PyMnslConfig$GT$$GT$$GT$17h1a6f94dcb27b1ac1E', symObjAddr: 0x1DE8, symBinAddr: 0x183CC, symSize: 0x44 }
  - { offsetInCU: 0x105B, offset: 0x72C82, size: 0x8, addend: 0x0, symName: '__ZN4core3ptr106drop_in_place$LT$core..option..Option$LT$pyo3..pycell..PyRef$LT$_native..py_mnsl..PyMnslEngine$GT$$GT$$GT$17h760d06eec3faa542E', symObjAddr: 0x1E2C, symBinAddr: 0x18410, symSize: 0x44 }
  - { offsetInCU: 0x108A, offset: 0x72CB1, size: 0x8, addend: 0x0, symName: '__ZN4core3ptr106drop_in_place$LT$core..option..Option$LT$pyo3..pycell..PyRef$LT$_native..py_mnsl..PyMnslResult$GT$$GT$$GT$17h775e9b9615a0afe9E', symObjAddr: 0x1E70, symBinAddr: 0x18454, symSize: 0x44 }
  - { offsetInCU: 0x10B9, offset: 0x72CE0, size: 0x8, addend: 0x0, symName: '__ZN4core3ptr106drop_in_place$LT$pyo3..pyclass_init..PyClassInitializerImpl$LT$_native..py_config..PyProcessConfig$GT$$GT$17h4dbc962c27efac10E', symObjAddr: 0x1EB4, symBinAddr: 0x18498, symSize: 0x40 }
  - { offsetInCU: 0x10E8, offset: 0x72D0F, size: 0x8, addend: 0x0, symName: '__ZN4core3ptr106drop_in_place$LT$pyo3..pyclass_init..PyClassInitializerImpl$LT$_native..py_sweep..PyBatchSimulator$GT$$GT$17he1cb3edc5a43a2f6E', symObjAddr: 0x1EF4, symBinAddr: 0x184D8, symSize: 0x54 }
  - { offsetInCU: 0x1117, offset: 0x72D3E, size: 0x8, addend: 0x0, symName: '__ZN4core3ptr107drop_in_place$LT$pyo3..pyclass_init..PyClassInitializer$LT$_native..py_results..PyAerialImageResult$GT$$GT$17h957607025457e116E', symObjAddr: 0x1F48, symBinAddr: 0x1852C, symSize: 0x24 }
  - { offsetInCU: 0x1146, offset: 0x72D6D, size: 0x8, addend: 0x0, symName: '__ZN4core3ptr107drop_in_place$LT$pyo3..pyclass_init..PyClassInitializer$LT$_native..py_sweep..PyProcessWindowResult$GT$$GT$17hef4ac22f562dfb23E', symObjAddr: 0x1F6C, symBinAddr: 0x18550, symSize: 0x24 }
  - { offsetInCU: 0x1175, offset: 0x72D9C, size: 0x8, addend: 0x0, symName: '__ZN4core3ptr108drop_in_place$LT$core..option..Option$LT$pyo3..pycell..PyRef$LT$_native..py_config..PyGridConfig$GT$$GT$$GT$17h1526cac301aed393E', symObjAddr: 0x1F90, symBinAddr: 0x18574, symSize: 0x44 }
  - { offsetInCU: 0x11A4, offset: 0x72DCB, size: 0x8, addend: 0x0, symName: '__ZN4core3ptr108drop_in_place$LT$core..option..Option$LT$pyo3..pycell..PyRef$LT$_native..py_config..PyMaskConfig$GT$$GT$$GT$17haa561cadea011ea2E', symObjAddr: 0x1FD4, symBinAddr: 0x185B8, symSize: 0x44 }
  - { offsetInCU: 0x11D3, offset: 0x72DFA, size: 0x8, addend: 0x0, symName: '__ZN4core3ptr108drop_in_place$LT$core..result..Result$LT$_native..py_results..PyAerialImageResult$C$pyo3..err..PyErr$GT$$GT$17h9575a3eacfbd9336E', symObjAddr: 0x2018, symBinAddr: 0x185FC, symSize: 0x58 }
  - { offsetInCU: 0x1202, offset: 0x72E29, size: 0x8, addend: 0x0, symName: '__ZN4core3ptr108drop_in_place$LT$core..result..Result$LT$_native..py_sweep..PyProcessWindowResult$C$pyo3..err..PyErr$GT$$GT$17h01463c79730a65b8E', symObjAddr: 0x2070, symBinAddr: 0x18654, symSize: 0x5C }
  - { offsetInCU: 0x1231, offset: 0x72E58, size: 0x8, addend: 0x0, symName: '__ZN4core3ptr108drop_in_place$LT$pyo3..pyclass_init..PyClassInitializer$LT$_native..py_mnsl..PyNanosphereArrayConfig$GT$$GT$17he3cea824d6088b5fE', symObjAddr: 0x20CC, symBinAddr: 0x186B0, symSize: 0x24 }
  - { offsetInCU: 0x1260, offset: 0x72E87, size: 0x8, addend: 0x0, symName: '__ZN4core3ptr108drop_in_place$LT$pyo3..pyclass_init..PyClassInitializerImpl$LT$_native..py_config..PyFilmStackConfig$GT$$GT$17hf42f0d7cefcc39acE', symObjAddr: 0x20F0, symBinAddr: 0x186D4, symSize: 0x58 }
  - { offsetInCU: 0x128F, offset: 0x72EB6, size: 0x8, addend: 0x0, symName: '__ZN4core3ptr108drop_in_place$LT$pyo3..pyclass_init..PyClassInitializerImpl$LT$_native..py_mnsl..PySubstrateCoupling$GT$$GT$17hbaa8c92de5d3666fE', symObjAddr: 0x2148, symBinAddr: 0x1872C, symSize: 0x58 }
  - { offsetInCU: 0x12BE, offset: 0x72EE5, size: 0x8, addend: 0x0, symName: '__ZN4core3ptr109drop_in_place$LT$core..option..Option$LT$pyo3..pycell..PyRef$LT$_native..py_mnsl..PySpherePacking$GT$$GT$$GT$17h49471f494e6170bdE', symObjAddr: 0x21A0, symBinAddr: 0x18784, symSize: 0x44 }
  - { offsetInCU: 0x12ED, offset: 0x72F14, size: 0x8, addend: 0x0, symName: '__ZN4core3ptr109drop_in_place$LT$core..option..Option$LT$pyo3..pycell..PyRefMut$LT$_native..py_mnsl..PyMnslConfig$GT$$GT$$GT$17hbff69694d4268e46E', symObjAddr: 0x21E4, symBinAddr: 0x187C8, symSize: 0x44 }
  - { offsetInCU: 0x131C, offset: 0x72F43, size: 0x8, addend: 0x0, symName: '__ZN4core3ptr109drop_in_place$LT$core..result..Result$LT$_native..py_mnsl..PyNanosphereArrayConfig$C$pyo3..err..PyErr$GT$$GT$17h2260c2fc59f05a49E', symObjAddr: 0x2228, symBinAddr: 0x1880C, symSize: 0x40 }
  - { offsetInCU: 0x134B, offset: 0x72F72, size: 0x8, addend: 0x0, symName: '__ZN4core3ptr109drop_in_place$LT$pyo3..pyclass_init..PyClassInitializer$LT$_native..py_results..PyResistProfileResult$GT$$GT$17hb0350ab3974a01beE', symObjAddr: 0x2268, symBinAddr: 0x1884C, symSize: 0x24 }
  - { offsetInCU: 0x137A, offset: 0x72FA1, size: 0x8, addend: 0x0, symName: '__ZN4core3ptr109drop_in_place$LT$pyo3..pyclass_init..PyClassInitializer$LT$_native..py_simulation..PySimulationEngine$GT$$GT$17h71c20fce6f7ad1eaE', symObjAddr: 0x228C, symBinAddr: 0x18870, symSize: 0x24 }
  - { offsetInCU: 0x13A9, offset: 0x72FD0, size: 0x8, addend: 0x0, symName: '__ZN4core3ptr110drop_in_place$LT$core..option..Option$LT$pyo3..pycell..PyRef$LT$_native..py_config..PyOpticsConfig$GT$$GT$$GT$17h7e4bc51023182577E', symObjAddr: 0x22B0, symBinAddr: 0x18894, symSize: 0x44 }
  - { offsetInCU: 0x13D8, offset: 0x72FFF, size: 0x8, addend: 0x0, symName: '__ZN4core3ptr110drop_in_place$LT$core..option..Option$LT$pyo3..pycell..PyRef$LT$_native..py_config..PyResistConfig$GT$$GT$$GT$17hf154fad4adb0a7c8E', symObjAddr: 0x22F4, symBinAddr: 0x188D8, symSize: 0x44 }
  - { offsetInCU: 0x1407, offset: 0x7302E, size: 0x8, addend: 0x0, symName: '__ZN4core3ptr110drop_in_place$LT$core..option..Option$LT$pyo3..pycell..PyRef$LT$_native..py_config..PySourceConfig$GT$$GT$$GT$17h2379d2054f10d493E', symObjAddr: 0x2338, symBinAddr: 0x1891C, symSize: 0x44 }
  - { offsetInCU: 0x1436, offset: 0x7305D, size: 0x8, addend: 0x0, symName: '__ZN4core3ptr110drop_in_place$LT$core..result..Result$LT$_native..py_results..PyResistProfileResult$C$pyo3..err..PyErr$GT$$GT$17h6e9208c248fc5c6aE', symObjAddr: 0x237C, symBinAddr: 0x18960, symSize: 0x50 }
  - { offsetInCU: 0x1465, offset: 0x7308C, size: 0x8, addend: 0x0, symName: '__ZN4core3ptr110drop_in_place$LT$core..result..Result$LT$_native..py_simulation..PySimulationEngine$C$pyo3..err..PyErr$GT$$GT$17h2d1d741c5a2bdfb1E', symObjAddr: 0x23CC, symBinAddr: 0x189B0, symSize: 0x58 }
  - { offsetInCU: 0x1494, offset: 0x730BB, size: 0x8, addend: 0x0, symName: '__ZN4core3ptr111drop_in_place$LT$core..option..Option$LT$pyo3..pycell..PyRef$LT$_native..py_config..PyProcessConfig$GT$$GT$$GT$17h5206aef70fbe40e8E', symObjAddr: 0x2424, symBinAddr: 0x18A08, symSize: 0x44 }
  - { offsetInCU: 0x14C3, offset: 0x730EA, size: 0x8, addend: 0x0, symName: '__ZN4core3ptr111drop_in_place$LT$core..option..Option$LT$pyo3..pycell..PyRef$LT$_native..py_sweep..PyBatchSimulator$GT$$GT$$GT$17ha1992f268e550d97E', symObjAddr: 0x2468, symBinAddr: 0x18A4C, symSize: 0x44 }
  - { offsetInCU: 0x14F2, offset: 0x73119, size: 0x8, addend: 0x0, symName: '__ZN4core3ptr111drop_in_place$LT$pyo3..pyclass_init..PyClassInitializerImpl$LT$_native..py_results..PyAerialImageResult$GT$$GT$17h0c4dab79ff2e93a9E', symObjAddr: 0x24AC, symBinAddr: 0x18A90, symSize: 0x54 }
  - { offsetInCU: 0x1521, offset: 0x73148, size: 0x8, addend: 0x0, symName: '__ZN4core3ptr111drop_in_place$LT$pyo3..pyclass_init..PyClassInitializerImpl$LT$_native..py_sweep..PyProcessWindowResult$GT$$GT$17h2dffe4cd7a74e442E', symObjAddr: 0x2500, symBinAddr: 0x18AE4, symSize: 0x58 }
  - { offsetInCU: 0x1550, offset: 0x73177, size: 0x8, addend: 0x0, symName: '__ZN4core3ptr112drop_in_place$LT$core..result..Result$LT$$RF$_native..py_results..PyAerialImageResult$C$pyo3..err..PyErr$GT$$GT$17h94a83cd5a84b1065E', symObjAddr: 0x2558, symBinAddr: 0x18B3C, symSize: 0x40 }
  - { offsetInCU: 0x157F, offset: 0x731A6, size: 0x8, addend: 0x0, symName: '__ZN4core3ptr112drop_in_place$LT$pyo3..pyclass_init..PyClassInitializerImpl$LT$_native..py_mnsl..PyNanosphereArrayConfig$GT$$GT$17h1de06ecccca55f26E', symObjAddr: 0x2598, symBinAddr: 0x18B7C, symSize: 0x44 }
  - { offsetInCU: 0x15AE, offset: 0x731D5, size: 0x8, addend: 0x0, symName: '__ZN4core3ptr113drop_in_place$LT$core..option..Option$LT$pyo3..pycell..PyRef$LT$_native..py_config..PyFilmStackConfig$GT$$GT$$GT$17hab532c4c671e93f7E', symObjAddr: 0x25DC, symBinAddr: 0x18BC0, symSize: 0x44 }
  - { offsetInCU: 0x15DD, offset: 0x73204, size: 0x8, addend: 0x0, symName: '__ZN4core3ptr113drop_in_place$LT$core..option..Option$LT$pyo3..pycell..PyRef$LT$_native..py_mnsl..PySubstrateCoupling$GT$$GT$$GT$17hdd07a4950d6cf895E', symObjAddr: 0x2620, symBinAddr: 0x18C04, symSize: 0x44 }
  - { offsetInCU: 0x160C, offset: 0x73233, size: 0x8, addend: 0x0, symName: '__ZN4core3ptr113drop_in_place$LT$core..option..Option$LT$pyo3..pycell..PyRefMut$LT$_native..py_config..PyOpticsConfig$GT$$GT$$GT$17h6e91be8aa9aacdb4E', symObjAddr: 0x2664, symBinAddr: 0x18C48, symSize: 0x44 }
  - { offsetInCU: 0x163B, offset: 0x73262, size: 0x8, addend: 0x0, symName: '__ZN4core3ptr113drop_in_place$LT$pyo3..pyclass_init..PyClassInitializerImpl$LT$_native..py_results..PyResistProfileResult$GT$$GT$17h72fa7a851f4514caE', symObjAddr: 0x2714, symBinAddr: 0x18C8C, symSize: 0x58 }
  - { offsetInCU: 0x166A, offset: 0x73291, size: 0x8, addend: 0x0, symName: '__ZN4core3ptr113drop_in_place$LT$pyo3..pyclass_init..PyClassInitializerImpl$LT$_native..py_simulation..PySimulationEngine$GT$$GT$17hb38ee7985835befeE', symObjAddr: 0x276C, symBinAddr: 0x18CE4, symSize: 0x54 }
  - { offsetInCU: 0x1699, offset: 0x732C0, size: 0x8, addend: 0x0, symName: '__ZN4core3ptr114drop_in_place$LT$core..option..Option$LT$pyo3..pycell..PyRefMut$LT$_native..py_config..PyProcessConfig$GT$$GT$$GT$17h17571f5775fc8e4eE', symObjAddr: 0x27C0, symBinAddr: 0x18D38, symSize: 0x44 }
  - { offsetInCU: 0x16C8, offset: 0x732EF, size: 0x8, addend: 0x0, symName: '__ZN4core3ptr114drop_in_place$LT$core..result..Result$LT$$RF$_native..py_results..PyResistProfileResult$C$pyo3..err..PyErr$GT$$GT$17hb72fcdf541c3c9e6E', symObjAddr: 0x2804, symBinAddr: 0x18D7C, symSize: 0x40 }
  - { offsetInCU: 0x16F7, offset: 0x7331E, size: 0x8, addend: 0x0, symName: '__ZN4core3ptr116drop_in_place$LT$core..option..Option$LT$pyo3..pycell..PyRef$LT$_native..py_results..PyAerialImageResult$GT$$GT$$GT$17hd4b320f3f79196d9E', symObjAddr: 0x288C, symBinAddr: 0x18DBC, symSize: 0x44 }
  - { offsetInCU: 0x1726, offset: 0x7334D, size: 0x8, addend: 0x0, symName: '__ZN4core3ptr116drop_in_place$LT$core..option..Option$LT$pyo3..pycell..PyRef$LT$_native..py_sweep..PyProcessWindowResult$GT$$GT$$GT$17hc6af7899975b2565E', symObjAddr: 0x28D0, symBinAddr: 0x18E00, symSize: 0x44 }
  - { offsetInCU: 0x1755, offset: 0x7337C, size: 0x8, addend: 0x0, symName: '__ZN4core3ptr116drop_in_place$LT$core..option..Option$LT$pyo3..pycell..PyRefMut$LT$_native..py_config..PyFilmStackConfig$GT$$GT$$GT$17h9efc12abe8b61df0E', symObjAddr: 0x2914, symBinAddr: 0x18E44, symSize: 0x44 }
  - { offsetInCU: 0x1784, offset: 0x733AB, size: 0x8, addend: 0x0, symName: '__ZN4core3ptr116drop_in_place$LT$core..option..Option$LT$pyo3..pycell..PyRefMut$LT$_native..py_mnsl..PySubstrateCoupling$GT$$GT$$GT$17h47992dc64715b8e7E', symObjAddr: 0x2958, symBinAddr: 0x18E88, symSize: 0x44 }
  - { offsetInCU: 0x17B3, offset: 0x733DA, size: 0x8, addend: 0x0, symName: '__ZN4core3ptr117drop_in_place$LT$core..option..Option$LT$pyo3..pycell..PyRef$LT$_native..py_mnsl..PyNanosphereArrayConfig$GT$$GT$$GT$17hbe65d014e2ec6188E', symObjAddr: 0x29C0, symBinAddr: 0x18ECC, symSize: 0x44 }
  - { offsetInCU: 0x17E2, offset: 0x73409, size: 0x8, addend: 0x0, symName: '__ZN4core3ptr118drop_in_place$LT$core..option..Option$LT$pyo3..pycell..PyRef$LT$_native..py_results..PyResistProfileResult$GT$$GT$$GT$17h5da65139aab8741eE', symObjAddr: 0x2A70, symBinAddr: 0x18F10, symSize: 0x44 }
  - { offsetInCU: 0x1811, offset: 0x73438, size: 0x8, addend: 0x0, symName: '__ZN4core3ptr118drop_in_place$LT$core..option..Option$LT$pyo3..pycell..PyRef$LT$_native..py_simulation..PySimulationEngine$GT$$GT$$GT$17h72b1cb35d31f6ceeE', symObjAddr: 0x2AB4, symBinAddr: 0x18F54, symSize: 0x44 }
  - { offsetInCU: 0x1840, offset: 0x73467, size: 0x8, addend: 0x0, symName: '__ZN4core3ptr120drop_in_place$LT$core..option..Option$LT$pyo3..pycell..PyRefMut$LT$_native..py_mnsl..PyNanosphereArrayConfig$GT$$GT$$GT$17h2191fbc2d3951767E', symObjAddr: 0x2B40, symBinAddr: 0x18F98, symSize: 0x44 }
  - { offsetInCU: 0x186F, offset: 0x73496, size: 0x8, addend: 0x0, symName: '__ZN4core3ptr128drop_in_place$LT$alloc..vec..into_iter..IntoIter$LT$$LP$f64$C$alloc..vec..Vec$LT$num_complex..Complex$LT$f64$GT$$GT$$RP$$GT$$GT$17h9eac4445789a3e2fE', symObjAddr: 0x2C80, symBinAddr: 0x18FDC, symSize: 0x24 }
  - { offsetInCU: 0x189E, offset: 0x734C5, size: 0x8, addend: 0x0, symName: '__ZN4core3ptr131drop_in_place$LT$core..result..Result$LT$$LP$alloc..vec..Vec$LT$f64$GT$$C$alloc..vec..Vec$LT$f64$GT$$RP$$C$pyo3..err..PyErr$GT$$GT$17hc92c88b89af249feE', symObjAddr: 0x2CA4, symBinAddr: 0x19000, symSize: 0x50 }
  - { offsetInCU: 0x18CD, offset: 0x734F4, size: 0x8, addend: 0x0, symName: '__ZN4core3ptr147drop_in_place$LT$pyo3..instance..Bound$LT$numpy..array..PyArray$LT$f64$C$ndarray..dimension..dim..Dim$LT$$u5b$usize$u3b$$u20$1$u5d$$GT$$GT$$GT$$GT$17h8a8dc84ab900d052E', symObjAddr: 0x2CF4, symBinAddr: 0x19050, symSize: 0x24 }
  - { offsetInCU: 0x18FC, offset: 0x73523, size: 0x8, addend: 0x0, symName: '__ZN4core3ptr147drop_in_place$LT$pyo3..instance..Bound$LT$numpy..array..PyArray$LT$f64$C$ndarray..dimension..dim..Dim$LT$$u5b$usize$u3b$$u20$2$u5d$$GT$$GT$$GT$$GT$17h45c95bdf85af5d5dE', symObjAddr: 0x2D18, symBinAddr: 0x19074, symSize: 0x24 }
  - { offsetInCU: 0x192B, offset: 0x73552, size: 0x8, addend: 0x0, symName: '__ZN4core3ptr157drop_in_place$LT$$LT$alloc..vec..into_iter..IntoIter$LT$T$C$A$GT$$u20$as$u20$core..ops..drop..Drop$GT$..drop..DropGuard$LT$f64$C$alloc..alloc..Global$GT$$GT$17hfe2adb663b6357c6E', symObjAddr: 0x2D3C, symBinAddr: 0x19098, symSize: 0x24 }
  - { offsetInCU: 0x195A, offset: 0x73581, size: 0x8, addend: 0x0, symName: '__ZN4core3ptr161drop_in_place$LT$$LP$f64$C$pyo3..instance..Bound$LT$numpy..array..PyArray$LT$f64$C$ndarray..dimension..dim..Dim$LT$$u5b$usize$u3b$$u20$2$u5d$$GT$$GT$$GT$$RP$$GT$17hcb2e290a84846519E', symObjAddr: 0x2D60, symBinAddr: 0x190BC, symSize: 0x24 }
  - { offsetInCU: 0x1989, offset: 0x735B0, size: 0x8, addend: 0x0, symName: '__ZN4core3ptr171drop_in_place$LT$$u5b$$LP$f64$C$pyo3..instance..Bound$LT$numpy..array..PyArray$LT$f64$C$ndarray..dimension..dim..Dim$LT$$u5b$usize$u3b$$u20$2$u5d$$GT$$GT$$GT$$RP$$u5d$$GT$17hf92ac28ccbd2c5d6E', symObjAddr: 0x2D84, symBinAddr: 0x190E0, symSize: 0xB4 }
  - { offsetInCU: 0x19B8, offset: 0x735DF, size: 0x8, addend: 0x0, symName: '__ZN4core3ptr184drop_in_place$LT$alloc..vec..Vec$LT$$LP$f64$C$pyo3..instance..Bound$LT$numpy..array..PyArray$LT$f64$C$ndarray..dimension..dim..Dim$LT$$u5b$usize$u3b$$u20$2$u5d$$GT$$GT$$GT$$RP$$GT$$GT$17hb994da4ad38e5bacE', symObjAddr: 0x2E38, symBinAddr: 0x19194, symSize: 0x5C }
  - { offsetInCU: 0x19E7, offset: 0x7360E, size: 0x8, addend: 0x0, symName: '__ZN4core3ptr191drop_in_place$LT$alloc..raw_vec..RawVec$LT$$LP$f64$C$pyo3..instance..Bound$LT$numpy..array..PyArray$LT$f64$C$ndarray..dimension..dim..Dim$LT$$u5b$usize$u3b$$u20$2$u5d$$GT$$GT$$GT$$RP$$GT$$GT$17hb649e29a57e30499E', symObjAddr: 0x2E94, symBinAddr: 0x191F0, symSize: 0x24 }
  - { offsetInCU: 0x1A16, offset: 0x7363D, size: 0x8, addend: 0x0, symName: '__ZN4core3ptr194drop_in_place$LT$$LP$f64$C$ndarray..ArrayBase$LT$ndarray..data_repr..OwnedRepr$LT$num_complex..Complex$LT$f64$GT$$GT$$C$ndarray..dimension..dim..Dim$LT$$u5b$usize$u3b$$u20$2$u5d$$GT$$GT$$RP$$GT$17hfb92846d8ae4e918E', symObjAddr: 0x2EB8, symBinAddr: 0x19214, symSize: 0x24 }
  - { offsetInCU: 0x1A45, offset: 0x7366C, size: 0x8, addend: 0x0, symName: '__ZN4core3ptr200drop_in_place$LT$alloc..vec..into_iter..IntoIter$LT$$LP$f64$C$pyo3..instance..Bound$LT$numpy..array..PyArray$LT$f64$C$ndarray..dimension..dim..Dim$LT$$u5b$usize$u3b$$u20$2$u5d$$GT$$GT$$GT$$RP$$GT$$GT$17h65c39a3e4a6bd778E', symObjAddr: 0x2EDC, symBinAddr: 0x19238, symSize: 0x24 }
  - { offsetInCU: 0x1A74, offset: 0x7369B, size: 0x8, addend: 0x0, symName: '__ZN4core3ptr204drop_in_place$LT$$u5b$$LP$f64$C$ndarray..ArrayBase$LT$ndarray..data_repr..OwnedRepr$LT$num_complex..Complex$LT$f64$GT$$GT$$C$ndarray..dimension..dim..Dim$LT$$u5b$usize$u3b$$u20$2$u5d$$GT$$GT$$RP$$u5d$$GT$17h1c1959d15dceed03E', symObjAddr: 0x2F00, symBinAddr: 0x1925C, symSize: 0xC4 }
  - { offsetInCU: 0x1AA3, offset: 0x736CA, size: 0x8, addend: 0x0, symName: '__ZN4core3ptr205drop_in_place$LT$alloc..vec..into_iter..IntoIter$LT$$LP$f64$C$ndarray..ArrayBase$LT$ndarray..data_repr..OwnedRepr$LT$f64$GT$$C$ndarray..dimension..dim..Dim$LT$$u5b$usize$u3b$$u20$2$u5d$$GT$$GT$$RP$$GT$$GT$17h13914ac5d4ab8eb3E', symObjAddr: 0x2FC4, symBinAddr: 0x19320, symSize: 0x24 }
  - { offsetInCU: 0x1AD2, offset: 0x736F9, size: 0x8, addend: 0x0, symName: '__ZN4core3ptr207drop_in_place$LT$alloc..vec..in_place_drop..InPlaceDrop$LT$$LP$f64$C$pyo3..instance..Bound$LT$numpy..array..PyArray$LT$f64$C$ndarray..dimension..dim..Dim$LT$$u5b$usize$u3b$$u20$2$u5d$$GT$$GT$$GT$$RP$$GT$$GT$17haab11e944565742dE', symObjAddr: 0x2FE8, symBinAddr: 0x19344, symSize: 0x24 }
  - { offsetInCU: 0x1B01, offset: 0x73728, size: 0x8, addend: 0x0, symName: '__ZN4core3ptr217drop_in_place$LT$alloc..vec..Vec$LT$$LP$f64$C$ndarray..ArrayBase$LT$ndarray..data_repr..OwnedRepr$LT$num_complex..Complex$LT$f64$GT$$GT$$C$ndarray..dimension..dim..Dim$LT$$u5b$usize$u3b$$u20$2$u5d$$GT$$GT$$RP$$GT$$GT$17hc2c95cab8f8051d2E', symObjAddr: 0x300C, symBinAddr: 0x19368, symSize: 0x5C }
  - { offsetInCU: 0x1B30, offset: 0x73757, size: 0x8, addend: 0x0, symName: '__ZN4core3ptr222drop_in_place$LT$$LT$alloc..vec..into_iter..IntoIter$LT$T$C$A$GT$$u20$as$u20$core..ops..drop..Drop$GT$..drop..DropGuard$LT$$LP$f64$C$alloc..vec..Vec$LT$num_complex..Complex$LT$f64$GT$$GT$$RP$$C$alloc..alloc..Global$GT$$GT$17h27e87b1504c9fef2E', symObjAddr: 0x3068, symBinAddr: 0x193C4, symSize: 0x24 }
  - { offsetInCU: 0x1B5F, offset: 0x73786, size: 0x8, addend: 0x0, symName: '__ZN4core3ptr224drop_in_place$LT$alloc..raw_vec..RawVec$LT$$LP$f64$C$ndarray..ArrayBase$LT$ndarray..data_repr..OwnedRepr$LT$num_complex..Complex$LT$f64$GT$$GT$$C$ndarray..dimension..dim..Dim$LT$$u5b$usize$u3b$$u20$2$u5d$$GT$$GT$$RP$$GT$$GT$17h3b23996b3c9fe99cE', symObjAddr: 0x308C, symBinAddr: 0x193E8, symSize: 0x24 }
  - { offsetInCU: 0x1B8E, offset: 0x737B5, size: 0x8, addend: 0x0, symName: '__ZN4core3ptr231drop_in_place$LT$core..result..Result$LT$alloc..vec..Vec$LT$$LP$f64$C$pyo3..instance..Bound$LT$numpy..array..PyArray$LT$f64$C$ndarray..dimension..dim..Dim$LT$$u5b$usize$u3b$$u20$2$u5d$$GT$$GT$$GT$$RP$$GT$$C$pyo3..err..PyErr$GT$$GT$17h71efda5f0a480879E', symObjAddr: 0x30B0, symBinAddr: 0x1940C, symSize: 0x50 }
  - { offsetInCU: 0x1BBD, offset: 0x737E4, size: 0x8, addend: 0x0, symName: '__ZN4core3ptr242drop_in_place$LT$alloc..vec..Vec$LT$num_complex..Complex$LT$f64$GT$$GT$..extend_trusted$LT$core..iter..adapters..take..Take$LT$core..iter..sources..repeat..Repeat$LT$num_complex..Complex$LT$f64$GT$$GT$$GT$$GT$..$u7b$$u7b$closure$u7d$$u7d$$GT$17h092cf284b56ab3feE', symObjAddr: 0x3100, symBinAddr: 0x1945C, symSize: 0x24 }
  - { offsetInCU: 0x1BEC, offset: 0x73813, size: 0x8, addend: 0x0, symName: '__ZN4core3ptr249drop_in_place$LT$alloc..vec..Vec$LT$f64$GT$..extend_trusted$LT$core..iter..adapters..map..Map$LT$core..ops..range..Range$LT$usize$GT$$C$_native..py_mnsl..PyMnslResult..coordinates..$u7b$$u7b$closure$u7d$$u7d$$GT$$GT$..$u7b$$u7b$closure$u7d$$u7d$$GT$17h921b79b65a3e94c6E', symObjAddr: 0x3124, symBinAddr: 0x19480, symSize: 0x24 }
  - { offsetInCU: 0x1C1B, offset: 0x73842, size: 0x8, addend: 0x0, symName: '__ZN4core3ptr249drop_in_place$LT$alloc..vec..Vec$LT$f64$GT$..extend_trusted$LT$core..iter..adapters..map..Map$LT$core..ops..range..Range$LT$usize$GT$$C$_native..py_mnsl..PyMnslResult..coordinates..$u7b$$u7b$closure$u7d$$u7d$$GT$$GT$..$u7b$$u7b$closure$u7d$$u7d$$GT$17hefa96e451a288d9bE', symObjAddr: 0x3148, symBinAddr: 0x194A4, symSize: 0x24 }
  - { offsetInCU: 0x1C4A, offset: 0x73871, size: 0x8, addend: 0x0, symName: '__ZN4core3ptr250drop_in_place$LT$core..iter..adapters..map..Map$LT$alloc..vec..into_iter..IntoIter$LT$f64$GT$$C$$LT$f64$u20$as$u20$pyo3..conversion..IntoPyObject$GT$..owned_sequence_into_pyobject$LT$alloc..vec..Vec$LT$f64$GT$$GT$..$u7b$$u7b$closure$u7d$$u7d$$GT$$GT$17h6af9a8dfcd0ab4b2E', symObjAddr: 0x316C, symBinAddr: 0x194C8, symSize: 0x24 }
  - { offsetInCU: 0x1C79, offset: 0x738A0, size: 0x8, addend: 0x0, symName: '__ZN4core3ptr252drop_in_place$LT$alloc..vec..Vec$LT$f64$GT$..extend_trusted$LT$core..iter..adapters..map..Map$LT$core..ops..range..Range$LT$usize$GT$$C$_native..py_results..PyAerialImageResult..nils..$u7b$$u7b$closure$u7d$$u7d$$GT$$GT$..$u7b$$u7b$closure$u7d$$u7d$$GT$17h0bd8776fa8533e0bE', symObjAddr: 0x3190, symBinAddr: 0x194EC, symSize: 0x24 }
  - { offsetInCU: 0x1CA8, offset: 0x738CF, size: 0x8, addend: 0x0, symName: '__ZN4core3ptr252drop_in_place$LT$alloc..vec..Vec$LT$f64$GT$..extend_trusted$LT$core..iter..adapters..map..Map$LT$core..ops..range..Range$LT$usize$GT$$C$_native..py_results..PyAerialImageResult..nils..$u7b$$u7b$closure$u7d$$u7d$$GT$$GT$..$u7b$$u7b$closure$u7d$$u7d$$GT$17h907bac786234d473E', symObjAddr: 0x31B4, symBinAddr: 0x19510, symSize: 0x24 }
  - { offsetInCU: 0x1CD7, offset: 0x738FE, size: 0x8, addend: 0x0, symName: '__ZN4core3ptr252drop_in_place$LT$alloc..vec..Vec$LT$f64$GT$..extend_trusted$LT$core..iter..adapters..map..Map$LT$core..ops..range..Range$LT$usize$GT$$C$_native..py_results..PyAerialImageResult..x_nm..$u7b$$u7b$closure$u7d$$u7d$$GT$$GT$..$u7b$$u7b$closure$u7d$$u7d$$GT$17h7bb96aba6f68a6eeE', symObjAddr: 0x31D8, symBinAddr: 0x19534, symSize: 0x24 }
  - { offsetInCU: 0x1D06, offset: 0x7392D, size: 0x8, addend: 0x0, symName: '__ZN4core3ptr252drop_in_place$LT$alloc..vec..Vec$LT$f64$GT$..extend_trusted$LT$core..iter..adapters..map..Map$LT$core..ops..range..Range$LT$usize$GT$$C$_native..py_results..PyAerialImageResult..y_nm..$u7b$$u7b$closure$u7d$$u7d$$GT$$GT$..$u7b$$u7b$closure$u7d$$u7d$$GT$17h3fecda64fca544e6E', symObjAddr: 0x31FC, symBinAddr: 0x19558, symSize: 0x24 }
  - { offsetInCU: 0x1D35, offset: 0x7395C, size: 0x8, addend: 0x0, symName: '__ZN4core3ptr253drop_in_place$LT$alloc..vec..Vec$LT$f64$GT$..extend_trusted$LT$core..iter..adapters..map..Map$LT$core..ops..range..Range$LT$usize$GT$$C$_native..py_mnsl..PyMnslResult..cross_section_x..$u7b$$u7b$closure$u7d$$u7d$$GT$$GT$..$u7b$$u7b$closure$u7d$$u7d$$GT$17h8c52e008149fa31aE', symObjAddr: 0x3220, symBinAddr: 0x1957C, symSize: 0x24 }
  - { offsetInCU: 0x1D64, offset: 0x7398B, size: 0x8, addend: 0x0, symName: '__ZN4core3ptr253drop_in_place$LT$alloc..vec..Vec$LT$f64$GT$..extend_trusted$LT$core..iter..adapters..map..Map$LT$core..ops..range..Range$LT$usize$GT$$C$_native..py_mnsl..PyMnslResult..cross_section_y..$u7b$$u7b$closure$u7d$$u7d$$GT$$GT$..$u7b$$u7b$closure$u7d$$u7d$$GT$17h438071d37713b92cE', symObjAddr: 0x3244, symBinAddr: 0x195A0, symSize: 0x24 }
  - { offsetInCU: 0x1D93, offset: 0x739BA, size: 0x8, addend: 0x0, symName: '__ZN4core3ptr258drop_in_place$LT$core..iter..adapters..map..Map$LT$core..array..iter..IntoIter$LT$f64$C$2_usize$GT$$C$pyo3..types..list..PyList..new$LT$f64$C$core..array..iter..IntoIter$LT$f64$C$2_usize$GT$$C$$u5b$f64$u3b$$u20$2$u5d$$GT$..$u7b$$u7b$closure$u7d$$u7d$$GT$$GT$17h2b185aa4ae586952E', symObjAddr: 0x3268, symBinAddr: 0x195C4, symSize: 0x24 }
  - { offsetInCU: 0x1DC2, offset: 0x739E9, size: 0x8, addend: 0x0, symName: '__ZN4core3ptr261drop_in_place$LT$alloc..vec..Vec$LT$f64$GT$..extend_trusted$LT$core..iter..adapters..map..Map$LT$core..ops..range..Range$LT$usize$GT$$C$_native..py_results..PyAerialImageResult..cross_section..$u7b$$u7b$closure$u7d$$u7d$$GT$$GT$..$u7b$$u7b$closure$u7d$$u7d$$GT$17h5c14153ba3672ceeE', symObjAddr: 0x328C, symBinAddr: 0x195E8, symSize: 0x24 }
  - { offsetInCU: 0x1DF1, offset: 0x73A18, size: 0x8, addend: 0x0, symName: '__ZN4core3ptr261drop_in_place$LT$alloc..vec..Vec$LT$f64$GT$..extend_trusted$LT$core..iter..adapters..map..Map$LT$core..ops..range..Range$LT$usize$GT$$C$_native..py_results..PyAerialImageResult..cross_section..$u7b$$u7b$closure$u7d$$u7d$$GT$$GT$..$u7b$$u7b$closure$u7d$$u7d$$GT$17h834089e39f5ddb87E', symObjAddr: 0x32B0, symBinAddr: 0x1960C, symSize: 0x24 }
  - { offsetInCU: 0x1E20, offset: 0x73A47, size: 0x8, addend: 0x0, symName: '__ZN4core3ptr284drop_in_place$LT$$LP$pyo3..instance..Bound$LT$numpy..array..PyArray$LT$f64$C$ndarray..dimension..dim..Dim$LT$$u5b$usize$u3b$$u20$1$u5d$$GT$$GT$$GT$$C$pyo3..instance..Bound$LT$numpy..array..PyArray$LT$f64$C$ndarray..dimension..dim..Dim$LT$$u5b$usize$u3b$$u20$1$u5d$$GT$$GT$$GT$$RP$$GT$17hcdfb49cb7d96394eE', symObjAddr: 0x32D4, symBinAddr: 0x19630, symSize: 0x60 }
  - { offsetInCU: 0x1E4F, offset: 0x73A76, size: 0x8, addend: 0x0, symName: '__ZN4core3ptr294drop_in_place$LT$$LT$alloc..vec..into_iter..IntoIter$LT$T$C$A$GT$$u20$as$u20$core..ops..drop..Drop$GT$..drop..DropGuard$LT$$LP$f64$C$pyo3..instance..Bound$LT$numpy..array..PyArray$LT$f64$C$ndarray..dimension..dim..Dim$LT$$u5b$usize$u3b$$u20$2$u5d$$GT$$GT$$GT$$RP$$C$alloc..alloc..Global$GT$$GT$17h416834956acc80e8E', symObjAddr: 0x3334, symBinAddr: 0x19690, symSize: 0x24 }
  - { offsetInCU: 0x1E7E, offset: 0x73AA5, size: 0x8, addend: 0x0, symName: '__ZN4core3ptr299drop_in_place$LT$$LT$alloc..vec..into_iter..IntoIter$LT$T$C$A$GT$$u20$as$u20$core..ops..drop..Drop$GT$..drop..DropGuard$LT$$LP$f64$C$ndarray..ArrayBase$LT$ndarray..data_repr..OwnedRepr$LT$f64$GT$$C$ndarray..dimension..dim..Dim$LT$$u5b$usize$u3b$$u20$2$u5d$$GT$$GT$$RP$$C$alloc..alloc..Global$GT$$GT$17h5e1ce71654c9429dE', symObjAddr: 0x3358, symBinAddr: 0x196B4, symSize: 0x24 }
  - { offsetInCU: 0x1EAD, offset: 0x73AD4, size: 0x8, addend: 0x0, symName: '__ZN4core3ptr325drop_in_place$LT$core..iter..adapters..map..Map$LT$alloc..vec..into_iter..IntoIter$LT$$LP$f64$C$ndarray..ArrayBase$LT$ndarray..data_repr..OwnedRepr$LT$f64$GT$$C$ndarray..dimension..dim..Dim$LT$$u5b$usize$u3b$$u20$2$u5d$$GT$$GT$$RP$$GT$$C$_native..py_sweep..PyBatchSimulator..batch_defocus..$u7b$$u7b$closure$u7d$$u7d$$GT$$GT$17hb1055e45c981e1e1E', symObjAddr: 0x337C, symBinAddr: 0x196D8, symSize: 0x24 }
  - { offsetInCU: 0x1EDC, offset: 0x73B03, size: 0x8, addend: 0x0, symName: '__ZN4core3ptr331drop_in_place$LT$core..result..Result$LT$$LP$pyo3..instance..Bound$LT$numpy..array..PyArray$LT$f64$C$ndarray..dimension..dim..Dim$LT$$u5b$usize$u3b$$u20$1$u5d$$GT$$GT$$GT$$C$pyo3..instance..Bound$LT$numpy..array..PyArray$LT$f64$C$ndarray..dimension..dim..Dim$LT$$u5b$usize$u3b$$u20$1$u5d$$GT$$GT$$GT$$RP$$C$pyo3..err..PyErr$GT$$GT$17hdb08dd11933882d2E', symObjAddr: 0x33A0, symBinAddr: 0x196FC, symSize: 0x50 }
  - { offsetInCU: 0x1F0B, offset: 0x73B32, size: 0x8, addend: 0x0, symName: '__ZN4core3ptr346drop_in_place$LT$core..iter..traits..iterator..Iterator..for_each..call$LT$f64$C$alloc..vec..Vec$LT$f64$GT$..extend_trusted$LT$core..iter..adapters..map..Map$LT$core..ops..range..Range$LT$usize$GT$$C$_native..py_mnsl..PyMnslResult..coordinates..$u7b$$u7b$closure$u7d$$u7d$$GT$$GT$..$u7b$$u7b$closure$u7d$$u7d$$GT$..$u7b$$u7b$closure$u7d$$u7d$$GT$17h02ef1f9002b8562eE', symObjAddr: 0x33F0, symBinAddr: 0x1974C, symSize: 0x24 }
  - { offsetInCU: 0x1F3A, offset: 0x73B61, size: 0x8, addend: 0x0, symName: '__ZN4core3ptr346drop_in_place$LT$core..iter..traits..iterator..Iterator..for_each..call$LT$f64$C$alloc..vec..Vec$LT$f64$GT$..extend_trusted$LT$core..iter..adapters..map..Map$LT$core..ops..range..Range$LT$usize$GT$$C$_native..py_mnsl..PyMnslResult..coordinates..$u7b$$u7b$closure$u7d$$u7d$$GT$$GT$..$u7b$$u7b$closure$u7d$$u7d$$GT$..$u7b$$u7b$closure$u7d$$u7d$$GT$17h58b68116c9e23451E', symObjAddr: 0x3414, symBinAddr: 0x19770, symSize: 0x24 }
  - { offsetInCU: 0x1F69, offset: 0x73B90, size: 0x8, addend: 0x0, symName: '__ZN4core3ptr349drop_in_place$LT$core..iter..traits..iterator..Iterator..for_each..call$LT$f64$C$alloc..vec..Vec$LT$f64$GT$..extend_trusted$LT$core..iter..adapters..map..Map$LT$core..ops..range..Range$LT$usize$GT$$C$_native..py_results..PyAerialImageResult..nils..$u7b$$u7b$closure$u7d$$u7d$$GT$$GT$..$u7b$$u7b$closure$u7d$$u7d$$GT$..$u7b$$u7b$closure$u7d$$u7d$$GT$17ha3d4b01537d2695fE', symObjAddr: 0x3438, symBinAddr: 0x19794, symSize: 0x24 }
  - { offsetInCU: 0x1F98, offset: 0x73BBF, size: 0x8, addend: 0x0, symName: '__ZN4core3ptr349drop_in_place$LT$core..iter..traits..iterator..Iterator..for_each..call$LT$f64$C$alloc..vec..Vec$LT$f64$GT$..extend_trusted$LT$core..iter..adapters..map..Map$LT$core..ops..range..Range$LT$usize$GT$$C$_native..py_results..PyAerialImageResult..nils..$u7b$$u7b$closure$u7d$$u7d$$GT$$GT$..$u7b$$u7b$closure$u7d$$u7d$$GT$..$u7b$$u7b$closure$u7d$$u7d$$GT$17ha7183a11991004b7E', symObjAddr: 0x345C, symBinAddr: 0x197B8, symSize: 0x24 }
  - { offsetInCU: 0x1FC7, offset: 0x73BEE, size: 0x8, addend: 0x0, symName: '__ZN4core3ptr349drop_in_place$LT$core..iter..traits..iterator..Iterator..for_each..call$LT$f64$C$alloc..vec..Vec$LT$f64$GT$..extend_trusted$LT$core..iter..adapters..map..Map$LT$core..ops..range..Range$LT$usize$GT$$C$_native..py_results..PyAerialImageResult..x_nm..$u7b$$u7b$closure$u7d$$u7d$$GT$$GT$..$u7b$$u7b$closure$u7d$$u7d$$GT$..$u7b$$u7b$closure$u7d$$u7d$$GT$17hb2d14742454a0582E', symObjAddr: 0x3480, symBinAddr: 0x197DC, symSize: 0x24 }
  - { offsetInCU: 0x1FF6, offset: 0x73C1D, size: 0x8, addend: 0x0, symName: '__ZN4core3ptr349drop_in_place$LT$core..iter..traits..iterator..Iterator..for_each..call$LT$f64$C$alloc..vec..Vec$LT$f64$GT$..extend_trusted$LT$core..iter..adapters..map..Map$LT$core..ops..range..Range$LT$usize$GT$$C$_native..py_results..PyAerialImageResult..y_nm..$u7b$$u7b$closure$u7d$$u7d$$GT$$GT$..$u7b$$u7b$closure$u7d$$u7d$$GT$..$u7b$$u7b$closure$u7d$$u7d$$GT$17h079a67dbdb546cb8E', symObjAddr: 0x34A4, symBinAddr: 0x19800, symSize: 0x24 }
  - { offsetInCU: 0x2025, offset: 0x73C4C, size: 0x8, addend: 0x0, symName: '__ZN4core3ptr350drop_in_place$LT$core..iter..traits..iterator..Iterator..for_each..call$LT$f64$C$alloc..vec..Vec$LT$f64$GT$..extend_trusted$LT$core..iter..adapters..map..Map$LT$core..ops..range..Range$LT$usize$GT$$C$_native..py_mnsl..PyMnslResult..cross_section_x..$u7b$$u7b$closure$u7d$$u7d$$GT$$GT$..$u7b$$u7b$closure$u7d$$u7d$$GT$..$u7b$$u7b$closure$u7d$$u7d$$GT$17h29bb2cfd0cd0aa05E', symObjAddr: 0x34C8, symBinAddr: 0x19824, symSize: 0x24 }
  - { offsetInCU: 0x2054, offset: 0x73C7B, size: 0x8, addend: 0x0, symName: '__ZN4core3ptr350drop_in_place$LT$core..iter..traits..iterator..Iterator..for_each..call$LT$f64$C$alloc..vec..Vec$LT$f64$GT$..extend_trusted$LT$core..iter..adapters..map..Map$LT$core..ops..range..Range$LT$usize$GT$$C$_native..py_mnsl..PyMnslResult..cross_section_y..$u7b$$u7b$closure$u7d$$u7d$$GT$$GT$..$u7b$$u7b$closure$u7d$$u7d$$GT$..$u7b$$u7b$closure$u7d$$u7d$$GT$17h6ece66bc831b081fE', symObjAddr: 0x34EC, symBinAddr: 0x19848, symSize: 0x24 }
  - { offsetInCU: 0x2083, offset: 0x73CAA, size: 0x8, addend: 0x0, symName: '__ZN4core3ptr358drop_in_place$LT$core..iter..traits..iterator..Iterator..for_each..call$LT$f64$C$alloc..vec..Vec$LT$f64$GT$..extend_trusted$LT$core..iter..adapters..map..Map$LT$core..ops..range..Range$LT$usize$GT$$C$_native..py_results..PyAerialImageResult..cross_section..$u7b$$u7b$closure$u7d$$u7d$$GT$$GT$..$u7b$$u7b$closure$u7d$$u7d$$GT$..$u7b$$u7b$closure$u7d$$u7d$$GT$17h77588c5ab204507cE', symObjAddr: 0x3510, symBinAddr: 0x1986C, symSize: 0x24 }
  - { offsetInCU: 0x20B2, offset: 0x73CD9, size: 0x8, addend: 0x0, symName: '__ZN4core3ptr358drop_in_place$LT$core..iter..traits..iterator..Iterator..for_each..call$LT$f64$C$alloc..vec..Vec$LT$f64$GT$..extend_trusted$LT$core..iter..adapters..map..Map$LT$core..ops..range..Range$LT$usize$GT$$C$_native..py_results..PyAerialImageResult..cross_section..$u7b$$u7b$closure$u7d$$u7d$$GT$$GT$..$u7b$$u7b$closure$u7d$$u7d$$GT$..$u7b$$u7b$closure$u7d$$u7d$$GT$17hcb6984a2280a12b7E', symObjAddr: 0x3534, symBinAddr: 0x19890, symSize: 0x24 }
  - { offsetInCU: 0x20E1, offset: 0x73D08, size: 0x8, addend: 0x0, symName: '__ZN4core3ptr368drop_in_place$LT$alloc..vec..in_place_drop..InPlaceDstDataSrcBufDrop$LT$$LP$f64$C$ndarray..ArrayBase$LT$ndarray..data_repr..OwnedRepr$LT$f64$GT$$C$ndarray..dimension..dim..Dim$LT$$u5b$usize$u3b$$u20$2$u5d$$GT$$GT$$RP$$C$$LP$f64$C$pyo3..instance..Bound$LT$numpy..array..PyArray$LT$f64$C$ndarray..dimension..dim..Dim$LT$$u5b$usize$u3b$$u20$2$u5d$$GT$$GT$$GT$$RP$$GT$$GT$17he9c7a5fb1340fc27E', symObjAddr: 0x3558, symBinAddr: 0x198B4, symSize: 0x24 }
  - { offsetInCU: 0x2110, offset: 0x73D37, size: 0x8, addend: 0x0, symName: '__ZN4core3ptr432drop_in_place$LT$$LT$core..iter..adapters..take..Take$LT$I$GT$$u20$as$u20$core..iter..adapters..take..SpecTake$GT$..spec_for_each..check$LT$num_complex..Complex$LT$f64$GT$$C$alloc..vec..Vec$LT$num_complex..Complex$LT$f64$GT$$GT$..extend_trusted$LT$core..iter..adapters..take..Take$LT$core..iter..sources..repeat..Repeat$LT$num_complex..Complex$LT$f64$GT$$GT$$GT$$GT$..$u7b$$u7b$closure$u7d$$u7d$$GT$..$u7b$$u7b$closure$u7d$$u7d$$GT$17hd7a95acc13b9fd44E', symObjAddr: 0x357C, symBinAddr: 0x198D8, symSize: 0x24 }
  - { offsetInCU: 0x213F, offset: 0x73D66, size: 0x8, addend: 0x0, symName: '__ZN4core3ptr518drop_in_place$LT$core..iter..adapters..map..map_fold$LT$usize$C$f64$C$$LP$$RP$$C$_native..py_mnsl..PyMnslResult..coordinates..$u7b$$u7b$closure$u7d$$u7d$$C$core..iter..traits..iterator..Iterator..for_each..call$LT$f64$C$alloc..vec..Vec$LT$f64$GT$..extend_trusted$LT$core..iter..adapters..map..Map$LT$core..ops..range..Range$LT$usize$GT$$C$_native..py_mnsl..PyMnslResult..coordinates..$u7b$$u7b$closure$u7d$$u7d$$GT$$GT$..$u7b$$u7b$closure$u7d$$u7d$$GT$..$u7b$$u7b$closure$u7d$$u7d$$GT$..$u7b$$u7b$closure$u7d$$u7d$$GT$17h285f350cf6378486E', symObjAddr: 0x35A0, symBinAddr: 0x198FC, symSize: 0x24 }
  - { offsetInCU: 0x216E, offset: 0x73D95, size: 0x8, addend: 0x0, symName: '__ZN4core3ptr518drop_in_place$LT$core..iter..adapters..map..map_fold$LT$usize$C$f64$C$$LP$$RP$$C$_native..py_mnsl..PyMnslResult..coordinates..$u7b$$u7b$closure$u7d$$u7d$$C$core..iter..traits..iterator..Iterator..for_each..call$LT$f64$C$alloc..vec..Vec$LT$f64$GT$..extend_trusted$LT$core..iter..adapters..map..Map$LT$core..ops..range..Range$LT$usize$GT$$C$_native..py_mnsl..PyMnslResult..coordinates..$u7b$$u7b$closure$u7d$$u7d$$GT$$GT$..$u7b$$u7b$closure$u7d$$u7d$$GT$..$u7b$$u7b$closure$u7d$$u7d$$GT$..$u7b$$u7b$closure$u7d$$u7d$$GT$17h6a763cff6edf586eE', symObjAddr: 0x35C4, symBinAddr: 0x19920, symSize: 0x24 }
  - { offsetInCU: 0x219D, offset: 0x73DC4, size: 0x8, addend: 0x0, symName: '__ZN4core3ptr51drop_in_place$LT$_native..py_mnsl..PyMnslConfig$GT$17h62374bc445dbfba4E', symObjAddr: 0x35E8, symBinAddr: 0x19944, symSize: 0x24 }
  - { offsetInCU: 0x21CC, offset: 0x73DF3, size: 0x8, addend: 0x0, symName: '__ZN4core3ptr51drop_in_place$LT$_native..py_mnsl..PyMnslEngine$GT$17h52d35e063d0be146E', symObjAddr: 0x360C, symBinAddr: 0x19968, symSize: 0x24 }
  - { offsetInCU: 0x21FB, offset: 0x73E22, size: 0x8, addend: 0x0, symName: '__ZN4core3ptr51drop_in_place$LT$_native..py_mnsl..PyMnslResult$GT$17h5e87883fbed8d39aE', symObjAddr: 0x3630, symBinAddr: 0x1998C, symSize: 0x24 }
  - { offsetInCU: 0x222A, offset: 0x73E51, size: 0x8, addend: 0x0, symName: '__ZN4core3ptr524drop_in_place$LT$core..iter..adapters..map..map_fold$LT$usize$C$f64$C$$LP$$RP$$C$_native..py_results..PyAerialImageResult..nils..$u7b$$u7b$closure$u7d$$u7d$$C$core..iter..traits..iterator..Iterator..for_each..call$LT$f64$C$alloc..vec..Vec$LT$f64$GT$..extend_trusted$LT$core..iter..adapters..map..Map$LT$core..ops..range..Range$LT$usize$GT$$C$_native..py_results..PyAerialImageResult..nils..$u7b$$u7b$closure$u7d$$u7d$$GT$$GT$..$u7b$$u7b$closure$u7d$$u7d$$GT$..$u7b$$u7b$closure$u7d$$u7d$$GT$..$u7b$$u7b$closure$u7d$$u7d$$GT$17h5902797865c91f21E', symObjAddr: 0x3654, symBinAddr: 0x199B0, symSize: 0x24 }
  - { offsetInCU: 0x2259, offset: 0x73E80, size: 0x8, addend: 0x0, symName: '__ZN4core3ptr524drop_in_place$LT$core..iter..adapters..map..map_fold$LT$usize$C$f64$C$$LP$$RP$$C$_native..py_results..PyAerialImageResult..nils..$u7b$$u7b$closure$u7d$$u7d$$C$core..iter..traits..iterator..Iterator..for_each..call$LT$f64$C$alloc..vec..Vec$LT$f64$GT$..extend_trusted$LT$core..iter..adapters..map..Map$LT$core..ops..range..Range$LT$usize$GT$$C$_native..py_results..PyAerialImageResult..nils..$u7b$$u7b$closure$u7d$$u7d$$GT$$GT$..$u7b$$u7b$closure$u7d$$u7d$$GT$..$u7b$$u7b$closure$u7d$$u7d$$GT$..$u7b$$u7b$closure$u7d$$u7d$$GT$17hb96c58cca62118d2E', symObjAddr: 0x3678, symBinAddr: 0x199D4, symSize: 0x24 }
  - { offsetInCU: 0x2288, offset: 0x73EAF, size: 0x8, addend: 0x0, symName: '__ZN4core3ptr524drop_in_place$LT$core..iter..adapters..map..map_fold$LT$usize$C$f64$C$$LP$$RP$$C$_native..py_results..PyAerialImageResult..x_nm..$u7b$$u7b$closure$u7d$$u7d$$C$core..iter..traits..iterator..Iterator..for_each..call$LT$f64$C$alloc..vec..Vec$LT$f64$GT$..extend_trusted$LT$core..iter..adapters..map..Map$LT$core..ops..range..Range$LT$usize$GT$$C$_native..py_results..PyAerialImageResult..x_nm..$u7b$$u7b$closure$u7d$$u7d$$GT$$GT$..$u7b$$u7b$closure$u7d$$u7d$$GT$..$u7b$$u7b$closure$u7d$$u7d$$GT$..$u7b$$u7b$closure$u7d$$u7d$$GT$17h6a579638c46cea17E', symObjAddr: 0x369C, symBinAddr: 0x199F8, symSize: 0x24 }
  - { offsetInCU: 0x22B7, offset: 0x73EDE, size: 0x8, addend: 0x0, symName: '__ZN4core3ptr524drop_in_place$LT$core..iter..adapters..map..map_fold$LT$usize$C$f64$C$$LP$$RP$$C$_native..py_results..PyAerialImageResult..y_nm..$u7b$$u7b$closure$u7d$$u7d$$C$core..iter..traits..iterator..Iterator..for_each..call$LT$f64$C$alloc..vec..Vec$LT$f64$GT$..extend_trusted$LT$core..iter..adapters..map..Map$LT$core..ops..range..Range$LT$usize$GT$$C$_native..py_results..PyAerialImageResult..y_nm..$u7b$$u7b$closure$u7d$$u7d$$GT$$GT$..$u7b$$u7b$closure$u7d$$u7d$$GT$..$u7b$$u7b$closure$u7d$$u7d$$GT$..$u7b$$u7b$closure$u7d$$u7d$$GT$17h7c2ecf0f14f1e87bE', symObjAddr: 0x36C0, symBinAddr: 0x19A1C, symSize: 0x24 }
  - { offsetInCU: 0x22E6, offset: 0x73F0D, size: 0x8, addend: 0x0, symName: '__ZN4core3ptr526drop_in_place$LT$core..iter..adapters..map..map_fold$LT$usize$C$f64$C$$LP$$RP$$C$_native..py_mnsl..PyMnslResult..cross_section_x..$u7b$$u7b$closure$u7d$$u7d$$C$core..iter..traits..iterator..Iterator..for_each..call$LT$f64$C$alloc..vec..Vec$LT$f64$GT$..extend_trusted$LT$core..iter..adapters..map..Map$LT$core..ops..range..Range$LT$usize$GT$$C$_native..py_mnsl..PyMnslResult..cross_section_x..$u7b$$u7b$closure$u7d$$u7d$$GT$$GT$..$u7b$$u7b$closure$u7d$$u7d$$GT$..$u7b$$u7b$closure$u7d$$u7d$$GT$..$u7b$$u7b$closure$u7d$$u7d$$GT$17h68cdadf52ee49ad7E', symObjAddr: 0x36E4, symBinAddr: 0x19A40, symSize: 0x24 }
  - { offsetInCU: 0x2315, offset: 0x73F3C, size: 0x8, addend: 0x0, symName: '__ZN4core3ptr526drop_in_place$LT$core..iter..adapters..map..map_fold$LT$usize$C$f64$C$$LP$$RP$$C$_native..py_mnsl..PyMnslResult..cross_section_y..$u7b$$u7b$closure$u7d$$u7d$$C$core..iter..traits..iterator..Iterator..for_each..call$LT$f64$C$alloc..vec..Vec$LT$f64$GT$..extend_trusted$LT$core..iter..adapters..map..Map$LT$core..ops..range..Range$LT$usize$GT$$C$_native..py_mnsl..PyMnslResult..cross_section_y..$u7b$$u7b$closure$u7d$$u7d$$GT$$GT$..$u7b$$u7b$closure$u7d$$u7d$$GT$..$u7b$$u7b$closure$u7d$$u7d$$GT$..$u7b$$u7b$closure$u7d$$u7d$$GT$17h2e0cfed5172f3e76E', symObjAddr: 0x3708, symBinAddr: 0x19A64, symSize: 0x24 }
  - { offsetInCU: 0x2344, offset: 0x73F6B, size: 0x8, addend: 0x0, symName: '__ZN4core3ptr53drop_in_place$LT$_native..py_config..PyMaskConfig$GT$17hc8d070463e12e34fE', symObjAddr: 0x372C, symBinAddr: 0x19A88, symSize: 0x24 }
  - { offsetInCU: 0x2373, offset: 0x73F9A, size: 0x8, addend: 0x0, symName: '__ZN4core3ptr542drop_in_place$LT$core..iter..adapters..map..map_fold$LT$usize$C$f64$C$$LP$$RP$$C$_native..py_results..PyAerialImageResult..cross_section..$u7b$$u7b$closure$u7d$$u7d$$C$core..iter..traits..iterator..Iterator..for_each..call$LT$f64$C$alloc..vec..Vec$LT$f64$GT$..extend_trusted$LT$core..iter..adapters..map..Map$LT$core..ops..range..Range$LT$usize$GT$$C$_native..py_results..PyAerialImageResult..cross_section..$u7b$$u7b$closure$u7d$$u7d$$GT$$GT$..$u7b$$u7b$closure$u7d$$u7d$$GT$..$u7b$$u7b$closure$u7d$$u7d$$GT$..$u7b$$u7b$closure$u7d$$u7d$$GT$17h454e507423ed36dcE', symObjAddr: 0x3774, symBinAddr: 0x19AAC, symSize: 0x24 }
  - { offsetInCU: 0x23A2, offset: 0x73FC9, size: 0x8, addend: 0x0, symName: '__ZN4core3ptr542drop_in_place$LT$core..iter..adapters..map..map_fold$LT$usize$C$f64$C$$LP$$RP$$C$_native..py_results..PyAerialImageResult..cross_section..$u7b$$u7b$closure$u7d$$u7d$$C$core..iter..traits..iterator..Iterator..for_each..call$LT$f64$C$alloc..vec..Vec$LT$f64$GT$..extend_trusted$LT$core..iter..adapters..map..Map$LT$core..ops..range..Range$LT$usize$GT$$C$_native..py_results..PyAerialImageResult..cross_section..$u7b$$u7b$closure$u7d$$u7d$$GT$$GT$..$u7b$$u7b$closure$u7d$$u7d$$GT$..$u7b$$u7b$closure$u7d$$u7d$$GT$..$u7b$$u7b$closure$u7d$$u7d$$GT$17hcd8477a5f983513eE', symObjAddr: 0x3798, symBinAddr: 0x19AD0, symSize: 0x24 }
  - { offsetInCU: 0x23D1, offset: 0x73FF8, size: 0x8, addend: 0x0, symName: '__ZN4core3ptr54drop_in_place$LT$highuvlith_core..mnsl..MnslResult$GT$17h6d2c4d9b8c69ec5fE', symObjAddr: 0x37BC, symBinAddr: 0x19AF4, symSize: 0xBC }
  - { offsetInCU: 0x2400, offset: 0x74027, size: 0x8, addend: 0x0, symName: '__ZN4core3ptr55drop_in_place$LT$_native..py_config..PyOpticsConfig$GT$17hc5179ea7760b0f59E', symObjAddr: 0x3878, symBinAddr: 0x19BB0, symSize: 0x24 }
  - { offsetInCU: 0x242F, offset: 0x74056, size: 0x8, addend: 0x0, symName: '__ZN4core3ptr55drop_in_place$LT$_native..py_config..PySourceConfig$GT$17h558dc90388cb7b4aE', symObjAddr: 0x389C, symBinAddr: 0x19BD4, symSize: 0x24 }
  - { offsetInCU: 0x245E, offset: 0x74085, size: 0x8, addend: 0x0, symName: '__ZN4core3ptr55drop_in_place$LT$highuvlith_core..source..VuvSource$GT$17h904f03e95e536c87E', symObjAddr: 0x38C0, symBinAddr: 0x19BF8, symSize: 0x24 }
  - { offsetInCU: 0x248D, offset: 0x740B4, size: 0x8, addend: 0x0, symName: '__ZN4core3ptr56drop_in_place$LT$_native..py_sweep..PyBatchSimulator$GT$17h7bb04e55d59721f5E', symObjAddr: 0x38E4, symBinAddr: 0x19C1C, symSize: 0x5C }
  - { offsetInCU: 0x24BC, offset: 0x740E3, size: 0x8, addend: 0x0, symName: '__ZN4core3ptr57drop_in_place$LT$highuvlith_core..resist..LatentImage$GT$17h4bfc01e5996ff38cE', symObjAddr: 0x3940, symBinAddr: 0x19C78, symSize: 0x24 }
  - { offsetInCU: 0x24EB, offset: 0x74112, size: 0x8, addend: 0x0, symName: '__ZN4core3ptr58drop_in_place$LT$_native..py_config..PyFilmStackConfig$GT$17h5ccf2d5e93d739a6E', symObjAddr: 0x3964, symBinAddr: 0x19C9C, symSize: 0x24 }
  - { offsetInCU: 0x251A, offset: 0x74141, size: 0x8, addend: 0x0, symName: '__ZN4core3ptr58drop_in_place$LT$_native..py_mnsl..PySubstrateCoupling$GT$17h48cc0b5a39b0830eE', symObjAddr: 0x3988, symBinAddr: 0x19CC0, symSize: 0x24 }
  - { offsetInCU: 0x2549, offset: 0x74170, size: 0x8, addend: 0x0, symName: '__ZN4core3ptr59drop_in_place$LT$highuvlith_core..source..SpectralShape$GT$17h079c0c3e66585cbbE', symObjAddr: 0x39AC, symBinAddr: 0x19CE4, symSize: 0x98 }
  - { offsetInCU: 0x2578, offset: 0x7419F, size: 0x8, addend: 0x0, symName: '__ZN4core3ptr60drop_in_place$LT$highuvlith_core..process..ProcessWindow$GT$17h3e2c96872890b7fdE', symObjAddr: 0x3A44, symBinAddr: 0x19D7C, symSize: 0x90 }
  - { offsetInCU: 0x25A7, offset: 0x741CE, size: 0x8, addend: 0x0, symName: '__ZN4core3ptr61drop_in_place$LT$_native..py_results..PyAerialImageResult$GT$17h8f6b8ab724cb1337E', symObjAddr: 0x3AD4, symBinAddr: 0x19E0C, symSize: 0x24 }
  - { offsetInCU: 0x25D6, offset: 0x741FD, size: 0x8, addend: 0x0, symName: '__ZN4core3ptr61drop_in_place$LT$_native..py_sweep..PyProcessWindowResult$GT$17h3de05f1869a36462E', symObjAddr: 0x3AF8, symBinAddr: 0x19E30, symSize: 0x24 }
  - { offsetInCU: 0x2605, offset: 0x7422C, size: 0x8, addend: 0x0, symName: '__ZN4core3ptr62drop_in_place$LT$highuvlith_core..optics..ProjectionOptics$GT$17hfd369d1e5860ba1eE', symObjAddr: 0x3B1C, symBinAddr: 0x19E54, symSize: 0x24 }
  - { offsetInCU: 0x2634, offset: 0x7425B, size: 0x8, addend: 0x0, symName: '__ZN4core3ptr63drop_in_place$LT$_native..py_results..PyResistProfileResult$GT$17h019f0aa8ef5e91afE', symObjAddr: 0x3B40, symBinAddr: 0x19E78, symSize: 0x60 }
  - { offsetInCU: 0x2663, offset: 0x7428A, size: 0x8, addend: 0x0, symName: '__ZN4core3ptr63drop_in_place$LT$_native..py_simulation..PySimulationEngine$GT$17h21b8e53bbd2bfabeE', symObjAddr: 0x3BA0, symBinAddr: 0x19ED8, symSize: 0xC4 }
  - { offsetInCU: 0x2692, offset: 0x742B9, size: 0x8, addend: 0x0, symName: '__ZN4core3ptr63drop_in_place$LT$alloc..vec..into_iter..IntoIter$LT$f64$GT$$GT$17hc472b83f324774aeE', symObjAddr: 0x3C64, symBinAddr: 0x19F9C, symSize: 0x24 }
  - { offsetInCU: 0x26C1, offset: 0x742E8, size: 0x8, addend: 0x0, symName: '__ZN4core3ptr63drop_in_place$LT$highuvlith_core..aerial..AerialImageEngine$GT$17h59df748c52601267E', symObjAddr: 0x3C88, symBinAddr: 0x19FC0, symSize: 0x60 }
  - { offsetInCU: 0x26F0, offset: 0x74317, size: 0x8, addend: 0x0, symName: '__ZN4core3ptr661drop_in_place$LT$core..iter..adapters..map..Map$LT$alloc..vec..into_iter..IntoIter$LT$$LP$f64$C$pyo3..instance..Bound$LT$numpy..array..PyArray$LT$f64$C$ndarray..dimension..dim..Dim$LT$$u5b$usize$u3b$$u20$2$u5d$$GT$$GT$$GT$$RP$$GT$$C$$LT$$LP$f64$C$pyo3..instance..Bound$LT$numpy..array..PyArray$LT$f64$C$ndarray..dimension..dim..Dim$LT$$u5b$usize$u3b$$u20$2$u5d$$GT$$GT$$GT$$RP$$u20$as$u20$pyo3..conversion..IntoPyObject$GT$..owned_sequence_into_pyobject$LT$alloc..vec..Vec$LT$$LP$f64$C$pyo3..instance..Bound$LT$numpy..array..PyArray$LT$f64$C$ndarray..dimension..dim..Dim$LT$$u5b$usize$u3b$$u20$2$u5d$$GT$$GT$$GT$$RP$$GT$$GT$..$u7b$$u7b$closure$u7d$$u7d$$GT$$GT$17h4f7b3fcbe6c91e54E', symObjAddr: 0x3CE8, symBinAddr: 0x1A020, symSize: 0x24 }
  - { offsetInCU: 0x271F, offset: 0x74346, size: 0x8, addend: 0x0, symName: '__ZN4core3ptr67drop_in_place$LT$alloc..vec..Vec$LT$$LP$f64$C$f64$C$f64$RP$$GT$$GT$17h81d1645a91d902acE', symObjAddr: 0x3D0C, symBinAddr: 0x1A044, symSize: 0x5C }
  - { offsetInCU: 0x274E, offset: 0x74375, size: 0x8, addend: 0x0, symName: '__ZN4core3ptr69drop_in_place$LT$core..array..iter..IntoIter$LT$f64$C$2_usize$GT$$GT$17h219eab08037e97daE', symObjAddr: 0x3D68, symBinAddr: 0x1A0A0, symSize: 0x24 }
  - { offsetInCU: 0x277D, offset: 0x743A4, size: 0x8, addend: 0x0, symName: '__ZN4core3ptr71drop_in_place$LT$core..result..Result$LT$f64$C$pyo3..err..PyErr$GT$$GT$17hd14814c8c01056fdE', symObjAddr: 0x3D8C, symBinAddr: 0x1A0C4, symSize: 0x40 }
  - { offsetInCU: 0x27AC, offset: 0x743D3, size: 0x8, addend: 0x0, symName: '__ZN4core3ptr74drop_in_place$LT$alloc..raw_vec..RawVec$LT$$LP$f64$C$f64$C$f64$RP$$GT$$GT$17hfdfd54519dca5464E', symObjAddr: 0x3DCC, symBinAddr: 0x1A104, symSize: 0x24 }
  - { offsetInCU: 0x27DB, offset: 0x74402, size: 0x8, addend: 0x0, symName: '__ZN4core3ptr77drop_in_place$LT$alloc..vec..Vec$LT$$LP$usize$C$usize$C$f64$C$f64$RP$$GT$$GT$17h7f5acafeecf6be4cE', symObjAddr: 0x3DF0, symBinAddr: 0x1A128, symSize: 0x5C }
  - { offsetInCU: 0x280A, offset: 0x74431, size: 0x8, addend: 0x0, symName: '__ZN4core3ptr77drop_in_place$LT$pyo3..instance..Py$LT$_native..py_mnsl..PyMnslConfig$GT$$GT$17h0b99807134e50bc6E', symObjAddr: 0x3E4C, symBinAddr: 0x1A184, symSize: 0x2C }
  - { offsetInCU: 0x2839, offset: 0x74460, size: 0x8, addend: 0x0, symName: '__ZN4core3ptr77drop_in_place$LT$pyo3..instance..Py$LT$_native..py_mnsl..PyMnslEngine$GT$$GT$17h15cbb749ccfc7e5dE', symObjAddr: 0x3E78, symBinAddr: 0x1A1B0, symSize: 0x2C }
  - { offsetInCU: 0x2868, offset: 0x7448F, size: 0x8, addend: 0x0, symName: '__ZN4core3ptr77drop_in_place$LT$pyo3..instance..Py$LT$_native..py_mnsl..PyMnslResult$GT$$GT$17heac6f147d54d10acE', symObjAddr: 0x3EA4, symBinAddr: 0x1A1DC, symSize: 0x2C }
  - { offsetInCU: 0x2897, offset: 0x744BE, size: 0x8, addend: 0x0, symName: '__ZN4core3ptr78drop_in_place$LT$pyo3..pycell..PyRef$LT$_native..py_mnsl..PyMnslConfig$GT$$GT$17hf0b42688f3337c50E', symObjAddr: 0x3ED0, symBinAddr: 0x1A208, symSize: 0x5C }
  - { offsetInCU: 0x28C6, offset: 0x744ED, size: 0x8, addend: 0x0, symName: '__ZN4core3ptr78drop_in_place$LT$pyo3..pycell..PyRef$LT$_native..py_mnsl..PyMnslEngine$GT$$GT$17hc0f8fb647fba0e75E', symObjAddr: 0x3F2C, symBinAddr: 0x1A264, symSize: 0x5C }
  - { offsetInCU: 0x28F5, offset: 0x7451C, size: 0x8, addend: 0x0, symName: '__ZN4core3ptr78drop_in_place$LT$pyo3..pycell..PyRef$LT$_native..py_mnsl..PyMnslResult$GT$$GT$17hbdac65aa48217e9eE', symObjAddr: 0x3F88, symBinAddr: 0x1A2C0, symSize: 0x5C }
  - { offsetInCU: 0x2924, offset: 0x7454B, size: 0x8, addend: 0x0, symName: '__ZN4core3ptr79drop_in_place$LT$pyo3..instance..Py$LT$_native..py_config..PyGridConfig$GT$$GT$17hf5b407dc5381505dE', symObjAddr: 0x3FE4, symBinAddr: 0x1A31C, symSize: 0x2C }
  - { offsetInCU: 0x2953, offset: 0x7457A, size: 0x8, addend: 0x0, symName: '__ZN4core3ptr79drop_in_place$LT$pyo3..instance..Py$LT$_native..py_config..PyMaskConfig$GT$$GT$17h5dca5fc084189ce3E', symObjAddr: 0x4010, symBinAddr: 0x1A348, symSize: 0x2C }
  - { offsetInCU: 0x2982, offset: 0x745A9, size: 0x8, addend: 0x0, symName: '__ZN4core3ptr80drop_in_place$LT$pyo3..instance..Bound$LT$_native..py_mnsl..PyMnslConfig$GT$$GT$17ha5a2793cc949fe0eE', symObjAddr: 0x403C, symBinAddr: 0x1A374, symSize: 0x24 }
  - { offsetInCU: 0x29B1, offset: 0x745D8, size: 0x8, addend: 0x0, symName: '__ZN4core3ptr80drop_in_place$LT$pyo3..instance..Bound$LT$_native..py_mnsl..PyMnslEngine$GT$$GT$17h8252286add387165E', symObjAddr: 0x4060, symBinAddr: 0x1A398, symSize: 0x24 }
  - { offsetInCU: 0x29E0, offset: 0x74607, size: 0x8, addend: 0x0, symName: '__ZN4core3ptr80drop_in_place$LT$pyo3..instance..Bound$LT$_native..py_mnsl..PyMnslResult$GT$$GT$17h55186b81a16ae8ccE', symObjAddr: 0x4084, symBinAddr: 0x1A3BC, symSize: 0x24 }
  - { offsetInCU: 0x2A0F, offset: 0x74636, size: 0x8, addend: 0x0, symName: '__ZN4core3ptr80drop_in_place$LT$pyo3..instance..Py$LT$_native..py_mnsl..PySpherePacking$GT$$GT$17h1e17507a94574c98E', symObjAddr: 0x40A8, symBinAddr: 0x1A3E0, symSize: 0x2C }
  - { offsetInCU: 0x2A3E, offset: 0x74665, size: 0x8, addend: 0x0, symName: '__ZN4core3ptr80drop_in_place$LT$pyo3..pycell..PyRef$LT$_native..py_config..PyGridConfig$GT$$GT$17h50bc984c21381247E', symObjAddr: 0x40D4, symBinAddr: 0x1A40C, symSize: 0x5C }
  - { offsetInCU: 0x2A6D, offset: 0x74694, size: 0x8, addend: 0x0, symName: '__ZN4core3ptr80drop_in_place$LT$pyo3..pycell..PyRef$LT$_native..py_config..PyMaskConfig$GT$$GT$17h96042cee4a8f3cccE', symObjAddr: 0x4130, symBinAddr: 0x1A468, symSize: 0x5C }
  - { offsetInCU: 0x2A9C, offset: 0x746C3, size: 0x8, addend: 0x0, symName: '__ZN4core3ptr81drop_in_place$LT$core..cell..UnsafeCell$LT$_native..py_mnsl..PyMnslConfig$GT$$GT$17h932ac74472a5560fE', symObjAddr: 0x418C, symBinAddr: 0x1A4C4, symSize: 0x24 }
  - { offsetInCU: 0x2ACB, offset: 0x746F2, size: 0x8, addend: 0x0, symName: '__ZN4core3ptr81drop_in_place$LT$core..cell..UnsafeCell$LT$_native..py_mnsl..PyMnslEngine$GT$$GT$17haa54ec5643e4ad46E', symObjAddr: 0x41B0, symBinAddr: 0x1A4E8, symSize: 0x24 }
  - { offsetInCU: 0x2AFA, offset: 0x74721, size: 0x8, addend: 0x0, symName: '__ZN4core3ptr81drop_in_place$LT$core..cell..UnsafeCell$LT$_native..py_mnsl..PyMnslResult$GT$$GT$17h133d3e5e1c71e15cE', symObjAddr: 0x41D4, symBinAddr: 0x1A50C, symSize: 0x24 }
  - { offsetInCU: 0x2B29, offset: 0x74750, size: 0x8, addend: 0x0, symName: '__ZN4core3ptr81drop_in_place$LT$pyo3..instance..Py$LT$_native..py_config..PyOpticsConfig$GT$$GT$17h3af37b3f39af4fc6E', symObjAddr: 0x41F8, symBinAddr: 0x1A530, symSize: 0x2C }
  - { offsetInCU: 0x2B58, offset: 0x7477F, size: 0x8, addend: 0x0, symName: '__ZN4core3ptr81drop_in_place$LT$pyo3..instance..Py$LT$_native..py_config..PyResistConfig$GT$$GT$17hed2ee399441a5b98E', symObjAddr: 0x4224, symBinAddr: 0x1A55C, symSize: 0x2C }
  - { offsetInCU: 0x2B87, offset: 0x747AE, size: 0x8, addend: 0x0, symName: '__ZN4core3ptr81drop_in_place$LT$pyo3..instance..Py$LT$_native..py_config..PySourceConfig$GT$$GT$17h6b43ed756c4a2bfcE', symObjAddr: 0x4250, symBinAddr: 0x1A588, symSize: 0x2C }
  - { offsetInCU: 0x2BB6, offset: 0x747DD, size: 0x8, addend: 0x0, symName: '__ZN4core3ptr81drop_in_place$LT$pyo3..pycell..PyRef$LT$_native..py_mnsl..PySpherePacking$GT$$GT$17h91b6d424d50eb3abE', symObjAddr: 0x427C, symBinAddr: 0x1A5B4, symSize: 0x5C }
  - { offsetInCU: 0x2BE5, offset: 0x7480C, size: 0x8, addend: 0x0, symName: '__ZN4core3ptr81drop_in_place$LT$pyo3..pycell..PyRefMut$LT$_native..py_mnsl..PyMnslConfig$GT$$GT$17h2d4baaa7ec72579eE', symObjAddr: 0x42D8, symBinAddr: 0x1A610, symSize: 0x5C }
  - { offsetInCU: 0x2C14, offset: 0x7483B, size: 0x8, addend: 0x0, symName: '__ZN4core3ptr82drop_in_place$LT$pyo3..instance..Bound$LT$_native..py_config..PyGridConfig$GT$$GT$17hd3a526b070acce10E', symObjAddr: 0x4334, symBinAddr: 0x1A66C, symSize: 0x24 }
  - { offsetInCU: 0x2C43, offset: 0x7486A, size: 0x8, addend: 0x0, symName: '__ZN4core3ptr82drop_in_place$LT$pyo3..instance..Bound$LT$_native..py_config..PyMaskConfig$GT$$GT$17h49bfd43fa3c64a52E', symObjAddr: 0x4358, symBinAddr: 0x1A690, symSize: 0x24 }
  - { offsetInCU: 0x2C72, offset: 0x74899, size: 0x8, addend: 0x0, symName: '__ZN4core3ptr82drop_in_place$LT$pyo3..instance..Py$LT$_native..py_config..PyProcessConfig$GT$$GT$17h8d75e7f7e5de4b29E', symObjAddr: 0x437C, symBinAddr: 0x1A6B4, symSize: 0x2C }
  - { offsetInCU: 0x2CA1, offset: 0x748C8, size: 0x8, addend: 0x0, symName: '__ZN4core3ptr82drop_in_place$LT$pyo3..instance..Py$LT$_native..py_sweep..PyBatchSimulator$GT$$GT$17h9910e5659d5f3053E', symObjAddr: 0x43A8, symBinAddr: 0x1A6E0, symSize: 0x2C }
  - { offsetInCU: 0x2CD0, offset: 0x748F7, size: 0x8, addend: 0x0, symName: '__ZN4core3ptr82drop_in_place$LT$pyo3..pycell..PyRef$LT$_native..py_config..PyOpticsConfig$GT$$GT$17h6501a1a0ced978aaE', symObjAddr: 0x43D4, symBinAddr: 0x1A70C, symSize: 0x5C }
  - { offsetInCU: 0x2CFF, offset: 0x74926, size: 0x8, addend: 0x0, symName: '__ZN4core3ptr82drop_in_place$LT$pyo3..pycell..PyRef$LT$_native..py_config..PyResistConfig$GT$$GT$17h085e277a686ef2bbE', symObjAddr: 0x4430, symBinAddr: 0x1A768, symSize: 0x5C }
  - { offsetInCU: 0x2D2E, offset: 0x74955, size: 0x8, addend: 0x0, symName: '__ZN4core3ptr82drop_in_place$LT$pyo3..pycell..PyRef$LT$_native..py_config..PySourceConfig$GT$$GT$17h2e16b4fbff495bfcE', symObjAddr: 0x448C, symBinAddr: 0x1A7C4, symSize: 0x5C }
  - { offsetInCU: 0x2D5D, offset: 0x74984, size: 0x8, addend: 0x0, symName: '__ZN4core3ptr83drop_in_place$LT$core..cell..UnsafeCell$LT$_native..py_config..PyMaskConfig$GT$$GT$17hd4670d26b52bbd4fE', symObjAddr: 0x44E8, symBinAddr: 0x1A820, symSize: 0x24 }
  - { offsetInCU: 0x2D8C, offset: 0x749B3, size: 0x8, addend: 0x0, symName: '__ZN4core3ptr83drop_in_place$LT$pyo3..instance..Bound$LT$_native..py_mnsl..PySpherePacking$GT$$GT$17h9953a12d7476a5f5E', symObjAddr: 0x450C, symBinAddr: 0x1A844, symSize: 0x24 }
  - { offsetInCU: 0x2DBB, offset: 0x749E2, size: 0x8, addend: 0x0, symName: '__ZN4core3ptr83drop_in_place$LT$pyo3..pycell..PyRef$LT$_native..py_config..PyProcessConfig$GT$$GT$17h86b0c65d4e65339bE', symObjAddr: 0x4530, symBinAddr: 0x1A868, symSize: 0x5C }
  - { offsetInCU: 0x2DEA, offset: 0x74A11, size: 0x8, addend: 0x0, symName: '__ZN4core3ptr83drop_in_place$LT$pyo3..pycell..PyRef$LT$_native..py_sweep..PyBatchSimulator$GT$$GT$17h13316b760ec8a2a6E', symObjAddr: 0x458C, symBinAddr: 0x1A8C4, symSize: 0x5C }
  - { offsetInCU: 0x2E19, offset: 0x74A40, size: 0x8, addend: 0x0, symName: '__ZN4core3ptr84drop_in_place$LT$$LP$alloc..vec..Vec$LT$f64$GT$$C$alloc..vec..Vec$LT$f64$GT$$RP$$GT$17h75bcbf0d0999985fE', symObjAddr: 0x45E8, symBinAddr: 0x1A920, symSize: 0x60 }
  - { offsetInCU: 0x2E48, offset: 0x74A6F, size: 0x8, addend: 0x0, symName: '__ZN4core3ptr84drop_in_place$LT$alloc..raw_vec..RawVec$LT$$LP$usize$C$usize$C$f64$C$f64$RP$$GT$$GT$17h14105d351ea4cdb7E', symObjAddr: 0x4648, symBinAddr: 0x1A980, symSize: 0x24 }
  - { offsetInCU: 0x2E77, offset: 0x74A9E, size: 0x8, addend: 0x0, symName: '__ZN4core3ptr84drop_in_place$LT$pyo3..instance..Bound$LT$_native..py_config..PyOpticsConfig$GT$$GT$17he23d9d551b1b55caE', symObjAddr: 0x466C, symBinAddr: 0x1A9A4, symSize: 0x24 }
  - { offsetInCU: 0x2EA6, offset: 0x74ACD, size: 0x8, addend: 0x0, symName: '__ZN4core3ptr84drop_in_place$LT$pyo3..instance..Bound$LT$_native..py_config..PyResistConfig$GT$$GT$17hb6e2588bf3bc8fdaE', symObjAddr: 0x4690, symBinAddr: 0x1A9C8, symSize: 0x24 }
  - { offsetInCU: 0x2ED5, offset: 0x74AFC, size: 0x8, addend: 0x0, symName: '__ZN4core3ptr84drop_in_place$LT$pyo3..instance..Bound$LT$_native..py_config..PySourceConfig$GT$$GT$17h3baa311c438bda0eE', symObjAddr: 0x46B4, symBinAddr: 0x1A9EC, symSize: 0x24 }
  - { offsetInCU: 0x2F04, offset: 0x74B2B, size: 0x8, addend: 0x0, symName: '__ZN4core3ptr84drop_in_place$LT$pyo3..instance..Py$LT$_native..py_config..PyFilmStackConfig$GT$$GT$17h8985e4c550d2410dE', symObjAddr: 0x46D8, symBinAddr: 0x1AA10, symSize: 0x2C }
  - { offsetInCU: 0x2F33, offset: 0x74B5A, size: 0x8, addend: 0x0, symName: '__ZN4core3ptr84drop_in_place$LT$pyo3..instance..Py$LT$_native..py_mnsl..PySubstrateCoupling$GT$$GT$17h953e3b5942408308E', symObjAddr: 0x4704, symBinAddr: 0x1AA3C, symSize: 0x2C }
  - { offsetInCU: 0x2F62, offset: 0x74B89, size: 0x8, addend: 0x0, symName: '__ZN4core3ptr85drop_in_place$LT$core..cell..UnsafeCell$LT$_native..py_config..PyOpticsConfig$GT$$GT$17h0355a786c6d6b4a2E', symObjAddr: 0x4730, symBinAddr: 0x1AA68, symSize: 0x24 }
  - { offsetInCU: 0x2F91, offset: 0x74BB8, size: 0x8, addend: 0x0, symName: '__ZN4core3ptr85drop_in_place$LT$core..cell..UnsafeCell$LT$_native..py_config..PySourceConfig$GT$$GT$17had5ada8529e8886fE', symObjAddr: 0x4754, symBinAddr: 0x1AA8C, symSize: 0x24 }
  - { offsetInCU: 0x2FC0, offset: 0x74BE7, size: 0x8, addend: 0x0, symName: '__ZN4core3ptr85drop_in_place$LT$pyo3..instance..Bound$LT$_native..py_config..PyProcessConfig$GT$$GT$17h1a89f2ac066fd318E', symObjAddr: 0x4778, symBinAddr: 0x1AAB0, symSize: 0x24 }
  - { offsetInCU: 0x2FEF, offset: 0x74C16, size: 0x8, addend: 0x0, symName: '__ZN4core3ptr85drop_in_place$LT$pyo3..instance..Bound$LT$_native..py_sweep..PyBatchSimulator$GT$$GT$17ha0bcfae147862d53E', symObjAddr: 0x479C, symBinAddr: 0x1AAD4, symSize: 0x24 }
  - { offsetInCU: 0x301E, offset: 0x74C45, size: 0x8, addend: 0x0, symName: '__ZN4core3ptr85drop_in_place$LT$pyo3..pycell..PyRef$LT$_native..py_config..PyFilmStackConfig$GT$$GT$17he1d4cec3750139bfE', symObjAddr: 0x47C0, symBinAddr: 0x1AAF8, symSize: 0x5C }
  - { offsetInCU: 0x304D, offset: 0x74C74, size: 0x8, addend: 0x0, symName: '__ZN4core3ptr85drop_in_place$LT$pyo3..pycell..PyRef$LT$_native..py_mnsl..PySubstrateCoupling$GT$$GT$17h0c2bd91d2adf118bE', symObjAddr: 0x481C, symBinAddr: 0x1AB54, symSize: 0x5C }
  - { offsetInCU: 0x307C, offset: 0x74CA3, size: 0x8, addend: 0x0, symName: '__ZN4core3ptr85drop_in_place$LT$pyo3..pycell..PyRefMut$LT$_native..py_config..PyOpticsConfig$GT$$GT$17h5de29d508fd1f2d0E', symObjAddr: 0x4878, symBinAddr: 0x1ABB0, symSize: 0x5C }
  - { offsetInCU: 0x30AB, offset: 0x74CD2, size: 0x8, addend: 0x0, symName: '__ZN4core3ptr86drop_in_place$LT$core..cell..UnsafeCell$LT$_native..py_sweep..PyBatchSimulator$GT$$GT$17h5bfa17bbdf0ab2d7E', symObjAddr: 0x48D4, symBinAddr: 0x1AC0C, symSize: 0x24 }
  - { offsetInCU: 0x30DA, offset: 0x74D01, size: 0x8, addend: 0x0, symName: '__ZN4core3ptr86drop_in_place$LT$core..option..Option$LT$_native..py_mnsl..PySubstrateCoupling$GT$$GT$17hfeef43c9a068680fE', symObjAddr: 0x48F8, symBinAddr: 0x1AC30, symSize: 0x48 }
  - { offsetInCU: 0x3109, offset: 0x74D30, size: 0x8, addend: 0x0, symName: '__ZN4core3ptr86drop_in_place$LT$pyo3..pycell..PyRefMut$LT$_native..py_config..PyProcessConfig$GT$$GT$17hc76a9f7939d9a06fE', symObjAddr: 0x4940, symBinAddr: 0x1AC78, symSize: 0x5C }
  - { offsetInCU: 0x3138, offset: 0x74D5F, size: 0x8, addend: 0x0, symName: '__ZN4core3ptr87drop_in_place$LT$pyo3..instance..Bound$LT$_native..py_config..PyFilmStackConfig$GT$$GT$17hd07936228ee27f49E', symObjAddr: 0x499C, symBinAddr: 0x1ACD4, symSize: 0x24 }
  - { offsetInCU: 0x3167, offset: 0x74D8E, size: 0x8, addend: 0x0, symName: '__ZN4core3ptr87drop_in_place$LT$pyo3..instance..Bound$LT$_native..py_mnsl..PySubstrateCoupling$GT$$GT$17ha875866cc6b238f9E', symObjAddr: 0x49C0, symBinAddr: 0x1ACF8, symSize: 0x24 }
  - { offsetInCU: 0x3196, offset: 0x74DBD, size: 0x8, addend: 0x0, symName: '__ZN4core3ptr87drop_in_place$LT$pyo3..instance..Py$LT$_native..py_results..PyAerialImageResult$GT$$GT$17hba411150a6762da8E', symObjAddr: 0x49E4, symBinAddr: 0x1AD1C, symSize: 0x2C }
  - { offsetInCU: 0x31C5, offset: 0x74DEC, size: 0x8, addend: 0x0, symName: '__ZN4core3ptr87drop_in_place$LT$pyo3..instance..Py$LT$_native..py_sweep..PyProcessWindowResult$GT$$GT$17hd6e7e64d5cb88c97E', symObjAddr: 0x4A10, symBinAddr: 0x1AD48, symSize: 0x2C }
  - { offsetInCU: 0x31F4, offset: 0x74E1B, size: 0x8, addend: 0x0, symName: '__ZN4core3ptr88drop_in_place$LT$core..cell..UnsafeCell$LT$_native..py_config..PyFilmStackConfig$GT$$GT$17h550cb50649c2db66E', symObjAddr: 0x4A3C, symBinAddr: 0x1AD74, symSize: 0x24 }
  - { offsetInCU: 0x3223, offset: 0x74E4A, size: 0x8, addend: 0x0, symName: '__ZN4core3ptr88drop_in_place$LT$core..cell..UnsafeCell$LT$_native..py_mnsl..PySubstrateCoupling$GT$$GT$17haf6961070e8e0926E', symObjAddr: 0x4A60, symBinAddr: 0x1AD98, symSize: 0x24 }
  - { offsetInCU: 0x3252, offset: 0x74E79, size: 0x8, addend: 0x0, symName: '__ZN4core3ptr88drop_in_place$LT$pyo3..instance..Py$LT$_native..py_mnsl..PyNanosphereArrayConfig$GT$$GT$17hc47a748c6c403b0cE', symObjAddr: 0x4A84, symBinAddr: 0x1ADBC, symSize: 0x2C }
  - { offsetInCU: 0x3281, offset: 0x74EA8, size: 0x8, addend: 0x0, symName: '__ZN4core3ptr88drop_in_place$LT$pyo3..pycell..PyRef$LT$_native..py_results..PyAerialImageResult$GT$$GT$17h9a5fef1d9bd5cd9eE', symObjAddr: 0x4AB0, symBinAddr: 0x1ADE8, symSize: 0x5C }
  - { offsetInCU: 0x32B0, offset: 0x74ED7, size: 0x8, addend: 0x0, symName: '__ZN4core3ptr88drop_in_place$LT$pyo3..pycell..PyRef$LT$_native..py_sweep..PyProcessWindowResult$GT$$GT$17h0c5fba58c3759d12E', symObjAddr: 0x4B0C, symBinAddr: 0x1AE44, symSize: 0x5C }
  - { offsetInCU: 0x32DF, offset: 0x74F06, size: 0x8, addend: 0x0, symName: '__ZN4core3ptr88drop_in_place$LT$pyo3..pycell..PyRefMut$LT$_native..py_config..PyFilmStackConfig$GT$$GT$17hd217f7dec285d24eE', symObjAddr: 0x4B68, symBinAddr: 0x1AEA0, symSize: 0x5C }
  - { offsetInCU: 0x330E, offset: 0x74F35, size: 0x8, addend: 0x0, symName: '__ZN4core3ptr88drop_in_place$LT$pyo3..pycell..PyRefMut$LT$_native..py_mnsl..PySubstrateCoupling$GT$$GT$17hdd8b625527b3ad52E', symObjAddr: 0x4BC4, symBinAddr: 0x1AEFC, symSize: 0x5C }
  - { offsetInCU: 0x333D, offset: 0x74F64, size: 0x8, addend: 0x0, symName: '__ZN4core3ptr89drop_in_place$LT$pyo3..instance..Py$LT$_native..py_results..PyResistProfileResult$GT$$GT$17h61f3f55880cb7fcaE', symObjAddr: 0x4C20, symBinAddr: 0x1AF58, symSize: 0x2C }
  - { offsetInCU: 0x336C, offset: 0x74F93, size: 0x8, addend: 0x0, symName: '__ZN4core3ptr89drop_in_place$LT$pyo3..instance..Py$LT$_native..py_simulation..PySimulationEngine$GT$$GT$17h3810e3d9126d27fdE', symObjAddr: 0x4C4C, symBinAddr: 0x1AF84, symSize: 0x2C }
  - { offsetInCU: 0x339B, offset: 0x74FC2, size: 0x8, addend: 0x0, symName: '__ZN4core3ptr89drop_in_place$LT$pyo3..pycell..PyRef$LT$_native..py_mnsl..PyNanosphereArrayConfig$GT$$GT$17h5d0052f93e4831f5E', symObjAddr: 0x4C78, symBinAddr: 0x1AFB0, symSize: 0x5C }
  - { offsetInCU: 0x33CA, offset: 0x74FF1, size: 0x8, addend: 0x0, symName: '__ZN4core3ptr90drop_in_place$LT$pyo3..instance..Bound$LT$_native..py_results..PyAerialImageResult$GT$$GT$17h47663abcddb2532fE', symObjAddr: 0x4CD4, symBinAddr: 0x1B00C, symSize: 0x24 }
  - { offsetInCU: 0x33F9, offset: 0x75020, size: 0x8, addend: 0x0, symName: '__ZN4core3ptr90drop_in_place$LT$pyo3..instance..Bound$LT$_native..py_sweep..PyProcessWindowResult$GT$$GT$17hebd58ee1a6ef5666E', symObjAddr: 0x4CF8, symBinAddr: 0x1B030, symSize: 0x24 }
  - { offsetInCU: 0x3428, offset: 0x7504F, size: 0x8, addend: 0x0, symName: '__ZN4core3ptr90drop_in_place$LT$pyo3..pycell..PyRef$LT$_native..py_results..PyResistProfileResult$GT$$GT$17h8d26165c44b09fd4E', symObjAddr: 0x4D1C, symBinAddr: 0x1B054, symSize: 0x5C }
  - { offsetInCU: 0x3457, offset: 0x7507E, size: 0x8, addend: 0x0, symName: '__ZN4core3ptr90drop_in_place$LT$pyo3..pycell..PyRef$LT$_native..py_simulation..PySimulationEngine$GT$$GT$17h0e7702e988910d72E', symObjAddr: 0x4D78, symBinAddr: 0x1B0B0, symSize: 0x5C }
  - { offsetInCU: 0x3486, offset: 0x750AD, size: 0x8, addend: 0x0, symName: '__ZN4core3ptr91drop_in_place$LT$core..cell..UnsafeCell$LT$_native..py_results..PyAerialImageResult$GT$$GT$17ha057624f7c285d3cE', symObjAddr: 0x4DD4, symBinAddr: 0x1B10C, symSize: 0x24 }
  - { offsetInCU: 0x34B5, offset: 0x750DC, size: 0x8, addend: 0x0, symName: '__ZN4core3ptr91drop_in_place$LT$core..cell..UnsafeCell$LT$_native..py_sweep..PyProcessWindowResult$GT$$GT$17h93c388fc0510474cE', symObjAddr: 0x4DF8, symBinAddr: 0x1B130, symSize: 0x24 }
  - { offsetInCU: 0x34E4, offset: 0x7510B, size: 0x8, addend: 0x0, symName: '__ZN4core3ptr91drop_in_place$LT$pyo3..instance..Bound$LT$_native..py_mnsl..PyNanosphereArrayConfig$GT$$GT$17h5ceb53d79f4d62f9E', symObjAddr: 0x4E1C, symBinAddr: 0x1B154, symSize: 0x24 }
  - { offsetInCU: 0x3513, offset: 0x7513A, size: 0x8, addend: 0x0, symName: '__ZN4core3ptr92drop_in_place$LT$pyo3..instance..Bound$LT$_native..py_results..PyResistProfileResult$GT$$GT$17hf522e0956633f47bE', symObjAddr: 0x4E40, symBinAddr: 0x1B178, symSize: 0x24 }
  - { offsetInCU: 0x3542, offset: 0x75169, size: 0x8, addend: 0x0, symName: '__ZN4core3ptr92drop_in_place$LT$pyo3..instance..Bound$LT$_native..py_simulation..PySimulationEngine$GT$$GT$17h29e9461e1d630bddE', symObjAddr: 0x4E64, symBinAddr: 0x1B19C, symSize: 0x24 }
  - { offsetInCU: 0x3571, offset: 0x75198, size: 0x8, addend: 0x0, symName: '__ZN4core3ptr92drop_in_place$LT$pyo3..pycell..PyRefMut$LT$_native..py_mnsl..PyNanosphereArrayConfig$GT$$GT$17h0c0c747e6dd32d25E', symObjAddr: 0x4E88, symBinAddr: 0x1B1C0, symSize: 0x5C }
  - { offsetInCU: 0x35A0, offset: 0x751C7, size: 0x8, addend: 0x0, symName: '__ZN4core3ptr93drop_in_place$LT$core..cell..UnsafeCell$LT$_native..py_results..PyResistProfileResult$GT$$GT$17h726f186531643e6bE', symObjAddr: 0x4EE4, symBinAddr: 0x1B21C, symSize: 0x24 }
  - { offsetInCU: 0x35CF, offset: 0x751F6, size: 0x8, addend: 0x0, symName: '__ZN4core3ptr93drop_in_place$LT$core..cell..UnsafeCell$LT$_native..py_simulation..PySimulationEngine$GT$$GT$17h7caed3546bd430bcE', symObjAddr: 0x4F08, symBinAddr: 0x1B240, symSize: 0x24 }
  - { offsetInCU: 0x35FE, offset: 0x75225, size: 0x8, addend: 0x0, symName: '__ZN4core3ptr94drop_in_place$LT$core..result..Result$LT$alloc..vec..Vec$LT$f64$GT$$C$pyo3..err..PyErr$GT$$GT$17hacf259720134f1cfE', symObjAddr: 0x4F2C, symBinAddr: 0x1B264, symSize: 0x50 }
  - { offsetInCU: 0x362D, offset: 0x75254, size: 0x8, addend: 0x0, symName: '__ZN4core3ptr97drop_in_place$LT$pyo3..pyclass_init..PyClassInitializer$LT$_native..py_mnsl..PyMnslConfig$GT$$GT$17he6eb4acb56e820fdE', symObjAddr: 0x4F7C, symBinAddr: 0x1B2B4, symSize: 0x24 }
  - { offsetInCU: 0x365C, offset: 0x75283, size: 0x8, addend: 0x0, symName: '__ZN4core3ptr97drop_in_place$LT$pyo3..pyclass_init..PyClassInitializer$LT$_native..py_mnsl..PyMnslEngine$GT$$GT$17hcf465e66c57489d0E', symObjAddr: 0x4FA0, symBinAddr: 0x1B2D8, symSize: 0x24 }
  - { offsetInCU: 0x368B, offset: 0x752B2, size: 0x8, addend: 0x0, symName: '__ZN4core3ptr97drop_in_place$LT$pyo3..pyclass_init..PyClassInitializer$LT$_native..py_mnsl..PyMnslResult$GT$$GT$17h23f762c692c51890E', symObjAddr: 0x4FC4, symBinAddr: 0x1B2FC, symSize: 0x24 }
  - { offsetInCU: 0x36BA, offset: 0x752E1, size: 0x8, addend: 0x0, symName: '__ZN4core3ptr98drop_in_place$LT$core..result..Result$LT$_native..py_mnsl..PyMnslEngine$C$pyo3..err..PyErr$GT$$GT$17hd382506c191aaadbE', symObjAddr: 0x4FE8, symBinAddr: 0x1B320, symSize: 0x5C }
  - { offsetInCU: 0x36E9, offset: 0x75310, size: 0x8, addend: 0x0, symName: '__ZN4core3ptr98drop_in_place$LT$core..result..Result$LT$_native..py_mnsl..PyMnslResult$C$pyo3..err..PyErr$GT$$GT$17hc038519721e92217E', symObjAddr: 0x5044, symBinAddr: 0x1B37C, symSize: 0x5C }
  - { offsetInCU: 0x3718, offset: 0x7533F, size: 0x8, addend: 0x0, symName: '__ZN4core3ptr99drop_in_place$LT$core..result..Result$LT$core..option..Option$LT$f64$GT$$C$pyo3..err..PyErr$GT$$GT$17h656fb4b24a90071cE', symObjAddr: 0x50A0, symBinAddr: 0x1B3D8, symSize: 0x40 }
  - { offsetInCU: 0x3747, offset: 0x7536E, size: 0x8, addend: 0x0, symName: '__ZN4core3ptr99drop_in_place$LT$pyo3..pyclass_init..PyClassInitializer$LT$_native..py_config..PyGridConfig$GT$$GT$17hd23159c08e96e56aE', symObjAddr: 0x50E0, symBinAddr: 0x1B418, symSize: 0x24 }
  - { offsetInCU: 0x3776, offset: 0x7539D, size: 0x8, addend: 0x0, symName: '__ZN4core3ptr99drop_in_place$LT$pyo3..pyclass_init..PyClassInitializer$LT$_native..py_config..PyMaskConfig$GT$$GT$17h35e048dd51315566E', symObjAddr: 0x5104, symBinAddr: 0x1B43C, symSize: 0x24 }
  - { offsetInCU: 0x59E2, offset: 0x77609, size: 0x8, addend: 0x0, symName: __ZN4core3ops8function5FnMut8call_mut17h80b12f4927e703e7E, symObjAddr: 0x264, symBinAddr: 0x1686C, symSize: 0x30 }
  - { offsetInCU: 0x5A2C, offset: 0x77653, size: 0x8, addend: 0x0, symName: '__ZN4core3ops8function6FnOnce40call_once$u7b$$u7b$vtable.shim$u7d$$u7d$17h9c14264fe3c71b4fE', symObjAddr: 0x294, symBinAddr: 0x1689C, symSize: 0x30 }
  - { offsetInCU: 0x5A70, offset: 0x77697, size: 0x8, addend: 0x0, symName: '__ZN4core3ops8function6FnOnce40call_once$u7b$$u7b$vtable.shim$u7d$$u7d$17hbca10780b8a2cfe9E', symObjAddr: 0x2C4, symBinAddr: 0x168CC, symSize: 0x30 }
  - { offsetInCU: 0x5AB4, offset: 0x776DB, size: 0x8, addend: 0x0, symName: __ZN4core3ops8function6FnOnce9call_once17h0058a675a8ce2d57E, symObjAddr: 0x2F4, symBinAddr: 0x168FC, symSize: 0x24 }
  - { offsetInCU: 0x5AF8, offset: 0x7771F, size: 0x8, addend: 0x0, symName: __ZN4core3ops8function6FnOnce9call_once17h01a30ee47f49e2dcE, symObjAddr: 0x318, symBinAddr: 0x16920, symSize: 0x3C }
  - { offsetInCU: 0x5B3C, offset: 0x77763, size: 0x8, addend: 0x0, symName: __ZN4core3ops8function6FnOnce9call_once17h0497607ab630057aE, symObjAddr: 0x354, symBinAddr: 0x1695C, symSize: 0x44 }
  - { offsetInCU: 0x5B80, offset: 0x777A7, size: 0x8, addend: 0x0, symName: __ZN4core3ops8function6FnOnce9call_once17h04b4267a6e42b160E, symObjAddr: 0x398, symBinAddr: 0x169A0, symSize: 0x3C }
  - { offsetInCU: 0x5BC4, offset: 0x777EB, size: 0x8, addend: 0x0, symName: __ZN4core3ops8function6FnOnce9call_once17h06ff210dcee87255E, symObjAddr: 0x3D4, symBinAddr: 0x169DC, symSize: 0x4C }
  - { offsetInCU: 0x5C08, offset: 0x7782F, size: 0x8, addend: 0x0, symName: __ZN4core3ops8function6FnOnce9call_once17h085e847d342b798fE, symObjAddr: 0x420, symBinAddr: 0x16A28, symSize: 0x44 }
  - { offsetInCU: 0x5C4C, offset: 0x77873, size: 0x8, addend: 0x0, symName: __ZN4core3ops8function6FnOnce9call_once17h0d054c32d9055367E, symObjAddr: 0x464, symBinAddr: 0x16A6C, symSize: 0x24 }
  - { offsetInCU: 0x5C90, offset: 0x778B7, size: 0x8, addend: 0x0, symName: __ZN4core3ops8function6FnOnce9call_once17h11ea1f27126f0c8cE, symObjAddr: 0x488, symBinAddr: 0x16A90, symSize: 0x44 }
  - { offsetInCU: 0x5CD4, offset: 0x778FB, size: 0x8, addend: 0x0, symName: __ZN4core3ops8function6FnOnce9call_once17h12a68bccb9a142ddE, symObjAddr: 0x4CC, symBinAddr: 0x16AD4, symSize: 0x44 }
  - { offsetInCU: 0x5D18, offset: 0x7793F, size: 0x8, addend: 0x0, symName: __ZN4core3ops8function6FnOnce9call_once17h14dc865874492379E, symObjAddr: 0x510, symBinAddr: 0x16B18, symSize: 0x24 }
  - { offsetInCU: 0x5D5C, offset: 0x77983, size: 0x8, addend: 0x0, symName: __ZN4core3ops8function6FnOnce9call_once17h1544f2133cef73caE, symObjAddr: 0x534, symBinAddr: 0x16B3C, symSize: 0x24 }
  - { offsetInCU: 0x5DA0, offset: 0x779C7, size: 0x8, addend: 0x0, symName: __ZN4core3ops8function6FnOnce9call_once17h1ad7217f9a7e8b01E, symObjAddr: 0x558, symBinAddr: 0x16B60, symSize: 0x44 }
  - { offsetInCU: 0x5DE4, offset: 0x77A0B, size: 0x8, addend: 0x0, symName: __ZN4core3ops8function6FnOnce9call_once17h1db9bead89cd934eE, symObjAddr: 0x59C, symBinAddr: 0x16BA4, symSize: 0x44 }
  - { offsetInCU: 0x5E28, offset: 0x77A4F, size: 0x8, addend: 0x0, symName: __ZN4core3ops8function6FnOnce9call_once17h1dc7a2a3216e55b4E, symObjAddr: 0x5E0, symBinAddr: 0x16BE8, symSize: 0x44 }
  - { offsetInCU: 0x5E6C, offset: 0x77A93, size: 0x8, addend: 0x0, symName: __ZN4core3ops8function6FnOnce9call_once17h1ed3cbbd524af45aE, symObjAddr: 0x624, symBinAddr: 0x16C2C, symSize: 0x44 }
  - { offsetInCU: 0x5EB0, offset: 0x77AD7, size: 0x8, addend: 0x0, symName: __ZN4core3ops8function6FnOnce9call_once17h218f90e43f0c8271E, symObjAddr: 0x668, symBinAddr: 0x16C70, symSize: 0x44 }
  - { offsetInCU: 0x5EF4, offset: 0x77B1B, size: 0x8, addend: 0x0, symName: __ZN4core3ops8function6FnOnce9call_once17h21aec71b6485646eE, symObjAddr: 0x6AC, symBinAddr: 0x16CB4, symSize: 0x24 }
  - { offsetInCU: 0x5F38, offset: 0x77B5F, size: 0x8, addend: 0x0, symName: __ZN4core3ops8function6FnOnce9call_once17h22b7a8059f4ad8e9E, symObjAddr: 0x6D0, symBinAddr: 0x16CD8, symSize: 0x24 }
  - { offsetInCU: 0x5F7C, offset: 0x77BA3, size: 0x8, addend: 0x0, symName: __ZN4core3ops8function6FnOnce9call_once17h2897f7abfd321367E, symObjAddr: 0x6F4, symBinAddr: 0x16CFC, symSize: 0x44 }
  - { offsetInCU: 0x5FC0, offset: 0x77BE7, size: 0x8, addend: 0x0, symName: __ZN4core3ops8function6FnOnce9call_once17h290c68ae45e21112E, symObjAddr: 0x738, symBinAddr: 0x16D40, symSize: 0x44 }
  - { offsetInCU: 0x6004, offset: 0x77C2B, size: 0x8, addend: 0x0, symName: __ZN4core3ops8function6FnOnce9call_once17h29c6ffb96c6b5626E, symObjAddr: 0x77C, symBinAddr: 0x16D84, symSize: 0x44 }
  - { offsetInCU: 0x6048, offset: 0x77C6F, size: 0x8, addend: 0x0, symName: __ZN4core3ops8function6FnOnce9call_once17h2a3df7b6bc8f7cdeE, symObjAddr: 0x7C0, symBinAddr: 0x16DC8, symSize: 0x54 }
  - { offsetInCU: 0x608C, offset: 0x77CB3, size: 0x8, addend: 0x0, symName: __ZN4core3ops8function6FnOnce9call_once17h2abe42d55058c5afE, symObjAddr: 0x814, symBinAddr: 0x16E1C, symSize: 0x44 }
  - { offsetInCU: 0x60D0, offset: 0x77CF7, size: 0x8, addend: 0x0, symName: __ZN4core3ops8function6FnOnce9call_once17h2d90fb32f89982b3E, symObjAddr: 0x858, symBinAddr: 0x16E60, symSize: 0x3C }
  - { offsetInCU: 0x6114, offset: 0x77D3B, size: 0x8, addend: 0x0, symName: __ZN4core3ops8function6FnOnce9call_once17h2dde284b2a917a4aE, symObjAddr: 0x894, symBinAddr: 0x16E9C, symSize: 0x44 }
  - { offsetInCU: 0x6158, offset: 0x77D7F, size: 0x8, addend: 0x0, symName: __ZN4core3ops8function6FnOnce9call_once17h376115b9127cb858E, symObjAddr: 0x8FC, symBinAddr: 0x16EE0, symSize: 0x44 }
  - { offsetInCU: 0x619C, offset: 0x77DC3, size: 0x8, addend: 0x0, symName: __ZN4core3ops8function6FnOnce9call_once17h38546425c46e3d29E, symObjAddr: 0x940, symBinAddr: 0x16F24, symSize: 0x44 }
  - { offsetInCU: 0x61E0, offset: 0x77E07, size: 0x8, addend: 0x0, symName: __ZN4core3ops8function6FnOnce9call_once17h394c9546f427d6ecE, symObjAddr: 0x984, symBinAddr: 0x16F68, symSize: 0x44 }
  - { offsetInCU: 0x6224, offset: 0x77E4B, size: 0x8, addend: 0x0, symName: __ZN4core3ops8function6FnOnce9call_once17h3aad32d3d9658976E, symObjAddr: 0x9C8, symBinAddr: 0x16FAC, symSize: 0x24 }
  - { offsetInCU: 0x6268, offset: 0x77E8F, size: 0x8, addend: 0x0, symName: __ZN4core3ops8function6FnOnce9call_once17h3aea3a1106c6ff74E, symObjAddr: 0x9EC, symBinAddr: 0x16FD0, symSize: 0x44 }
  - { offsetInCU: 0x62AC, offset: 0x77ED3, size: 0x8, addend: 0x0, symName: __ZN4core3ops8function6FnOnce9call_once17h3d0dedb836cc62acE, symObjAddr: 0xA30, symBinAddr: 0x17014, symSize: 0x24 }
  - { offsetInCU: 0x62F0, offset: 0x77F17, size: 0x8, addend: 0x0, symName: __ZN4core3ops8function6FnOnce9call_once17h3ec437db9d7aadd1E, symObjAddr: 0xA54, symBinAddr: 0x17038, symSize: 0x44 }
  - { offsetInCU: 0x6334, offset: 0x77F5B, size: 0x8, addend: 0x0, symName: __ZN4core3ops8function6FnOnce9call_once17h3fdc8c20a3fa1085E, symObjAddr: 0xA98, symBinAddr: 0x1707C, symSize: 0x24 }
  - { offsetInCU: 0x6378, offset: 0x77F9F, size: 0x8, addend: 0x0, symName: __ZN4core3ops8function6FnOnce9call_once17h454c9250201792dbE, symObjAddr: 0xABC, symBinAddr: 0x170A0, symSize: 0x24 }
  - { offsetInCU: 0x63BC, offset: 0x77FE3, size: 0x8, addend: 0x0, symName: __ZN4core3ops8function6FnOnce9call_once17h4a58d57b1b3eae40E, symObjAddr: 0xAE0, symBinAddr: 0x170C4, symSize: 0x44 }
  - { offsetInCU: 0x6400, offset: 0x78027, size: 0x8, addend: 0x0, symName: __ZN4core3ops8function6FnOnce9call_once17h4d19f3b2fa4943f1E, symObjAddr: 0xB24, symBinAddr: 0x17108, symSize: 0x24 }
  - { offsetInCU: 0x6444, offset: 0x7806B, size: 0x8, addend: 0x0, symName: __ZN4core3ops8function6FnOnce9call_once17h4df5f18c89ccc76dE, symObjAddr: 0xB48, symBinAddr: 0x1712C, symSize: 0x44 }
  - { offsetInCU: 0x6488, offset: 0x780AF, size: 0x8, addend: 0x0, symName: __ZN4core3ops8function6FnOnce9call_once17h4ec439e6193b1050E, symObjAddr: 0xB8C, symBinAddr: 0x17170, symSize: 0x44 }
  - { offsetInCU: 0x64CC, offset: 0x780F3, size: 0x8, addend: 0x0, symName: __ZN4core3ops8function6FnOnce9call_once17h4f1e706226eda293E, symObjAddr: 0xBD0, symBinAddr: 0x171B4, symSize: 0x44 }
  - { offsetInCU: 0x6510, offset: 0x78137, size: 0x8, addend: 0x0, symName: __ZN4core3ops8function6FnOnce9call_once17h50390b9b8fa48f33E, symObjAddr: 0xC14, symBinAddr: 0x171F8, symSize: 0x44 }
  - { offsetInCU: 0x6554, offset: 0x7817B, size: 0x8, addend: 0x0, symName: __ZN4core3ops8function6FnOnce9call_once17h523b0eac9e64c33fE, symObjAddr: 0xC58, symBinAddr: 0x1723C, symSize: 0x24 }
  - { offsetInCU: 0x6598, offset: 0x781BF, size: 0x8, addend: 0x0, symName: __ZN4core3ops8function6FnOnce9call_once17h560154801492727cE, symObjAddr: 0xC7C, symBinAddr: 0x17260, symSize: 0x44 }
  - { offsetInCU: 0x65DC, offset: 0x78203, size: 0x8, addend: 0x0, symName: __ZN4core3ops8function6FnOnce9call_once17h5f3bb91788ed7ac5E, symObjAddr: 0xCC0, symBinAddr: 0x172A4, symSize: 0x44 }
  - { offsetInCU: 0x6620, offset: 0x78247, size: 0x8, addend: 0x0, symName: __ZN4core3ops8function6FnOnce9call_once17h61be7ef8d6f34104E, symObjAddr: 0xD04, symBinAddr: 0x172E8, symSize: 0x44 }
  - { offsetInCU: 0x6664, offset: 0x7828B, size: 0x8, addend: 0x0, symName: __ZN4core3ops8function6FnOnce9call_once17h63a47d985f9f5210E, symObjAddr: 0xD48, symBinAddr: 0x1732C, symSize: 0x40 }
  - { offsetInCU: 0x66A8, offset: 0x782CF, size: 0x8, addend: 0x0, symName: __ZN4core3ops8function6FnOnce9call_once17h64aad4970313c1b2E, symObjAddr: 0xD88, symBinAddr: 0x1736C, symSize: 0x2C }
  - { offsetInCU: 0x66EC, offset: 0x78313, size: 0x8, addend: 0x0, symName: __ZN4core3ops8function6FnOnce9call_once17h650616a286234a9aE, symObjAddr: 0xDB4, symBinAddr: 0x17398, symSize: 0x48 }
  - { offsetInCU: 0x6730, offset: 0x78357, size: 0x8, addend: 0x0, symName: __ZN4core3ops8function6FnOnce9call_once17h69b39fbd2ad63763E, symObjAddr: 0xDFC, symBinAddr: 0x173E0, symSize: 0x24 }
  - { offsetInCU: 0x6774, offset: 0x7839B, size: 0x8, addend: 0x0, symName: __ZN4core3ops8function6FnOnce9call_once17h6b4c706b5185c7b0E, symObjAddr: 0xE20, symBinAddr: 0x17404, symSize: 0x44 }
  - { offsetInCU: 0x67B8, offset: 0x783DF, size: 0x8, addend: 0x0, symName: __ZN4core3ops8function6FnOnce9call_once17h785b0b3a9060a747E, symObjAddr: 0xE64, symBinAddr: 0x17448, symSize: 0x44 }
  - { offsetInCU: 0x67FC, offset: 0x78423, size: 0x8, addend: 0x0, symName: __ZN4core3ops8function6FnOnce9call_once17h78ddf629e982fa0fE, symObjAddr: 0xEA8, symBinAddr: 0x1748C, symSize: 0x24 }
  - { offsetInCU: 0x6840, offset: 0x78467, size: 0x8, addend: 0x0, symName: __ZN4core3ops8function6FnOnce9call_once17h791669abc4d9d3a6E, symObjAddr: 0xECC, symBinAddr: 0x174B0, symSize: 0x24 }
  - { offsetInCU: 0x6884, offset: 0x784AB, size: 0x8, addend: 0x0, symName: __ZN4core3ops8function6FnOnce9call_once17h7a514d52d004a773E, symObjAddr: 0xEF0, symBinAddr: 0x174D4, symSize: 0x44 }
  - { offsetInCU: 0x68C8, offset: 0x784EF, size: 0x8, addend: 0x0, symName: __ZN4core3ops8function6FnOnce9call_once17h7c9fa7ec86e4faafE, symObjAddr: 0xF34, symBinAddr: 0x17518, symSize: 0x24 }
  - { offsetInCU: 0x690C, offset: 0x78533, size: 0x8, addend: 0x0, symName: __ZN4core3ops8function6FnOnce9call_once17h7e4015be6eabbdc3E, symObjAddr: 0xF58, symBinAddr: 0x1753C, symSize: 0x44 }
  - { offsetInCU: 0x6950, offset: 0x78577, size: 0x8, addend: 0x0, symName: __ZN4core3ops8function6FnOnce9call_once17h7fb77246f672a028E, symObjAddr: 0xF9C, symBinAddr: 0x17580, symSize: 0x3C }
  - { offsetInCU: 0x6994, offset: 0x785BB, size: 0x8, addend: 0x0, symName: __ZN4core3ops8function6FnOnce9call_once17h7fce97ae04d1af5bE, symObjAddr: 0xFD8, symBinAddr: 0x175BC, symSize: 0x44 }
  - { offsetInCU: 0x69D8, offset: 0x785FF, size: 0x8, addend: 0x0, symName: __ZN4core3ops8function6FnOnce9call_once17h858f7d2fd7ee1106E, symObjAddr: 0x101C, symBinAddr: 0x17600, symSize: 0x24 }
  - { offsetInCU: 0x6A1C, offset: 0x78643, size: 0x8, addend: 0x0, symName: __ZN4core3ops8function6FnOnce9call_once17h89b9a14e46cdae3dE, symObjAddr: 0x1040, symBinAddr: 0x17624, symSize: 0x44 }
  - { offsetInCU: 0x6A60, offset: 0x78687, size: 0x8, addend: 0x0, symName: __ZN4core3ops8function6FnOnce9call_once17h8a0da4f6cf37942eE, symObjAddr: 0x1084, symBinAddr: 0x17668, symSize: 0x3C }
  - { offsetInCU: 0x6AA4, offset: 0x786CB, size: 0x8, addend: 0x0, symName: __ZN4core3ops8function6FnOnce9call_once17h8d6645bf2029494fE, symObjAddr: 0x10C0, symBinAddr: 0x176A4, symSize: 0x24 }
  - { offsetInCU: 0x6AE8, offset: 0x7870F, size: 0x8, addend: 0x0, symName: __ZN4core3ops8function6FnOnce9call_once17h980d6bf275a51964E, symObjAddr: 0x10E4, symBinAddr: 0x176C8, symSize: 0x44 }
  - { offsetInCU: 0x6B2C, offset: 0x78753, size: 0x8, addend: 0x0, symName: __ZN4core3ops8function6FnOnce9call_once17h98ab835ec82d5af8E, symObjAddr: 0x1128, symBinAddr: 0x1770C, symSize: 0x24 }
  - { offsetInCU: 0x6B70, offset: 0x78797, size: 0x8, addend: 0x0, symName: __ZN4core3ops8function6FnOnce9call_once17h98d81b513609efa2E, symObjAddr: 0x114C, symBinAddr: 0x17730, symSize: 0x44 }
  - { offsetInCU: 0x6BB4, offset: 0x787DB, size: 0x8, addend: 0x0, symName: __ZN4core3ops8function6FnOnce9call_once17h991c29b9ff5e0bfeE, symObjAddr: 0x1190, symBinAddr: 0x17774, symSize: 0x24 }
  - { offsetInCU: 0x6BF8, offset: 0x7881F, size: 0x8, addend: 0x0, symName: __ZN4core3ops8function6FnOnce9call_once17ha435a38ac26a40a2E, symObjAddr: 0x11B4, symBinAddr: 0x17798, symSize: 0x24 }
  - { offsetInCU: 0x6C3C, offset: 0x78863, size: 0x8, addend: 0x0, symName: __ZN4core3ops8function6FnOnce9call_once17ha6c31337880a9041E, symObjAddr: 0x11D8, symBinAddr: 0x177BC, symSize: 0x44 }
  - { offsetInCU: 0x6C80, offset: 0x788A7, size: 0x8, addend: 0x0, symName: __ZN4core3ops8function6FnOnce9call_once17ha7bf8944374a72bdE, symObjAddr: 0x121C, symBinAddr: 0x17800, symSize: 0x44 }
  - { offsetInCU: 0x6CC4, offset: 0x788EB, size: 0x8, addend: 0x0, symName: __ZN4core3ops8function6FnOnce9call_once17hae44e9f09fa1afe0E, symObjAddr: 0x1260, symBinAddr: 0x17844, symSize: 0x44 }
  - { offsetInCU: 0x6D08, offset: 0x7892F, size: 0x8, addend: 0x0, symName: __ZN4core3ops8function6FnOnce9call_once17hb8785e131bcb8949E, symObjAddr: 0x12A4, symBinAddr: 0x17888, symSize: 0x24 }
  - { offsetInCU: 0x6D4C, offset: 0x78973, size: 0x8, addend: 0x0, symName: __ZN4core3ops8function6FnOnce9call_once17hbd94aaaa19cfa096E, symObjAddr: 0x12C8, symBinAddr: 0x178AC, symSize: 0x24 }
  - { offsetInCU: 0x6D90, offset: 0x789B7, size: 0x8, addend: 0x0, symName: __ZN4core3ops8function6FnOnce9call_once17hc1879094ca191777E, symObjAddr: 0x12EC, symBinAddr: 0x178D0, symSize: 0x3C }
  - { offsetInCU: 0x6DD4, offset: 0x789FB, size: 0x8, addend: 0x0, symName: __ZN4core3ops8function6FnOnce9call_once17hc7c98bbe4c1086caE, symObjAddr: 0x1328, symBinAddr: 0x1790C, symSize: 0x24 }
  - { offsetInCU: 0x6E18, offset: 0x78A3F, size: 0x8, addend: 0x0, symName: __ZN4core3ops8function6FnOnce9call_once17hc9994244f10bf37eE, symObjAddr: 0x134C, symBinAddr: 0x17930, symSize: 0x44 }
  - { offsetInCU: 0x6E5C, offset: 0x78A83, size: 0x8, addend: 0x0, symName: __ZN4core3ops8function6FnOnce9call_once17hcb109699dbd8ef0bE, symObjAddr: 0x1390, symBinAddr: 0x17974, symSize: 0x3C }
  - { offsetInCU: 0x6EA0, offset: 0x78AC7, size: 0x8, addend: 0x0, symName: __ZN4core3ops8function6FnOnce9call_once17hcf84d97f7370ae5aE, symObjAddr: 0x13CC, symBinAddr: 0x179B0, symSize: 0x44 }
  - { offsetInCU: 0x6EE4, offset: 0x78B0B, size: 0x8, addend: 0x0, symName: __ZN4core3ops8function6FnOnce9call_once17hcfab83494b6eb07cE, symObjAddr: 0x1410, symBinAddr: 0x179F4, symSize: 0x44 }
  - { offsetInCU: 0x6F28, offset: 0x78B4F, size: 0x8, addend: 0x0, symName: __ZN4core3ops8function6FnOnce9call_once17hd0163552891262f3E, symObjAddr: 0x1454, symBinAddr: 0x17A38, symSize: 0x24 }
  - { offsetInCU: 0x6F6C, offset: 0x78B93, size: 0x8, addend: 0x0, symName: __ZN4core3ops8function6FnOnce9call_once17hd1c64499a498e89aE, symObjAddr: 0x1478, symBinAddr: 0x17A5C, symSize: 0x24 }
  - { offsetInCU: 0x6FB0, offset: 0x78BD7, size: 0x8, addend: 0x0, symName: __ZN4core3ops8function6FnOnce9call_once17hd2e61ddf7d7df8bcE, symObjAddr: 0x149C, symBinAddr: 0x17A80, symSize: 0x54 }
  - { offsetInCU: 0x6FF4, offset: 0x78C1B, size: 0x8, addend: 0x0, symName: __ZN4core3ops8function6FnOnce9call_once17hd3380ad3e26fd4c9E, symObjAddr: 0x14F0, symBinAddr: 0x17AD4, symSize: 0x24 }
  - { offsetInCU: 0x7038, offset: 0x78C5F, size: 0x8, addend: 0x0, symName: __ZN4core3ops8function6FnOnce9call_once17hd6ac5313ffed44d5E, symObjAddr: 0x1514, symBinAddr: 0x17AF8, symSize: 0x44 }
  - { offsetInCU: 0x707C, offset: 0x78CA3, size: 0x8, addend: 0x0, symName: __ZN4core3ops8function6FnOnce9call_once17hd760517eb34127edE, symObjAddr: 0x1558, symBinAddr: 0x17B3C, symSize: 0x24 }
  - { offsetInCU: 0x70C0, offset: 0x78CE7, size: 0x8, addend: 0x0, symName: __ZN4core3ops8function6FnOnce9call_once17hdec4b2eae9093718E, symObjAddr: 0x157C, symBinAddr: 0x17B60, symSize: 0x24 }
  - { offsetInCU: 0x7104, offset: 0x78D2B, size: 0x8, addend: 0x0, symName: __ZN4core3ops8function6FnOnce9call_once17he2ee3b148b024726E, symObjAddr: 0x15A0, symBinAddr: 0x17B84, symSize: 0x24 }
  - { offsetInCU: 0x7148, offset: 0x78D6F, size: 0x8, addend: 0x0, symName: __ZN4core3ops8function6FnOnce9call_once17he546dc75b74e50b1E, symObjAddr: 0x15C4, symBinAddr: 0x17BA8, symSize: 0x3C }
  - { offsetInCU: 0x718C, offset: 0x78DB3, size: 0x8, addend: 0x0, symName: __ZN4core3ops8function6FnOnce9call_once17he7bc356f31ad7fb1E, symObjAddr: 0x1600, symBinAddr: 0x17BE4, symSize: 0x24 }
  - { offsetInCU: 0x71D0, offset: 0x78DF7, size: 0x8, addend: 0x0, symName: __ZN4core3ops8function6FnOnce9call_once17hea9186025da3d955E, symObjAddr: 0x1624, symBinAddr: 0x17C08, symSize: 0x44 }
  - { offsetInCU: 0x7214, offset: 0x78E3B, size: 0x8, addend: 0x0, symName: __ZN4core3ops8function6FnOnce9call_once17hed702cbe88a772a3E, symObjAddr: 0x1668, symBinAddr: 0x17C4C, symSize: 0x44 }
  - { offsetInCU: 0x7258, offset: 0x78E7F, size: 0x8, addend: 0x0, symName: __ZN4core3ops8function6FnOnce9call_once17hf298f0ba0ca8792aE, symObjAddr: 0x16AC, symBinAddr: 0x17C90, symSize: 0x24 }
  - { offsetInCU: 0x729C, offset: 0x78EC3, size: 0x8, addend: 0x0, symName: __ZN4core3ops8function6FnOnce9call_once17hf88dfa6941b4c57aE, symObjAddr: 0x16D0, symBinAddr: 0x17CB4, symSize: 0x24 }
  - { offsetInCU: 0x72E0, offset: 0x78F07, size: 0x8, addend: 0x0, symName: __ZN4core3ops8function6FnOnce9call_once17hfab4d7e695ac4d2eE, symObjAddr: 0x16F4, symBinAddr: 0x17CD8, symSize: 0x40 }
  - { offsetInCU: 0x7324, offset: 0x78F4B, size: 0x8, addend: 0x0, symName: __ZN4core3ops8function6FnOnce9call_once17hfb5400bad20bdad7E, symObjAddr: 0x1734, symBinAddr: 0x17D18, symSize: 0x44 }
  - { offsetInCU: 0x7368, offset: 0x78F8F, size: 0x8, addend: 0x0, symName: __ZN4core3ops8function6FnOnce9call_once17hfee08dab64b4b4eeE, symObjAddr: 0x1778, symBinAddr: 0x17D5C, symSize: 0x44 }
  - { offsetInCU: 0x73E5, offset: 0x7900C, size: 0x8, addend: 0x0, symName: '__ZN82_$LT$core..array..iter..IntoIter$LT$T$C$_$GT$$u20$as$u20$core..ops..drop..Drop$GT$4drop17hcec62ad2a6b1e5fdE', symObjAddr: 0x7A20, symBinAddr: 0x1DD58, symSize: 0x14 }
  - { offsetInCU: 0x95F9, offset: 0x7B220, size: 0x8, addend: 0x0, symName: '__ZN69_$LT$pyo3..instance..Py$LT$T$GT$$u20$as$u20$core..ops..drop..Drop$GT$4drop17h3010023157be3f8eE', symObjAddr: 0x5128, symBinAddr: 0x1B460, symSize: 0x28 }
  - { offsetInCU: 0x962C, offset: 0x7B253, size: 0x8, addend: 0x0, symName: '__ZN69_$LT$pyo3..instance..Py$LT$T$GT$$u20$as$u20$core..ops..drop..Drop$GT$4drop17h31d7683c4f6a0ecdE', symObjAddr: 0x5150, symBinAddr: 0x1B488, symSize: 0x28 }
  - { offsetInCU: 0x965F, offset: 0x7B286, size: 0x8, addend: 0x0, symName: '__ZN69_$LT$pyo3..instance..Py$LT$T$GT$$u20$as$u20$core..ops..drop..Drop$GT$4drop17h409c83c0bf006c59E', symObjAddr: 0x5178, symBinAddr: 0x1B4B0, symSize: 0x28 }
  - { offsetInCU: 0x9692, offset: 0x7B2B9, size: 0x8, addend: 0x0, symName: '__ZN69_$LT$pyo3..instance..Py$LT$T$GT$$u20$as$u20$core..ops..drop..Drop$GT$4drop17h4f7fc6b36dfea87eE', symObjAddr: 0x51A0, symBinAddr: 0x1B4D8, symSize: 0x28 }
  - { offsetInCU: 0x96C5, offset: 0x7B2EC, size: 0x8, addend: 0x0, symName: '__ZN69_$LT$pyo3..instance..Py$LT$T$GT$$u20$as$u20$core..ops..drop..Drop$GT$4drop17h559e851b429e04d8E', symObjAddr: 0x51C8, symBinAddr: 0x1B500, symSize: 0x28 }
  - { offsetInCU: 0x96F8, offset: 0x7B31F, size: 0x8, addend: 0x0, symName: '__ZN69_$LT$pyo3..instance..Py$LT$T$GT$$u20$as$u20$core..ops..drop..Drop$GT$4drop17h5caca62b691f2632E', symObjAddr: 0x51F0, symBinAddr: 0x1B528, symSize: 0x28 }
  - { offsetInCU: 0x972B, offset: 0x7B352, size: 0x8, addend: 0x0, symName: '__ZN69_$LT$pyo3..instance..Py$LT$T$GT$$u20$as$u20$core..ops..drop..Drop$GT$4drop17h5db966e3464d0912E', symObjAddr: 0x5218, symBinAddr: 0x1B550, symSize: 0x28 }
  - { offsetInCU: 0x975E, offset: 0x7B385, size: 0x8, addend: 0x0, symName: '__ZN69_$LT$pyo3..instance..Py$LT$T$GT$$u20$as$u20$core..ops..drop..Drop$GT$4drop17h6c7aef7a02d53d53E', symObjAddr: 0x5240, symBinAddr: 0x1B578, symSize: 0x28 }
  - { offsetInCU: 0x9791, offset: 0x7B3B8, size: 0x8, addend: 0x0, symName: '__ZN69_$LT$pyo3..instance..Py$LT$T$GT$$u20$as$u20$core..ops..drop..Drop$GT$4drop17h6d5a1438a029936eE', symObjAddr: 0x5268, symBinAddr: 0x1B5A0, symSize: 0x28 }
  - { offsetInCU: 0x97C4, offset: 0x7B3EB, size: 0x8, addend: 0x0, symName: '__ZN69_$LT$pyo3..instance..Py$LT$T$GT$$u20$as$u20$core..ops..drop..Drop$GT$4drop17h8bcb6b68c3b9f4f9E', symObjAddr: 0x5290, symBinAddr: 0x1B5C8, symSize: 0x28 }
  - { offsetInCU: 0x97F7, offset: 0x7B41E, size: 0x8, addend: 0x0, symName: '__ZN69_$LT$pyo3..instance..Py$LT$T$GT$$u20$as$u20$core..ops..drop..Drop$GT$4drop17h99228c302999d8b1E', symObjAddr: 0x52B8, symBinAddr: 0x1B5F0, symSize: 0x28 }
  - { offsetInCU: 0x982A, offset: 0x7B451, size: 0x8, addend: 0x0, symName: '__ZN69_$LT$pyo3..instance..Py$LT$T$GT$$u20$as$u20$core..ops..drop..Drop$GT$4drop17hb01d620a2552edaaE', symObjAddr: 0x52E0, symBinAddr: 0x1B618, symSize: 0x28 }
  - { offsetInCU: 0x985D, offset: 0x7B484, size: 0x8, addend: 0x0, symName: '__ZN69_$LT$pyo3..instance..Py$LT$T$GT$$u20$as$u20$core..ops..drop..Drop$GT$4drop17hb951a668fe2d153bE', symObjAddr: 0x5308, symBinAddr: 0x1B640, symSize: 0x28 }
  - { offsetInCU: 0x9890, offset: 0x7B4B7, size: 0x8, addend: 0x0, symName: '__ZN69_$LT$pyo3..instance..Py$LT$T$GT$$u20$as$u20$core..ops..drop..Drop$GT$4drop17hbc70e36dea0fd185E', symObjAddr: 0x5330, symBinAddr: 0x1B668, symSize: 0x28 }
  - { offsetInCU: 0x98C3, offset: 0x7B4EA, size: 0x8, addend: 0x0, symName: '__ZN69_$LT$pyo3..instance..Py$LT$T$GT$$u20$as$u20$core..ops..drop..Drop$GT$4drop17he14b7801f6464362E', symObjAddr: 0x5358, symBinAddr: 0x1B690, symSize: 0x28 }
  - { offsetInCU: 0x98F6, offset: 0x7B51D, size: 0x8, addend: 0x0, symName: '__ZN69_$LT$pyo3..instance..Py$LT$T$GT$$u20$as$u20$core..ops..drop..Drop$GT$4drop17he4ffcd72e3d2b513E', symObjAddr: 0x5380, symBinAddr: 0x1B6B8, symSize: 0x28 }
  - { offsetInCU: 0x9929, offset: 0x7B550, size: 0x8, addend: 0x0, symName: '__ZN69_$LT$pyo3..instance..Py$LT$T$GT$$u20$as$u20$core..ops..drop..Drop$GT$4drop17he7d5e1c01ed8edcbE', symObjAddr: 0x53A8, symBinAddr: 0x1B6E0, symSize: 0x28 }
  - { offsetInCU: 0x995C, offset: 0x7B583, size: 0x8, addend: 0x0, symName: '__ZN69_$LT$pyo3..instance..Py$LT$T$GT$$u20$as$u20$core..ops..drop..Drop$GT$4drop17hf1849676fba6cafdE', symObjAddr: 0x53D0, symBinAddr: 0x1B708, symSize: 0x28 }
  - { offsetInCU: 0x9995, offset: 0x7B5BC, size: 0x8, addend: 0x0, symName: '__ZN72_$LT$pyo3..instance..Bound$LT$T$GT$$u20$as$u20$core..ops..drop..Drop$GT$4drop17h07104c317b10ffc5E', symObjAddr: 0x57C8, symBinAddr: 0x1BB00, symSize: 0x1A0 }
  - { offsetInCU: 0x9A04, offset: 0x7B62B, size: 0x8, addend: 0x0, symName: '__ZN72_$LT$pyo3..instance..Bound$LT$T$GT$$u20$as$u20$core..ops..drop..Drop$GT$4drop17h1a48440eb1194350E', symObjAddr: 0x5968, symBinAddr: 0x1BCA0, symSize: 0x1A0 }
  - { offsetInCU: 0x9A73, offset: 0x7B69A, size: 0x8, addend: 0x0, symName: '__ZN72_$LT$pyo3..instance..Bound$LT$T$GT$$u20$as$u20$core..ops..drop..Drop$GT$4drop17h1f3e1ae29f4740feE', symObjAddr: 0x5B08, symBinAddr: 0x1BE40, symSize: 0x1A0 }
  - { offsetInCU: 0x9AE2, offset: 0x7B709, size: 0x8, addend: 0x0, symName: '__ZN72_$LT$pyo3..instance..Bound$LT$T$GT$$u20$as$u20$core..ops..drop..Drop$GT$4drop17h296c9fdd8a38642aE', symObjAddr: 0x5CA8, symBinAddr: 0x1BFE0, symSize: 0x1A0 }
  - { offsetInCU: 0x9B51, offset: 0x7B778, size: 0x8, addend: 0x0, symName: '__ZN72_$LT$pyo3..instance..Bound$LT$T$GT$$u20$as$u20$core..ops..drop..Drop$GT$4drop17h34c4118670bbdf3bE', symObjAddr: 0x5E48, symBinAddr: 0x1C180, symSize: 0x1A0 }
  - { offsetInCU: 0x9BC0, offset: 0x7B7E7, size: 0x8, addend: 0x0, symName: '__ZN72_$LT$pyo3..instance..Bound$LT$T$GT$$u20$as$u20$core..ops..drop..Drop$GT$4drop17h50f12c33bc84416aE', symObjAddr: 0x5FE8, symBinAddr: 0x1C320, symSize: 0x1A0 }
  - { offsetInCU: 0x9C2F, offset: 0x7B856, size: 0x8, addend: 0x0, symName: '__ZN72_$LT$pyo3..instance..Bound$LT$T$GT$$u20$as$u20$core..ops..drop..Drop$GT$4drop17h623e62255505d599E', symObjAddr: 0x6188, symBinAddr: 0x1C4C0, symSize: 0x1A0 }
  - { offsetInCU: 0x9C9E, offset: 0x7B8C5, size: 0x8, addend: 0x0, symName: '__ZN72_$LT$pyo3..instance..Bound$LT$T$GT$$u20$as$u20$core..ops..drop..Drop$GT$4drop17h6f7a3c7594e0d913E', symObjAddr: 0x6328, symBinAddr: 0x1C660, symSize: 0x1A0 }
  - { offsetInCU: 0x9D0D, offset: 0x7B934, size: 0x8, addend: 0x0, symName: '__ZN72_$LT$pyo3..instance..Bound$LT$T$GT$$u20$as$u20$core..ops..drop..Drop$GT$4drop17h71ffc2be7ee9021fE', symObjAddr: 0x64C8, symBinAddr: 0x1C800, symSize: 0x1A0 }
  - { offsetInCU: 0x9D7C, offset: 0x7B9A3, size: 0x8, addend: 0x0, symName: '__ZN72_$LT$pyo3..instance..Bound$LT$T$GT$$u20$as$u20$core..ops..drop..Drop$GT$4drop17h7764a6b1ba191a37E', symObjAddr: 0x6668, symBinAddr: 0x1C9A0, symSize: 0x1A0 }
  - { offsetInCU: 0x9DEB, offset: 0x7BA12, size: 0x8, addend: 0x0, symName: '__ZN72_$LT$pyo3..instance..Bound$LT$T$GT$$u20$as$u20$core..ops..drop..Drop$GT$4drop17h7feabf5a15760c2cE', symObjAddr: 0x6808, symBinAddr: 0x1CB40, symSize: 0x1A0 }
  - { offsetInCU: 0x9E5A, offset: 0x7BA81, size: 0x8, addend: 0x0, symName: '__ZN72_$LT$pyo3..instance..Bound$LT$T$GT$$u20$as$u20$core..ops..drop..Drop$GT$4drop17h8f1985ef362a9c7cE', symObjAddr: 0x69A8, symBinAddr: 0x1CCE0, symSize: 0x1A0 }
  - { offsetInCU: 0x9EC9, offset: 0x7BAF0, size: 0x8, addend: 0x0, symName: '__ZN72_$LT$pyo3..instance..Bound$LT$T$GT$$u20$as$u20$core..ops..drop..Drop$GT$4drop17ha74fed80854a7bd6E', symObjAddr: 0x6B48, symBinAddr: 0x1CE80, symSize: 0x1A0 }
  - { offsetInCU: 0x9F38, offset: 0x7BB5F, size: 0x8, addend: 0x0, symName: '__ZN72_$LT$pyo3..instance..Bound$LT$T$GT$$u20$as$u20$core..ops..drop..Drop$GT$4drop17ha9fa909ae14e2061E', symObjAddr: 0x6CE8, symBinAddr: 0x1D020, symSize: 0x1A0 }
  - { offsetInCU: 0x9FA7, offset: 0x7BBCE, size: 0x8, addend: 0x0, symName: '__ZN72_$LT$pyo3..instance..Bound$LT$T$GT$$u20$as$u20$core..ops..drop..Drop$GT$4drop17hbfaf65d81a546806E', symObjAddr: 0x6E88, symBinAddr: 0x1D1C0, symSize: 0x1A0 }
  - { offsetInCU: 0xA016, offset: 0x7BC3D, size: 0x8, addend: 0x0, symName: '__ZN72_$LT$pyo3..instance..Bound$LT$T$GT$$u20$as$u20$core..ops..drop..Drop$GT$4drop17hca74952c9d7b57c3E', symObjAddr: 0x7028, symBinAddr: 0x1D360, symSize: 0x1A0 }
  - { offsetInCU: 0xA085, offset: 0x7BCAC, size: 0x8, addend: 0x0, symName: '__ZN72_$LT$pyo3..instance..Bound$LT$T$GT$$u20$as$u20$core..ops..drop..Drop$GT$4drop17hd8ec30b209180cbcE', symObjAddr: 0x71C8, symBinAddr: 0x1D500, symSize: 0x1A0 }
  - { offsetInCU: 0xA0F4, offset: 0x7BD1B, size: 0x8, addend: 0x0, symName: '__ZN72_$LT$pyo3..instance..Bound$LT$T$GT$$u20$as$u20$core..ops..drop..Drop$GT$4drop17hdb25d49bca1395b0E', symObjAddr: 0x7368, symBinAddr: 0x1D6A0, symSize: 0x1A0 }
  - { offsetInCU: 0xA163, offset: 0x7BD8A, size: 0x8, addend: 0x0, symName: '__ZN72_$LT$pyo3..instance..Bound$LT$T$GT$$u20$as$u20$core..ops..drop..Drop$GT$4drop17he5d3293b860bf078E', symObjAddr: 0x7508, symBinAddr: 0x1D840, symSize: 0x1A0 }
  - { offsetInCU: 0xA1D2, offset: 0x7BDF9, size: 0x8, addend: 0x0, symName: '__ZN72_$LT$pyo3..instance..Bound$LT$T$GT$$u20$as$u20$core..ops..drop..Drop$GT$4drop17heac3803bd3b4090eE', symObjAddr: 0x76A8, symBinAddr: 0x1D9E0, symSize: 0x1A0 }
  - { offsetInCU: 0xAEBB, offset: 0x7CAE2, size: 0x8, addend: 0x0, symName: '__ZN70_$LT$pyo3..pycell..PyRef$LT$T$GT$$u20$as$u20$core..ops..drop..Drop$GT$4drop17h27e1ef8560247b94E', symObjAddr: 0x54B0, symBinAddr: 0x1B7E8, symSize: 0x2C }
  - { offsetInCU: 0xAEEE, offset: 0x7CB15, size: 0x8, addend: 0x0, symName: '__ZN70_$LT$pyo3..pycell..PyRef$LT$T$GT$$u20$as$u20$core..ops..drop..Drop$GT$4drop17h3453493a615d7cb1E', symObjAddr: 0x54DC, symBinAddr: 0x1B814, symSize: 0x2C }
  - { offsetInCU: 0xAF21, offset: 0x7CB48, size: 0x8, addend: 0x0, symName: '__ZN70_$LT$pyo3..pycell..PyRef$LT$T$GT$$u20$as$u20$core..ops..drop..Drop$GT$4drop17h37f1dedc1dd3385bE', symObjAddr: 0x5508, symBinAddr: 0x1B840, symSize: 0x2C }
  - { offsetInCU: 0xAF54, offset: 0x7CB7B, size: 0x8, addend: 0x0, symName: '__ZN70_$LT$pyo3..pycell..PyRef$LT$T$GT$$u20$as$u20$core..ops..drop..Drop$GT$4drop17h3b2afc3c0018ce1eE', symObjAddr: 0x5534, symBinAddr: 0x1B86C, symSize: 0x2C }
  - { offsetInCU: 0xAF87, offset: 0x7CBAE, size: 0x8, addend: 0x0, symName: '__ZN70_$LT$pyo3..pycell..PyRef$LT$T$GT$$u20$as$u20$core..ops..drop..Drop$GT$4drop17h49524133a9fc549eE', symObjAddr: 0x5560, symBinAddr: 0x1B898, symSize: 0x2C }
  - { offsetInCU: 0xAFBA, offset: 0x7CBE1, size: 0x8, addend: 0x0, symName: '__ZN70_$LT$pyo3..pycell..PyRef$LT$T$GT$$u20$as$u20$core..ops..drop..Drop$GT$4drop17h60b1af2ed08a1b85E', symObjAddr: 0x558C, symBinAddr: 0x1B8C4, symSize: 0x2C }
  - { offsetInCU: 0xAFED, offset: 0x7CC14, size: 0x8, addend: 0x0, symName: '__ZN70_$LT$pyo3..pycell..PyRef$LT$T$GT$$u20$as$u20$core..ops..drop..Drop$GT$4drop17h675fe5aaa345f9acE', symObjAddr: 0x55B8, symBinAddr: 0x1B8F0, symSize: 0x2C }
  - { offsetInCU: 0xB020, offset: 0x7CC47, size: 0x8, addend: 0x0, symName: '__ZN70_$LT$pyo3..pycell..PyRef$LT$T$GT$$u20$as$u20$core..ops..drop..Drop$GT$4drop17h708a5ae57b4951e2E', symObjAddr: 0x55E4, symBinAddr: 0x1B91C, symSize: 0x2C }
  - { offsetInCU: 0xB053, offset: 0x7CC7A, size: 0x8, addend: 0x0, symName: '__ZN70_$LT$pyo3..pycell..PyRef$LT$T$GT$$u20$as$u20$core..ops..drop..Drop$GT$4drop17h7e1ebb3410a86694E', symObjAddr: 0x5610, symBinAddr: 0x1B948, symSize: 0x2C }
  - { offsetInCU: 0xB086, offset: 0x7CCAD, size: 0x8, addend: 0x0, symName: '__ZN70_$LT$pyo3..pycell..PyRef$LT$T$GT$$u20$as$u20$core..ops..drop..Drop$GT$4drop17h81217acbd22337f8E', symObjAddr: 0x563C, symBinAddr: 0x1B974, symSize: 0x2C }
  - { offsetInCU: 0xB0B9, offset: 0x7CCE0, size: 0x8, addend: 0x0, symName: '__ZN70_$LT$pyo3..pycell..PyRef$LT$T$GT$$u20$as$u20$core..ops..drop..Drop$GT$4drop17h9a413be6a5e889e9E', symObjAddr: 0x5668, symBinAddr: 0x1B9A0, symSize: 0x2C }
  - { offsetInCU: 0xB0EC, offset: 0x7CD13, size: 0x8, addend: 0x0, symName: '__ZN70_$LT$pyo3..pycell..PyRef$LT$T$GT$$u20$as$u20$core..ops..drop..Drop$GT$4drop17ha3b01cdb7555d910E', symObjAddr: 0x5694, symBinAddr: 0x1B9CC, symSize: 0x2C }
  - { offsetInCU: 0xB11F, offset: 0x7CD46, size: 0x8, addend: 0x0, symName: '__ZN70_$LT$pyo3..pycell..PyRef$LT$T$GT$$u20$as$u20$core..ops..drop..Drop$GT$4drop17hafefed4e4f507ab0E', symObjAddr: 0x56C0, symBinAddr: 0x1B9F8, symSize: 0x2C }
  - { offsetInCU: 0xB152, offset: 0x7CD79, size: 0x8, addend: 0x0, symName: '__ZN70_$LT$pyo3..pycell..PyRef$LT$T$GT$$u20$as$u20$core..ops..drop..Drop$GT$4drop17hb0b6958d79a9a2a6E', symObjAddr: 0x56EC, symBinAddr: 0x1BA24, symSize: 0x2C }
  - { offsetInCU: 0xB185, offset: 0x7CDAC, size: 0x8, addend: 0x0, symName: '__ZN70_$LT$pyo3..pycell..PyRef$LT$T$GT$$u20$as$u20$core..ops..drop..Drop$GT$4drop17hd5a962756ce2539bE', symObjAddr: 0x5718, symBinAddr: 0x1BA50, symSize: 0x2C }
  - { offsetInCU: 0xB1B8, offset: 0x7CDDF, size: 0x8, addend: 0x0, symName: '__ZN70_$LT$pyo3..pycell..PyRef$LT$T$GT$$u20$as$u20$core..ops..drop..Drop$GT$4drop17hd8f778768423ff90E', symObjAddr: 0x5744, symBinAddr: 0x1BA7C, symSize: 0x2C }
  - { offsetInCU: 0xB1EB, offset: 0x7CE12, size: 0x8, addend: 0x0, symName: '__ZN70_$LT$pyo3..pycell..PyRef$LT$T$GT$$u20$as$u20$core..ops..drop..Drop$GT$4drop17hde1915121acf25abE', symObjAddr: 0x5770, symBinAddr: 0x1BAA8, symSize: 0x2C }
  - { offsetInCU: 0xB21E, offset: 0x7CE45, size: 0x8, addend: 0x0, symName: '__ZN70_$LT$pyo3..pycell..PyRef$LT$T$GT$$u20$as$u20$core..ops..drop..Drop$GT$4drop17hfdba9375afc35760E', symObjAddr: 0x579C, symBinAddr: 0x1BAD4, symSize: 0x2C }
  - { offsetInCU: 0xB257, offset: 0x7CE7E, size: 0x8, addend: 0x0, symName: '__ZN73_$LT$pyo3..pycell..PyRefMut$LT$T$GT$$u20$as$u20$core..ops..drop..Drop$GT$4drop17h38338d623dd977c6E', symObjAddr: 0x7848, symBinAddr: 0x1DB80, symSize: 0x2C }
  - { offsetInCU: 0xB28A, offset: 0x7CEB1, size: 0x8, addend: 0x0, symName: '__ZN73_$LT$pyo3..pycell..PyRefMut$LT$T$GT$$u20$as$u20$core..ops..drop..Drop$GT$4drop17h4f973986b59145b9E', symObjAddr: 0x7874, symBinAddr: 0x1DBAC, symSize: 0x2C }
  - { offsetInCU: 0xB2BD, offset: 0x7CEE4, size: 0x8, addend: 0x0, symName: '__ZN73_$LT$pyo3..pycell..PyRefMut$LT$T$GT$$u20$as$u20$core..ops..drop..Drop$GT$4drop17h6e4a993943a2bef8E', symObjAddr: 0x78A0, symBinAddr: 0x1DBD8, symSize: 0x2C }
  - { offsetInCU: 0xB2F0, offset: 0x7CF17, size: 0x8, addend: 0x0, symName: '__ZN73_$LT$pyo3..pycell..PyRefMut$LT$T$GT$$u20$as$u20$core..ops..drop..Drop$GT$4drop17h80e7dafdab824daeE', symObjAddr: 0x78CC, symBinAddr: 0x1DC04, symSize: 0x2C }
  - { offsetInCU: 0xB323, offset: 0x7CF4A, size: 0x8, addend: 0x0, symName: '__ZN73_$LT$pyo3..pycell..PyRefMut$LT$T$GT$$u20$as$u20$core..ops..drop..Drop$GT$4drop17hcf4e5eaf4bd58cf2E', symObjAddr: 0x78F8, symBinAddr: 0x1DC30, symSize: 0x2C }
  - { offsetInCU: 0xB356, offset: 0x7CF7D, size: 0x8, addend: 0x0, symName: '__ZN73_$LT$pyo3..pycell..PyRefMut$LT$T$GT$$u20$as$u20$core..ops..drop..Drop$GT$4drop17hd9770b7d8f852b2cE', symObjAddr: 0x7924, symBinAddr: 0x1DC5C, symSize: 0x2C }
  - { offsetInCU: 0xCF51, offset: 0x7EB78, size: 0x8, addend: 0x0, symName: '__ZN77_$LT$alloc..raw_vec..RawVec$LT$T$C$A$GT$$u20$as$u20$core..ops..drop..Drop$GT$4drop17h09fafb4656171181E', symObjAddr: 0x7950, symBinAddr: 0x1DC88, symSize: 0x34 }
  - { offsetInCU: 0xCF8D, offset: 0x7EBB4, size: 0x8, addend: 0x0, symName: '__ZN77_$LT$alloc..raw_vec..RawVec$LT$T$C$A$GT$$u20$as$u20$core..ops..drop..Drop$GT$4drop17h57487c62e7958390E', symObjAddr: 0x7984, symBinAddr: 0x1DCBC, symSize: 0x34 }
  - { offsetInCU: 0xCFC9, offset: 0x7EBF0, size: 0x8, addend: 0x0, symName: '__ZN77_$LT$alloc..raw_vec..RawVec$LT$T$C$A$GT$$u20$as$u20$core..ops..drop..Drop$GT$4drop17h92b73bc9a3f8fa5dE', symObjAddr: 0x79B8, symBinAddr: 0x1DCF0, symSize: 0x34 }
  - { offsetInCU: 0xD005, offset: 0x7EC2C, size: 0x8, addend: 0x0, symName: '__ZN77_$LT$alloc..raw_vec..RawVec$LT$T$C$A$GT$$u20$as$u20$core..ops..drop..Drop$GT$4drop17hadd8c1fe03906d8dE', symObjAddr: 0x79EC, symBinAddr: 0x1DD24, symSize: 0x34 }
  - { offsetInCU: 0xD15F, offset: 0x7ED86, size: 0x8, addend: 0x0, symName: '__ZN111_$LT$alloc..vec..in_place_drop..InPlaceDstDataSrcBufDrop$LT$Src$C$Dest$GT$$u20$as$u20$core..ops..drop..Drop$GT$4drop17hd1d00609779a24c2E', symObjAddr: 0x0, symBinAddr: 0x16608, symSize: 0xB4 }
  - { offsetInCU: 0xD2E1, offset: 0x7EF08, size: 0x8, addend: 0x0, symName: '__ZN89_$LT$alloc..vec..in_place_drop..InPlaceDrop$LT$T$GT$$u20$as$u20$core..ops..drop..Drop$GT$4drop17h5d3fdbd8760a8da3E', symObjAddr: 0x7C00, symBinAddr: 0x1DF38, symSize: 0x40 }
  - { offsetInCU: 0xD39D, offset: 0x7EFC4, size: 0x8, addend: 0x0, symName: '__ZN157_$LT$$LT$alloc..vec..into_iter..IntoIter$LT$T$C$A$GT$$u20$as$u20$core..ops..drop..Drop$GT$..drop..DropGuard$LT$T$C$A$GT$$u20$as$u20$core..ops..drop..Drop$GT$4drop17h071cd8c558690af6E', symObjAddr: 0xB4, symBinAddr: 0x166BC, symSize: 0x6C }
  - { offsetInCU: 0xD4E0, offset: 0x7F107, size: 0x8, addend: 0x0, symName: '__ZN157_$LT$$LT$alloc..vec..into_iter..IntoIter$LT$T$C$A$GT$$u20$as$u20$core..ops..drop..Drop$GT$..drop..DropGuard$LT$T$C$A$GT$$u20$as$u20$core..ops..drop..Drop$GT$4drop17h42ad21786af2cacfE', symObjAddr: 0x120, symBinAddr: 0x16728, symSize: 0x6C }
  - { offsetInCU: 0xD623, offset: 0x7F24A, size: 0x8, addend: 0x0, symName: '__ZN157_$LT$$LT$alloc..vec..into_iter..IntoIter$LT$T$C$A$GT$$u20$as$u20$core..ops..drop..Drop$GT$..drop..DropGuard$LT$T$C$A$GT$$u20$as$u20$core..ops..drop..Drop$GT$4drop17h42b29d2391f26b57E', symObjAddr: 0x18C, symBinAddr: 0x16794, symSize: 0x6C }
  - { offsetInCU: 0xD766, offset: 0x7F38D, size: 0x8, addend: 0x0, symName: '__ZN157_$LT$$LT$alloc..vec..into_iter..IntoIter$LT$T$C$A$GT$$u20$as$u20$core..ops..drop..Drop$GT$..drop..DropGuard$LT$T$C$A$GT$$u20$as$u20$core..ops..drop..Drop$GT$4drop17hc7c506c1cdf9527eE', symObjAddr: 0x1F8, symBinAddr: 0x16800, symSize: 0x6C }
  - { offsetInCU: 0xD947, offset: 0x7F56E, size: 0x8, addend: 0x0, symName: '__ZN86_$LT$alloc..vec..into_iter..IntoIter$LT$T$C$A$GT$$u20$as$u20$core..ops..drop..Drop$GT$4drop17h40ae10eb05a2d3eaE', symObjAddr: 0x7A34, symBinAddr: 0x1DD6C, symSize: 0x64 }
  - { offsetInCU: 0xD999, offset: 0x7F5C0, size: 0x8, addend: 0x0, symName: '__ZN86_$LT$alloc..vec..into_iter..IntoIter$LT$T$C$A$GT$$u20$as$u20$core..ops..drop..Drop$GT$4drop17h7e2eff3cbbbe8548E', symObjAddr: 0x7A98, symBinAddr: 0x1DDD0, symSize: 0x78 }
  - { offsetInCU: 0xD9EB, offset: 0x7F612, size: 0x8, addend: 0x0, symName: '__ZN86_$LT$alloc..vec..into_iter..IntoIter$LT$T$C$A$GT$$u20$as$u20$core..ops..drop..Drop$GT$4drop17hb727538f23daa867E', symObjAddr: 0x7B10, symBinAddr: 0x1DE48, symSize: 0x78 }
  - { offsetInCU: 0xDA3D, offset: 0x7F664, size: 0x8, addend: 0x0, symName: '__ZN86_$LT$alloc..vec..into_iter..IntoIter$LT$T$C$A$GT$$u20$as$u20$core..ops..drop..Drop$GT$4drop17hd613c832ecddd086E', symObjAddr: 0x7B88, symBinAddr: 0x1DEC0, symSize: 0x78 }
  - { offsetInCU: 0xDCB0, offset: 0x7F8D7, size: 0x8, addend: 0x0, symName: '__ZN70_$LT$alloc..vec..Vec$LT$T$C$A$GT$$u20$as$u20$core..ops..drop..Drop$GT$4drop17h8a5c20bdfe2ff4b5E', symObjAddr: 0x53F8, symBinAddr: 0x1B730, symSize: 0x24 }
  - { offsetInCU: 0xDD60, offset: 0x7F987, size: 0x8, addend: 0x0, symName: '__ZN70_$LT$alloc..vec..Vec$LT$T$C$A$GT$$u20$as$u20$core..ops..drop..Drop$GT$4drop17h987e3014c1131117E', symObjAddr: 0x541C, symBinAddr: 0x1B754, symSize: 0x24 }
  - { offsetInCU: 0xDE10, offset: 0x7FA37, size: 0x8, addend: 0x0, symName: '__ZN70_$LT$alloc..vec..Vec$LT$T$C$A$GT$$u20$as$u20$core..ops..drop..Drop$GT$4drop17hc3f841af366420acE', symObjAddr: 0x5440, symBinAddr: 0x1B778, symSize: 0x38 }
  - { offsetInCU: 0xDEC0, offset: 0x7FAE7, size: 0x8, addend: 0x0, symName: '__ZN70_$LT$alloc..vec..Vec$LT$T$C$A$GT$$u20$as$u20$core..ops..drop..Drop$GT$4drop17hed2b74b64390f6ebE', symObjAddr: 0x5478, symBinAddr: 0x1B7B0, symSize: 0x38 }
  - { offsetInCU: 0x1E, offset: 0x82CDA, size: 0x8, addend: 0x0, symName: '__ZN4pyo35impl_4wrap30IntoPyObjectConverter$LT$T$GT$4wrap17h25644943056e7d5aE', symObjAddr: 0x0, symBinAddr: 0x1DF78, symSize: 0x14 }
  - { offsetInCU: 0x3B9C, offset: 0x86858, size: 0x8, addend: 0x0, symName: '__ZN4pyo35impl_4wrap62IntoPyObjectConverter$LT$core..result..Result$LT$T$C$E$GT$$GT$12map_into_ptr28_$u7b$$u7b$closure$u7d$$u7d$17h16df65438c3c2a51E', symObjAddr: 0x684, symBinAddr: 0x1E5FC, symSize: 0x40 }
  - { offsetInCU: 0x3BF4, offset: 0x868B0, size: 0x8, addend: 0x0, symName: '__ZN4pyo35impl_4wrap62IntoPyObjectConverter$LT$core..result..Result$LT$T$C$E$GT$$GT$12map_into_ptr28_$u7b$$u7b$closure$u7d$$u7d$17h1dcee5ec8da3af89E', symObjAddr: 0x6C4, symBinAddr: 0x1E63C, symSize: 0x34 }
  - { offsetInCU: 0x3C4C, offset: 0x86908, size: 0x8, addend: 0x0, symName: '__ZN4pyo35impl_4wrap62IntoPyObjectConverter$LT$core..result..Result$LT$T$C$E$GT$$GT$12map_into_ptr28_$u7b$$u7b$closure$u7d$$u7d$17h29a55b712fcb479cE', symObjAddr: 0x6F8, symBinAddr: 0x1E670, symSize: 0x24 }
  - { offsetInCU: 0x3CA3, offset: 0x8695F, size: 0x8, addend: 0x0, symName: '__ZN4pyo35impl_4wrap62IntoPyObjectConverter$LT$core..result..Result$LT$T$C$E$GT$$GT$12map_into_ptr28_$u7b$$u7b$closure$u7d$$u7d$17h4dd5af278e62cb10E', symObjAddr: 0x71C, symBinAddr: 0x1E694, symSize: 0x2C }
  - { offsetInCU: 0x3CFA, offset: 0x869B6, size: 0x8, addend: 0x0, symName: '__ZN4pyo35impl_4wrap62IntoPyObjectConverter$LT$core..result..Result$LT$T$C$E$GT$$GT$12map_into_ptr28_$u7b$$u7b$closure$u7d$$u7d$17h502a7e9ba2f84aeeE', symObjAddr: 0x748, symBinAddr: 0x1E6C0, symSize: 0x48 }
  - { offsetInCU: 0x3D52, offset: 0x86A0E, size: 0x8, addend: 0x0, symName: '__ZN4pyo35impl_4wrap62IntoPyObjectConverter$LT$core..result..Result$LT$T$C$E$GT$$GT$12map_into_ptr28_$u7b$$u7b$closure$u7d$$u7d$17h775d4bee305431a1E', symObjAddr: 0x790, symBinAddr: 0x1E708, symSize: 0x40 }
  - { offsetInCU: 0x3DAA, offset: 0x86A66, size: 0x8, addend: 0x0, symName: '__ZN4pyo35impl_4wrap62IntoPyObjectConverter$LT$core..result..Result$LT$T$C$E$GT$$GT$12map_into_ptr28_$u7b$$u7b$closure$u7d$$u7d$17h8b8ffdc8da12cbb5E', symObjAddr: 0x7D0, symBinAddr: 0x1E748, symSize: 0x40 }
  - { offsetInCU: 0x3E02, offset: 0x86ABE, size: 0x8, addend: 0x0, symName: '__ZN4pyo35impl_4wrap62IntoPyObjectConverter$LT$core..result..Result$LT$T$C$E$GT$$GT$12map_into_ptr28_$u7b$$u7b$closure$u7d$$u7d$17h8df2e713e484a983E', symObjAddr: 0x810, symBinAddr: 0x1E788, symSize: 0x40 }
  - { offsetInCU: 0x3E5A, offset: 0x86B16, size: 0x8, addend: 0x0, symName: '__ZN4pyo35impl_4wrap62IntoPyObjectConverter$LT$core..result..Result$LT$T$C$E$GT$$GT$12map_into_ptr28_$u7b$$u7b$closure$u7d$$u7d$17ha91bb23f4ca80c4fE', symObjAddr: 0x850, symBinAddr: 0x1E7C8, symSize: 0x40 }
  - { offsetInCU: 0x3EB2, offset: 0x86B6E, size: 0x8, addend: 0x0, symName: '__ZN4pyo35impl_4wrap62IntoPyObjectConverter$LT$core..result..Result$LT$T$C$E$GT$$GT$12map_into_ptr28_$u7b$$u7b$closure$u7d$$u7d$17hac98b0dd1961f37cE', symObjAddr: 0x890, symBinAddr: 0x1E808, symSize: 0x30 }
  - { offsetInCU: 0x3F09, offset: 0x86BC5, size: 0x8, addend: 0x0, symName: '__ZN4pyo35impl_4wrap62IntoPyObjectConverter$LT$core..result..Result$LT$T$C$E$GT$$GT$12map_into_ptr28_$u7b$$u7b$closure$u7d$$u7d$17hb69d597e3f68a991E', symObjAddr: 0x8C0, symBinAddr: 0x1E838, symSize: 0x3C }
  - { offsetInCU: 0x3F60, offset: 0x86C1C, size: 0x8, addend: 0x0, symName: '__ZN4pyo35impl_4wrap62IntoPyObjectConverter$LT$core..result..Result$LT$T$C$E$GT$$GT$12map_into_ptr28_$u7b$$u7b$closure$u7d$$u7d$17hba6e5f0b4a6c3535E', symObjAddr: 0x8FC, symBinAddr: 0x1E874, symSize: 0x40 }
  - { offsetInCU: 0x3FB8, offset: 0x86C74, size: 0x8, addend: 0x0, symName: '__ZN4pyo35impl_4wrap62IntoPyObjectConverter$LT$core..result..Result$LT$T$C$E$GT$$GT$12map_into_ptr28_$u7b$$u7b$closure$u7d$$u7d$17hd684616132c89d12E', symObjAddr: 0x93C, symBinAddr: 0x1E8B4, symSize: 0x40 }
  - { offsetInCU: 0x4010, offset: 0x86CCC, size: 0x8, addend: 0x0, symName: '__ZN4pyo35impl_4wrap62IntoPyObjectConverter$LT$core..result..Result$LT$T$C$E$GT$$GT$12map_into_ptr28_$u7b$$u7b$closure$u7d$$u7d$17hec6b5f40d518edfdE', symObjAddr: 0x97C, symBinAddr: 0x1E8F4, symSize: 0x34 }
  - { offsetInCU: 0x4068, offset: 0x86D24, size: 0x8, addend: 0x0, symName: '__ZN4pyo35impl_4wrap62IntoPyObjectConverter$LT$core..result..Result$LT$T$C$E$GT$$GT$12map_into_ptr28_$u7b$$u7b$closure$u7d$$u7d$17hf97e0ec6f2124e79E', symObjAddr: 0x9B0, symBinAddr: 0x1E928, symSize: 0x40 }
  - { offsetInCU: 0x41E9, offset: 0x86EA5, size: 0x8, addend: 0x0, symName: '__ZN4pyo35impl_4wrap82EmptyTupleConverter$LT$core..result..Result$LT$$LP$$RP$$C$pyo3..err..PyErr$GT$$GT$12map_into_ptr28_$u7b$$u7b$closure$u7d$$u7d$17h5edd4259b3496da4E', symObjAddr: 0xB90, symBinAddr: 0x1EB08, symSize: 0x28 }
  - { offsetInCU: 0x423F, offset: 0x86EFB, size: 0x8, addend: 0x0, symName: __ZN4pyo35impl_4wrap9converter17h00089a498f3d8e94E, symObjAddr: 0xBB8, symBinAddr: 0x1EB30, symSize: 0x10 }
  - { offsetInCU: 0x426C, offset: 0x86F28, size: 0x8, addend: 0x0, symName: __ZN4pyo35impl_4wrap9converter17h06ec7f324b9203e6E, symObjAddr: 0xBC8, symBinAddr: 0x1EB40, symSize: 0x10 }
  - { offsetInCU: 0x4299, offset: 0x86F55, size: 0x8, addend: 0x0, symName: __ZN4pyo35impl_4wrap9converter17h1d1596fc57f55c48E, symObjAddr: 0xBD8, symBinAddr: 0x1EB50, symSize: 0x10 }
  - { offsetInCU: 0x42C6, offset: 0x86F82, size: 0x8, addend: 0x0, symName: __ZN4pyo35impl_4wrap9converter17h278ea18847ba49f9E, symObjAddr: 0xBE8, symBinAddr: 0x1EB60, symSize: 0x10 }
  - { offsetInCU: 0x42F3, offset: 0x86FAF, size: 0x8, addend: 0x0, symName: __ZN4pyo35impl_4wrap9converter17h38d6a24c462ddad1E, symObjAddr: 0xBF8, symBinAddr: 0x1EB70, symSize: 0x10 }
  - { offsetInCU: 0x4320, offset: 0x86FDC, size: 0x8, addend: 0x0, symName: __ZN4pyo35impl_4wrap9converter17h45266b2c083f3f26E, symObjAddr: 0xC08, symBinAddr: 0x1EB80, symSize: 0x10 }
  - { offsetInCU: 0x434D, offset: 0x87009, size: 0x8, addend: 0x0, symName: __ZN4pyo35impl_4wrap9converter17h486eab77aca3b276E, symObjAddr: 0xC18, symBinAddr: 0x1EB90, symSize: 0x10 }
  - { offsetInCU: 0x437A, offset: 0x87036, size: 0x8, addend: 0x0, symName: __ZN4pyo35impl_4wrap9converter17h5561f626ca4e5d4dE, symObjAddr: 0xC28, symBinAddr: 0x1EBA0, symSize: 0x10 }
  - { offsetInCU: 0x43A7, offset: 0x87063, size: 0x8, addend: 0x0, symName: __ZN4pyo35impl_4wrap9converter17h5b8ff088515d8a72E, symObjAddr: 0xC38, symBinAddr: 0x1EBB0, symSize: 0x10 }
  - { offsetInCU: 0x43D4, offset: 0x87090, size: 0x8, addend: 0x0, symName: __ZN4pyo35impl_4wrap9converter17h5ddc2792b9e55a60E, symObjAddr: 0xC48, symBinAddr: 0x1EBC0, symSize: 0x10 }
  - { offsetInCU: 0x4401, offset: 0x870BD, size: 0x8, addend: 0x0, symName: __ZN4pyo35impl_4wrap9converter17h5e1a907eaaa37bccE, symObjAddr: 0xC58, symBinAddr: 0x1EBD0, symSize: 0x10 }
  - { offsetInCU: 0x442E, offset: 0x870EA, size: 0x8, addend: 0x0, symName: __ZN4pyo35impl_4wrap9converter17h5e617f7398c63869E, symObjAddr: 0xC68, symBinAddr: 0x1EBE0, symSize: 0x10 }
  - { offsetInCU: 0x445B, offset: 0x87117, size: 0x8, addend: 0x0, symName: __ZN4pyo35impl_4wrap9converter17h723e89a832d367baE, symObjAddr: 0xC78, symBinAddr: 0x1EBF0, symSize: 0x10 }
  - { offsetInCU: 0x4488, offset: 0x87144, size: 0x8, addend: 0x0, symName: __ZN4pyo35impl_4wrap9converter17h7a094fdb42ca9c78E, symObjAddr: 0xC88, symBinAddr: 0x1EC00, symSize: 0x10 }
  - { offsetInCU: 0x44B5, offset: 0x87171, size: 0x8, addend: 0x0, symName: __ZN4pyo35impl_4wrap9converter17h9175509eb12cc473E, symObjAddr: 0xC98, symBinAddr: 0x1EC10, symSize: 0x10 }
  - { offsetInCU: 0x44E2, offset: 0x8719E, size: 0x8, addend: 0x0, symName: __ZN4pyo35impl_4wrap9converter17h946ac1d83a498850E, symObjAddr: 0xCA8, symBinAddr: 0x1EC20, symSize: 0x10 }
  - { offsetInCU: 0x450F, offset: 0x871CB, size: 0x8, addend: 0x0, symName: __ZN4pyo35impl_4wrap9converter17h9516474e36a5b643E, symObjAddr: 0xCB8, symBinAddr: 0x1EC30, symSize: 0x10 }
  - { offsetInCU: 0x453C, offset: 0x871F8, size: 0x8, addend: 0x0, symName: __ZN4pyo35impl_4wrap9converter17hab8c4bd472edd4f4E, symObjAddr: 0xCC8, symBinAddr: 0x1EC40, symSize: 0x10 }
  - { offsetInCU: 0x4569, offset: 0x87225, size: 0x8, addend: 0x0, symName: __ZN4pyo35impl_4wrap9converter17hbde4e1a4b852049dE, symObjAddr: 0xCD8, symBinAddr: 0x1EC50, symSize: 0x10 }
  - { offsetInCU: 0x4596, offset: 0x87252, size: 0x8, addend: 0x0, symName: __ZN4pyo35impl_4wrap9converter17hc464ef72bb7b690cE, symObjAddr: 0xCE8, symBinAddr: 0x1EC60, symSize: 0x10 }
  - { offsetInCU: 0x45C3, offset: 0x8727F, size: 0x8, addend: 0x0, symName: __ZN4pyo35impl_4wrap9converter17hd179771c6fa517f4E, symObjAddr: 0xCF8, symBinAddr: 0x1EC70, symSize: 0x10 }
  - { offsetInCU: 0x45F0, offset: 0x872AC, size: 0x8, addend: 0x0, symName: __ZN4pyo35impl_4wrap9converter17hd72a743c568069b2E, symObjAddr: 0xD08, symBinAddr: 0x1EC80, symSize: 0x10 }
  - { offsetInCU: 0x461D, offset: 0x872D9, size: 0x8, addend: 0x0, symName: __ZN4pyo35impl_4wrap9converter17hed42b05ae52e2895E, symObjAddr: 0xD18, symBinAddr: 0x1EC90, symSize: 0x10 }
  - { offsetInCU: 0x464A, offset: 0x87306, size: 0x8, addend: 0x0, symName: __ZN4pyo35impl_4wrap9converter17hf2d7e55773582575E, symObjAddr: 0xD28, symBinAddr: 0x1ECA0, symSize: 0x10 }
  - { offsetInCU: 0x4677, offset: 0x87333, size: 0x8, addend: 0x0, symName: __ZN4pyo35impl_4wrap9converter17hf329d1704fe2f5eaE, symObjAddr: 0xD38, symBinAddr: 0x1ECB0, symSize: 0x10 }
  - { offsetInCU: 0x46A4, offset: 0x87360, size: 0x8, addend: 0x0, symName: __ZN4pyo35impl_4wrap9converter17hffa282c1fc24a7c0E, symObjAddr: 0xD48, symBinAddr: 0x1ECC0, symSize: 0x10 }
  - { offsetInCU: 0x46D6, offset: 0x87392, size: 0x8, addend: 0x0, symName: '__ZN81_$LT$pyo3..impl_..wrap..Converter$LT$T$GT$$u20$as$u20$core..ops..deref..Deref$GT$5deref17h0f5125bde633821aE', symObjAddr: 0xD58, symBinAddr: 0x1ECD0, symSize: 0x14 }
  - { offsetInCU: 0x470B, offset: 0x873C7, size: 0x8, addend: 0x0, symName: '__ZN81_$LT$pyo3..impl_..wrap..Converter$LT$T$GT$$u20$as$u20$core..ops..deref..Deref$GT$5deref17h139f2999262f18d7E', symObjAddr: 0xD6C, symBinAddr: 0x1ECE4, symSize: 0x14 }
  - { offsetInCU: 0x4740, offset: 0x873FC, size: 0x8, addend: 0x0, symName: '__ZN81_$LT$pyo3..impl_..wrap..Converter$LT$T$GT$$u20$as$u20$core..ops..deref..Deref$GT$5deref17h175a99a8c7c22ed1E', symObjAddr: 0xD80, symBinAddr: 0x1ECF8, symSize: 0x14 }
  - { offsetInCU: 0x4775, offset: 0x87431, size: 0x8, addend: 0x0, symName: '__ZN81_$LT$pyo3..impl_..wrap..Converter$LT$T$GT$$u20$as$u20$core..ops..deref..Deref$GT$5deref17h1c11a6d1e4d34ffdE', symObjAddr: 0xD94, symBinAddr: 0x1ED0C, symSize: 0x14 }
  - { offsetInCU: 0x47AA, offset: 0x87466, size: 0x8, addend: 0x0, symName: '__ZN81_$LT$pyo3..impl_..wrap..Converter$LT$T$GT$$u20$as$u20$core..ops..deref..Deref$GT$5deref17h1ed027a08a2795edE', symObjAddr: 0xDA8, symBinAddr: 0x1ED20, symSize: 0x14 }
  - { offsetInCU: 0x47DF, offset: 0x8749B, size: 0x8, addend: 0x0, symName: '__ZN81_$LT$pyo3..impl_..wrap..Converter$LT$T$GT$$u20$as$u20$core..ops..deref..Deref$GT$5deref17h2b8924c11183261bE', symObjAddr: 0xDBC, symBinAddr: 0x1ED34, symSize: 0x14 }
  - { offsetInCU: 0x4814, offset: 0x874D0, size: 0x8, addend: 0x0, symName: '__ZN81_$LT$pyo3..impl_..wrap..Converter$LT$T$GT$$u20$as$u20$core..ops..deref..Deref$GT$5deref17h4002ee26521de3f9E', symObjAddr: 0xDD0, symBinAddr: 0x1ED48, symSize: 0x14 }
  - { offsetInCU: 0x4849, offset: 0x87505, size: 0x8, addend: 0x0, symName: '__ZN81_$LT$pyo3..impl_..wrap..Converter$LT$T$GT$$u20$as$u20$core..ops..deref..Deref$GT$5deref17h431d471fd1d6db41E', symObjAddr: 0xDE4, symBinAddr: 0x1ED5C, symSize: 0x14 }
  - { offsetInCU: 0x487E, offset: 0x8753A, size: 0x8, addend: 0x0, symName: '__ZN81_$LT$pyo3..impl_..wrap..Converter$LT$T$GT$$u20$as$u20$core..ops..deref..Deref$GT$5deref17h4745fb2125c152cdE', symObjAddr: 0xDF8, symBinAddr: 0x1ED70, symSize: 0x14 }
  - { offsetInCU: 0x48B3, offset: 0x8756F, size: 0x8, addend: 0x0, symName: '__ZN81_$LT$pyo3..impl_..wrap..Converter$LT$T$GT$$u20$as$u20$core..ops..deref..Deref$GT$5deref17h54d7ed65a5609b47E', symObjAddr: 0xE0C, symBinAddr: 0x1ED84, symSize: 0x14 }
  - { offsetInCU: 0x48E8, offset: 0x875A4, size: 0x8, addend: 0x0, symName: '__ZN81_$LT$pyo3..impl_..wrap..Converter$LT$T$GT$$u20$as$u20$core..ops..deref..Deref$GT$5deref17h5a9fee994a9ce317E', symObjAddr: 0xE20, symBinAddr: 0x1ED98, symSize: 0x14 }
  - { offsetInCU: 0x491D, offset: 0x875D9, size: 0x8, addend: 0x0, symName: '__ZN81_$LT$pyo3..impl_..wrap..Converter$LT$T$GT$$u20$as$u20$core..ops..deref..Deref$GT$5deref17h5fffb135843222f7E', symObjAddr: 0xE34, symBinAddr: 0x1EDAC, symSize: 0x14 }
  - { offsetInCU: 0x4952, offset: 0x8760E, size: 0x8, addend: 0x0, symName: '__ZN81_$LT$pyo3..impl_..wrap..Converter$LT$T$GT$$u20$as$u20$core..ops..deref..Deref$GT$5deref17h6a358a9aa31156c8E', symObjAddr: 0xE48, symBinAddr: 0x1EDC0, symSize: 0x14 }
  - { offsetInCU: 0x4987, offset: 0x87643, size: 0x8, addend: 0x0, symName: '__ZN81_$LT$pyo3..impl_..wrap..Converter$LT$T$GT$$u20$as$u20$core..ops..deref..Deref$GT$5deref17h75445a1ed266acb3E', symObjAddr: 0xE5C, symBinAddr: 0x1EDD4, symSize: 0x14 }
  - { offsetInCU: 0x49BC, offset: 0x87678, size: 0x8, addend: 0x0, symName: '__ZN81_$LT$pyo3..impl_..wrap..Converter$LT$T$GT$$u20$as$u20$core..ops..deref..Deref$GT$5deref17h7d5ebf9d60b5b32cE', symObjAddr: 0xE70, symBinAddr: 0x1EDE8, symSize: 0x14 }
  - { offsetInCU: 0x49F1, offset: 0x876AD, size: 0x8, addend: 0x0, symName: '__ZN81_$LT$pyo3..impl_..wrap..Converter$LT$T$GT$$u20$as$u20$core..ops..deref..Deref$GT$5deref17h886efe786ca2b5b4E', symObjAddr: 0xE84, symBinAddr: 0x1EDFC, symSize: 0x14 }
  - { offsetInCU: 0x4A26, offset: 0x876E2, size: 0x8, addend: 0x0, symName: '__ZN81_$LT$pyo3..impl_..wrap..Converter$LT$T$GT$$u20$as$u20$core..ops..deref..Deref$GT$5deref17h88d99fe5aabdafe5E', symObjAddr: 0xE98, symBinAddr: 0x1EE10, symSize: 0x14 }
  - { offsetInCU: 0x4A5B, offset: 0x87717, size: 0x8, addend: 0x0, symName: '__ZN81_$LT$pyo3..impl_..wrap..Converter$LT$T$GT$$u20$as$u20$core..ops..deref..Deref$GT$5deref17ha10b9155177444a6E', symObjAddr: 0xEAC, symBinAddr: 0x1EE24, symSize: 0x14 }
  - { offsetInCU: 0x4A90, offset: 0x8774C, size: 0x8, addend: 0x0, symName: '__ZN81_$LT$pyo3..impl_..wrap..Converter$LT$T$GT$$u20$as$u20$core..ops..deref..Deref$GT$5deref17haaffea49fd8b5744E', symObjAddr: 0xEC0, symBinAddr: 0x1EE38, symSize: 0x14 }
  - { offsetInCU: 0x4AC5, offset: 0x87781, size: 0x8, addend: 0x0, symName: '__ZN81_$LT$pyo3..impl_..wrap..Converter$LT$T$GT$$u20$as$u20$core..ops..deref..Deref$GT$5deref17had0e9c76be602b06E', symObjAddr: 0xED4, symBinAddr: 0x1EE4C, symSize: 0x14 }
  - { offsetInCU: 0x4AFA, offset: 0x877B6, size: 0x8, addend: 0x0, symName: '__ZN81_$LT$pyo3..impl_..wrap..Converter$LT$T$GT$$u20$as$u20$core..ops..deref..Deref$GT$5deref17had5c2639dbb24c10E', symObjAddr: 0xEE8, symBinAddr: 0x1EE60, symSize: 0x14 }
  - { offsetInCU: 0x4B2F, offset: 0x877EB, size: 0x8, addend: 0x0, symName: '__ZN81_$LT$pyo3..impl_..wrap..Converter$LT$T$GT$$u20$as$u20$core..ops..deref..Deref$GT$5deref17hce127dd52998415aE', symObjAddr: 0xEFC, symBinAddr: 0x1EE74, symSize: 0x14 }
  - { offsetInCU: 0x4B64, offset: 0x87820, size: 0x8, addend: 0x0, symName: '__ZN81_$LT$pyo3..impl_..wrap..Converter$LT$T$GT$$u20$as$u20$core..ops..deref..Deref$GT$5deref17hd5da9680a8158ebdE', symObjAddr: 0xF10, symBinAddr: 0x1EE88, symSize: 0x14 }
  - { offsetInCU: 0x4B99, offset: 0x87855, size: 0x8, addend: 0x0, symName: '__ZN81_$LT$pyo3..impl_..wrap..Converter$LT$T$GT$$u20$as$u20$core..ops..deref..Deref$GT$5deref17he0f5a23f4c3942d9E', symObjAddr: 0xF24, symBinAddr: 0x1EE9C, symSize: 0x14 }
  - { offsetInCU: 0x4BCE, offset: 0x8788A, size: 0x8, addend: 0x0, symName: '__ZN81_$LT$pyo3..impl_..wrap..Converter$LT$T$GT$$u20$as$u20$core..ops..deref..Deref$GT$5deref17he1ea6ce9f03a6e5dE', symObjAddr: 0xF38, symBinAddr: 0x1EEB0, symSize: 0x14 }
  - { offsetInCU: 0x4C03, offset: 0x878BF, size: 0x8, addend: 0x0, symName: '__ZN81_$LT$pyo3..impl_..wrap..Converter$LT$T$GT$$u20$as$u20$core..ops..deref..Deref$GT$5deref17hec20980502d8e506E', symObjAddr: 0xF4C, symBinAddr: 0x1EEC4, symSize: 0x14 }
  - { offsetInCU: 0x4C3E, offset: 0x878FA, size: 0x8, addend: 0x0, symName: '__ZN91_$LT$pyo3..impl_..wrap..EmptyTupleConverter$LT$T$GT$$u20$as$u20$core..ops..deref..Deref$GT$5deref17h05125da5c754b25fE', symObjAddr: 0xF60, symBinAddr: 0x1EED8, symSize: 0x14 }
  - { offsetInCU: 0x4C73, offset: 0x8792F, size: 0x8, addend: 0x0, symName: '__ZN91_$LT$pyo3..impl_..wrap..EmptyTupleConverter$LT$T$GT$$u20$as$u20$core..ops..deref..Deref$GT$5deref17h053aee544275aeeaE', symObjAddr: 0xF74, symBinAddr: 0x1EEEC, symSize: 0x14 }
  - { offsetInCU: 0x4CA8, offset: 0x87964, size: 0x8, addend: 0x0, symName: '__ZN91_$LT$pyo3..impl_..wrap..EmptyTupleConverter$LT$T$GT$$u20$as$u20$core..ops..deref..Deref$GT$5deref17h259a335e1d9fa181E', symObjAddr: 0xF88, symBinAddr: 0x1EF00, symSize: 0x14 }
  - { offsetInCU: 0x4CDD, offset: 0x87999, size: 0x8, addend: 0x0, symName: '__ZN91_$LT$pyo3..impl_..wrap..EmptyTupleConverter$LT$T$GT$$u20$as$u20$core..ops..deref..Deref$GT$5deref17h2a0e9577ef646f29E', symObjAddr: 0xF9C, symBinAddr: 0x1EF14, symSize: 0x14 }
  - { offsetInCU: 0x4D12, offset: 0x879CE, size: 0x8, addend: 0x0, symName: '__ZN91_$LT$pyo3..impl_..wrap..EmptyTupleConverter$LT$T$GT$$u20$as$u20$core..ops..deref..Deref$GT$5deref17h3f155efb92061e75E', symObjAddr: 0xFB0, symBinAddr: 0x1EF28, symSize: 0x14 }
  - { offsetInCU: 0x4D47, offset: 0x87A03, size: 0x8, addend: 0x0, symName: '__ZN91_$LT$pyo3..impl_..wrap..EmptyTupleConverter$LT$T$GT$$u20$as$u20$core..ops..deref..Deref$GT$5deref17h4e9163dc306cadb0E', symObjAddr: 0xFC4, symBinAddr: 0x1EF3C, symSize: 0x14 }
  - { offsetInCU: 0x4D7C, offset: 0x87A38, size: 0x8, addend: 0x0, symName: '__ZN91_$LT$pyo3..impl_..wrap..EmptyTupleConverter$LT$T$GT$$u20$as$u20$core..ops..deref..Deref$GT$5deref17h540b65eb01892379E', symObjAddr: 0xFD8, symBinAddr: 0x1EF50, symSize: 0x14 }
  - { offsetInCU: 0x4DB1, offset: 0x87A6D, size: 0x8, addend: 0x0, symName: '__ZN91_$LT$pyo3..impl_..wrap..EmptyTupleConverter$LT$T$GT$$u20$as$u20$core..ops..deref..Deref$GT$5deref17h5b9bc789ccb1582aE', symObjAddr: 0xFEC, symBinAddr: 0x1EF64, symSize: 0x14 }
  - { offsetInCU: 0x4DE6, offset: 0x87AA2, size: 0x8, addend: 0x0, symName: '__ZN91_$LT$pyo3..impl_..wrap..EmptyTupleConverter$LT$T$GT$$u20$as$u20$core..ops..deref..Deref$GT$5deref17h5d087ec538aa0f4dE', symObjAddr: 0x1000, symBinAddr: 0x1EF78, symSize: 0x14 }
  - { offsetInCU: 0x4E1B, offset: 0x87AD7, size: 0x8, addend: 0x0, symName: '__ZN91_$LT$pyo3..impl_..wrap..EmptyTupleConverter$LT$T$GT$$u20$as$u20$core..ops..deref..Deref$GT$5deref17h7b377dfdd29edf92E', symObjAddr: 0x1014, symBinAddr: 0x1EF8C, symSize: 0x14 }
  - { offsetInCU: 0x4E50, offset: 0x87B0C, size: 0x8, addend: 0x0, symName: '__ZN91_$LT$pyo3..impl_..wrap..EmptyTupleConverter$LT$T$GT$$u20$as$u20$core..ops..deref..Deref$GT$5deref17h7e9970dc2df99048E', symObjAddr: 0x1028, symBinAddr: 0x1EFA0, symSize: 0x14 }
  - { offsetInCU: 0x4E85, offset: 0x87B41, size: 0x8, addend: 0x0, symName: '__ZN91_$LT$pyo3..impl_..wrap..EmptyTupleConverter$LT$T$GT$$u20$as$u20$core..ops..deref..Deref$GT$5deref17h8676ac02b4ded7b7E', symObjAddr: 0x103C, symBinAddr: 0x1EFB4, symSize: 0x14 }
  - { offsetInCU: 0x4EBA, offset: 0x87B76, size: 0x8, addend: 0x0, symName: '__ZN91_$LT$pyo3..impl_..wrap..EmptyTupleConverter$LT$T$GT$$u20$as$u20$core..ops..deref..Deref$GT$5deref17h8796cb51fb5dd17fE', symObjAddr: 0x1050, symBinAddr: 0x1EFC8, symSize: 0x14 }
  - { offsetInCU: 0x4EEF, offset: 0x87BAB, size: 0x8, addend: 0x0, symName: '__ZN91_$LT$pyo3..impl_..wrap..EmptyTupleConverter$LT$T$GT$$u20$as$u20$core..ops..deref..Deref$GT$5deref17h96c460fb649ff098E', symObjAddr: 0x1064, symBinAddr: 0x1EFDC, symSize: 0x14 }
  - { offsetInCU: 0x4F24, offset: 0x87BE0, size: 0x8, addend: 0x0, symName: '__ZN91_$LT$pyo3..impl_..wrap..EmptyTupleConverter$LT$T$GT$$u20$as$u20$core..ops..deref..Deref$GT$5deref17ha00296c0c208dcbcE', symObjAddr: 0x1078, symBinAddr: 0x1EFF0, symSize: 0x14 }
  - { offsetInCU: 0x4F59, offset: 0x87C15, size: 0x8, addend: 0x0, symName: '__ZN91_$LT$pyo3..impl_..wrap..EmptyTupleConverter$LT$T$GT$$u20$as$u20$core..ops..deref..Deref$GT$5deref17ha69cd71192e3bae8E', symObjAddr: 0x108C, symBinAddr: 0x1F004, symSize: 0x14 }
  - { offsetInCU: 0x4F8E, offset: 0x87C4A, size: 0x8, addend: 0x0, symName: '__ZN91_$LT$pyo3..impl_..wrap..EmptyTupleConverter$LT$T$GT$$u20$as$u20$core..ops..deref..Deref$GT$5deref17hb13bd95c206cbce1E', symObjAddr: 0x10A0, symBinAddr: 0x1F018, symSize: 0x14 }
  - { offsetInCU: 0x4FC3, offset: 0x87C7F, size: 0x8, addend: 0x0, symName: '__ZN91_$LT$pyo3..impl_..wrap..EmptyTupleConverter$LT$T$GT$$u20$as$u20$core..ops..deref..Deref$GT$5deref17hb7c4fc1a57dc03baE', symObjAddr: 0x10B4, symBinAddr: 0x1F02C, symSize: 0x14 }
  - { offsetInCU: 0x4FF8, offset: 0x87CB4, size: 0x8, addend: 0x0, symName: '__ZN91_$LT$pyo3..impl_..wrap..EmptyTupleConverter$LT$T$GT$$u20$as$u20$core..ops..deref..Deref$GT$5deref17hbcf07551ec47a358E', symObjAddr: 0x10C8, symBinAddr: 0x1F040, symSize: 0x14 }
  - { offsetInCU: 0x502D, offset: 0x87CE9, size: 0x8, addend: 0x0, symName: '__ZN91_$LT$pyo3..impl_..wrap..EmptyTupleConverter$LT$T$GT$$u20$as$u20$core..ops..deref..Deref$GT$5deref17hc2e1d12973e08742E', symObjAddr: 0x10DC, symBinAddr: 0x1F054, symSize: 0x14 }
  - { offsetInCU: 0x5062, offset: 0x87D1E, size: 0x8, addend: 0x0, symName: '__ZN91_$LT$pyo3..impl_..wrap..EmptyTupleConverter$LT$T$GT$$u20$as$u20$core..ops..deref..Deref$GT$5deref17hd800aec9e39b0e21E', symObjAddr: 0x10F0, symBinAddr: 0x1F068, symSize: 0x14 }
  - { offsetInCU: 0x5097, offset: 0x87D53, size: 0x8, addend: 0x0, symName: '__ZN91_$LT$pyo3..impl_..wrap..EmptyTupleConverter$LT$T$GT$$u20$as$u20$core..ops..deref..Deref$GT$5deref17hebfa5f74653ee545E', symObjAddr: 0x1104, symBinAddr: 0x1F07C, symSize: 0x14 }
  - { offsetInCU: 0x50CC, offset: 0x87D88, size: 0x8, addend: 0x0, symName: '__ZN91_$LT$pyo3..impl_..wrap..EmptyTupleConverter$LT$T$GT$$u20$as$u20$core..ops..deref..Deref$GT$5deref17hf25122105ee144c1E', symObjAddr: 0x1118, symBinAddr: 0x1F090, symSize: 0x14 }
  - { offsetInCU: 0x5101, offset: 0x87DBD, size: 0x8, addend: 0x0, symName: '__ZN91_$LT$pyo3..impl_..wrap..EmptyTupleConverter$LT$T$GT$$u20$as$u20$core..ops..deref..Deref$GT$5deref17hf33be1607fdb2045E', symObjAddr: 0x112C, symBinAddr: 0x1F0A4, symSize: 0x14 }
  - { offsetInCU: 0x5136, offset: 0x87DF2, size: 0x8, addend: 0x0, symName: '__ZN91_$LT$pyo3..impl_..wrap..EmptyTupleConverter$LT$T$GT$$u20$as$u20$core..ops..deref..Deref$GT$5deref17hf42e005114da427eE', symObjAddr: 0x1140, symBinAddr: 0x1F0B8, symSize: 0x14 }
  - { offsetInCU: 0x5AC3, offset: 0x8877F, size: 0x8, addend: 0x0, symName: '__ZN4pyo35impl_4wrap30IntoPyObjectConverter$LT$T$GT$4wrap17h25644943056e7d5aE', symObjAddr: 0x0, symBinAddr: 0x1DF78, symSize: 0x14 }
  - { offsetInCU: 0x5B10, offset: 0x887CC, size: 0x8, addend: 0x0, symName: '__ZN4pyo35impl_4wrap30IntoPyObjectConverter$LT$T$GT$4wrap17h3877553a5614b77cE', symObjAddr: 0x14, symBinAddr: 0x1DF8C, symSize: 0x10 }
  - { offsetInCU: 0x5D58, offset: 0x88A14, size: 0x8, addend: 0x0, symName: '__ZN4pyo35impl_4wrap30IntoPyObjectConverter$LT$T$GT$4wrap17h5315813b4ccba3a1E', symObjAddr: 0x24, symBinAddr: 0x1DF9C, symSize: 0x24 }
  - { offsetInCU: 0x5DA5, offset: 0x88A61, size: 0x8, addend: 0x0, symName: '__ZN4pyo35impl_4wrap30IntoPyObjectConverter$LT$T$GT$4wrap17h5ab5023065a69680E', symObjAddr: 0x48, symBinAddr: 0x1DFC0, symSize: 0x20 }
  - { offsetInCU: 0x63FE, offset: 0x890BA, size: 0x8, addend: 0x0, symName: '__ZN4pyo35impl_4wrap30IntoPyObjectConverter$LT$T$GT$4wrap17h6045d0cb1f12ae7aE', symObjAddr: 0x68, symBinAddr: 0x1DFE0, symSize: 0x2C }
  - { offsetInCU: 0x6444, offset: 0x89100, size: 0x8, addend: 0x0, symName: '__ZN4pyo35impl_4wrap30IntoPyObjectConverter$LT$T$GT$4wrap17h6a1a1eafba878dd2E', symObjAddr: 0x94, symBinAddr: 0x1E00C, symSize: 0x1C }
  - { offsetInCU: 0x64A8, offset: 0x89164, size: 0x8, addend: 0x0, symName: '__ZN4pyo35impl_4wrap30IntoPyObjectConverter$LT$T$GT$4wrap17h947a35df4c418f51E', symObjAddr: 0xB0, symBinAddr: 0x1E028, symSize: 0x34 }
  - { offsetInCU: 0x65FE, offset: 0x892BA, size: 0x8, addend: 0x0, symName: '__ZN4pyo35impl_4wrap30IntoPyObjectConverter$LT$T$GT$4wrap17ha38543fdf7aa76fcE', symObjAddr: 0xE4, symBinAddr: 0x1E05C, symSize: 0x34 }
  - { offsetInCU: 0x6645, offset: 0x89301, size: 0x8, addend: 0x0, symName: '__ZN4pyo35impl_4wrap30IntoPyObjectConverter$LT$T$GT$4wrap17hbd2f50a81f2ed06cE', symObjAddr: 0x118, symBinAddr: 0x1E090, symSize: 0x34 }
  - { offsetInCU: 0x66C4, offset: 0x89380, size: 0x8, addend: 0x0, symName: '__ZN4pyo35impl_4wrap30IntoPyObjectConverter$LT$T$GT$4wrap17hf04f1679c6d1b417E', symObjAddr: 0x14C, symBinAddr: 0x1E0C4, symSize: 0x34 }
  - { offsetInCU: 0x6903, offset: 0x895BF, size: 0x8, addend: 0x0, symName: '__ZN4pyo35impl_4wrap62IntoPyObjectConverter$LT$core..result..Result$LT$T$C$E$GT$$GT$12map_into_ptr17h0932a42385f4a4ddE', symObjAddr: 0x180, symBinAddr: 0x1E0F8, symSize: 0x54 }
  - { offsetInCU: 0x696E, offset: 0x8962A, size: 0x8, addend: 0x0, symName: '__ZN4pyo35impl_4wrap62IntoPyObjectConverter$LT$core..result..Result$LT$T$C$E$GT$$GT$12map_into_ptr17h23d690a58f824660E', symObjAddr: 0x1D4, symBinAddr: 0x1E14C, symSize: 0x54 }
  - { offsetInCU: 0x69D9, offset: 0x89695, size: 0x8, addend: 0x0, symName: '__ZN4pyo35impl_4wrap62IntoPyObjectConverter$LT$core..result..Result$LT$T$C$E$GT$$GT$12map_into_ptr17h261b2029a8d4eb00E', symObjAddr: 0x228, symBinAddr: 0x1E1A0, symSize: 0x5C }
  - { offsetInCU: 0x6A44, offset: 0x89700, size: 0x8, addend: 0x0, symName: '__ZN4pyo35impl_4wrap62IntoPyObjectConverter$LT$core..result..Result$LT$T$C$E$GT$$GT$12map_into_ptr17h2811dd0747472f1cE', symObjAddr: 0x284, symBinAddr: 0x1E1FC, symSize: 0x54 }
  - { offsetInCU: 0x6AAF, offset: 0x8976B, size: 0x8, addend: 0x0, symName: '__ZN4pyo35impl_4wrap62IntoPyObjectConverter$LT$core..result..Result$LT$T$C$E$GT$$GT$12map_into_ptr17h2b5eecbda77050f8E', symObjAddr: 0x2D8, symBinAddr: 0x1E250, symSize: 0x54 }
  - { offsetInCU: 0x6B1A, offset: 0x897D6, size: 0x8, addend: 0x0, symName: '__ZN4pyo35impl_4wrap62IntoPyObjectConverter$LT$core..result..Result$LT$T$C$E$GT$$GT$12map_into_ptr17h2b7ad3f0aa9652f7E', symObjAddr: 0x32C, symBinAddr: 0x1E2A4, symSize: 0x54 }
  - { offsetInCU: 0x6B85, offset: 0x89841, size: 0x8, addend: 0x0, symName: '__ZN4pyo35impl_4wrap62IntoPyObjectConverter$LT$core..result..Result$LT$T$C$E$GT$$GT$12map_into_ptr17h4cd31364a696c4d6E', symObjAddr: 0x380, symBinAddr: 0x1E2F8, symSize: 0x5C }
  - { offsetInCU: 0x6BF0, offset: 0x898AC, size: 0x8, addend: 0x0, symName: '__ZN4pyo35impl_4wrap62IntoPyObjectConverter$LT$core..result..Result$LT$T$C$E$GT$$GT$12map_into_ptr17h6c234aef1fe5326fE', symObjAddr: 0x3DC, symBinAddr: 0x1E354, symSize: 0x54 }
  - { offsetInCU: 0x6C5B, offset: 0x89917, size: 0x8, addend: 0x0, symName: '__ZN4pyo35impl_4wrap62IntoPyObjectConverter$LT$core..result..Result$LT$T$C$E$GT$$GT$12map_into_ptr17h6dc5c768bd9bb0b2E', symObjAddr: 0x430, symBinAddr: 0x1E3A8, symSize: 0x54 }
  - { offsetInCU: 0x6CE4, offset: 0x899A0, size: 0x8, addend: 0x0, symName: '__ZN4pyo35impl_4wrap62IntoPyObjectConverter$LT$core..result..Result$LT$T$C$E$GT$$GT$12map_into_ptr17h70c88165eac30d4fE', symObjAddr: 0x484, symBinAddr: 0x1E3FC, symSize: 0x54 }
  - { offsetInCU: 0x6D4F, offset: 0x89A0B, size: 0x8, addend: 0x0, symName: '__ZN4pyo35impl_4wrap62IntoPyObjectConverter$LT$core..result..Result$LT$T$C$E$GT$$GT$12map_into_ptr17h77668e7a9183623aE', symObjAddr: 0x4D8, symBinAddr: 0x1E450, symSize: 0x54 }
  - { offsetInCU: 0x6DC1, offset: 0x89A7D, size: 0x8, addend: 0x0, symName: '__ZN4pyo35impl_4wrap62IntoPyObjectConverter$LT$core..result..Result$LT$T$C$E$GT$$GT$12map_into_ptr17ha779b4b7b4701ec6E', symObjAddr: 0x52C, symBinAddr: 0x1E4A4, symSize: 0x54 }
  - { offsetInCU: 0x6E2C, offset: 0x89AE8, size: 0x8, addend: 0x0, symName: '__ZN4pyo35impl_4wrap62IntoPyObjectConverter$LT$core..result..Result$LT$T$C$E$GT$$GT$12map_into_ptr17hbbd31d9b5f2a0b92E', symObjAddr: 0x580, symBinAddr: 0x1E4F8, symSize: 0x5C }
  - { offsetInCU: 0x6E97, offset: 0x89B53, size: 0x8, addend: 0x0, symName: '__ZN4pyo35impl_4wrap62IntoPyObjectConverter$LT$core..result..Result$LT$T$C$E$GT$$GT$12map_into_ptr17hcf2c7eaa03f22db2E', symObjAddr: 0x5DC, symBinAddr: 0x1E554, symSize: 0x54 }
  - { offsetInCU: 0x6F02, offset: 0x89BBE, size: 0x8, addend: 0x0, symName: '__ZN4pyo35impl_4wrap62IntoPyObjectConverter$LT$core..result..Result$LT$T$C$E$GT$$GT$12map_into_ptr17hf6afa10a2c60f367E', symObjAddr: 0x630, symBinAddr: 0x1E5A8, symSize: 0x54 }
  - { offsetInCU: 0x6F60, offset: 0x89C1C, size: 0x8, addend: 0x0, symName: '__ZN4pyo35impl_4wrap62IntoPyObjectConverter$LT$core..result..Result$LT$T$C$E$GT$$GT$4wrap17h049afe2119b2cad6E', symObjAddr: 0x9F0, symBinAddr: 0x1E968, symSize: 0x34 }
  - { offsetInCU: 0x6FA3, offset: 0x89C5F, size: 0x8, addend: 0x0, symName: '__ZN4pyo35impl_4wrap62IntoPyObjectConverter$LT$core..result..Result$LT$T$C$E$GT$$GT$4wrap17h1c8e99daf9e6921aE', symObjAddr: 0xA24, symBinAddr: 0x1E99C, symSize: 0x34 }
  - { offsetInCU: 0x6FE6, offset: 0x89CA2, size: 0x8, addend: 0x0, symName: '__ZN4pyo35impl_4wrap62IntoPyObjectConverter$LT$core..result..Result$LT$T$C$E$GT$$GT$4wrap17h4bf2ad09bea68b2fE', symObjAddr: 0xA58, symBinAddr: 0x1E9D0, symSize: 0x34 }
  - { offsetInCU: 0x7029, offset: 0x89CE5, size: 0x8, addend: 0x0, symName: '__ZN4pyo35impl_4wrap62IntoPyObjectConverter$LT$core..result..Result$LT$T$C$E$GT$$GT$4wrap17h569590f17f77807eE', symObjAddr: 0xA8C, symBinAddr: 0x1EA04, symSize: 0x34 }
  - { offsetInCU: 0x706C, offset: 0x89D28, size: 0x8, addend: 0x0, symName: '__ZN4pyo35impl_4wrap62IntoPyObjectConverter$LT$core..result..Result$LT$T$C$E$GT$$GT$4wrap17h71cca93c06a0883fE', symObjAddr: 0xAC0, symBinAddr: 0x1EA38, symSize: 0x34 }
  - { offsetInCU: 0x70AF, offset: 0x89D6B, size: 0x8, addend: 0x0, symName: '__ZN4pyo35impl_4wrap62IntoPyObjectConverter$LT$core..result..Result$LT$T$C$E$GT$$GT$4wrap17h9096ae141f7a094aE', symObjAddr: 0xAF4, symBinAddr: 0x1EA6C, symSize: 0x34 }
  - { offsetInCU: 0x70F2, offset: 0x89DAE, size: 0x8, addend: 0x0, symName: '__ZN4pyo35impl_4wrap62IntoPyObjectConverter$LT$core..result..Result$LT$T$C$E$GT$$GT$4wrap17hc316baaed2facfdaE', symObjAddr: 0xB28, symBinAddr: 0x1EAA0, symSize: 0x34 }
  - { offsetInCU: 0x7135, offset: 0x89DF1, size: 0x8, addend: 0x0, symName: '__ZN4pyo35impl_4wrap62IntoPyObjectConverter$LT$core..result..Result$LT$T$C$E$GT$$GT$4wrap17he753e7996ad034deE', symObjAddr: 0xB5C, symBinAddr: 0x1EAD4, symSize: 0x34 }
  - { offsetInCU: 0x1E, offset: 0x8A255, size: 0x8, addend: 0x0, symName: '__ZN4core5array4iter10iter_inner78PolymorphicIter$LT$$u5b$core..mem..maybe_uninit..MaybeUninit$LT$T$GT$$u5d$$GT$4next17h139eef5eb68e37ecE', symObjAddr: 0x0, symBinAddr: 0x1F0CC, symSize: 0x17C }
  - { offsetInCU: 0x1555, offset: 0x8B78C, size: 0x8, addend: 0x0, symName: '__ZN4core5array4iter10iter_inner78PolymorphicIter$LT$$u5b$core..mem..maybe_uninit..MaybeUninit$LT$T$GT$$u5d$$GT$8try_fold28_$u7b$$u7b$closure$u7d$$u7d$17h1efe4d2bc3460178E', symObjAddr: 0x17C, symBinAddr: 0x1F248, symSize: 0xA0 }
  - { offsetInCU: 0x1E12, offset: 0x8C049, size: 0x8, addend: 0x0, symName: '__ZN4core5array4iter10iter_inner78PolymorphicIter$LT$$u5b$core..mem..maybe_uninit..MaybeUninit$LT$T$GT$$u5d$$GT$4next17h139eef5eb68e37ecE', symObjAddr: 0x0, symBinAddr: 0x1F0CC, symSize: 0x17C }
  - { offsetInCU: 0x1E, offset: 0x8CBA5, size: 0x8, addend: 0x0, symName: '__ZN103_$LT$pyo3..instance..Bound$LT$pyo3..types..any..PyAny$GT$$u20$as$u20$pyo3..types..any..PyAnyMethods$GT$7is_none17hcce5d17683d06e03E', symObjAddr: 0x0, symBinAddr: 0x1F2E8, symSize: 0x4C }
  - { offsetInCU: 0x1CBE, offset: 0x8E845, size: 0x8, addend: 0x0, symName: '__ZN103_$LT$pyo3..instance..Bound$LT$pyo3..types..any..PyAny$GT$$u20$as$u20$pyo3..types..any..PyAnyMethods$GT$7is_none17hcce5d17683d06e03E', symObjAddr: 0x0, symBinAddr: 0x1F2E8, symSize: 0x4C }
  - { offsetInCU: 0x1D33, offset: 0x8E8BA, size: 0x8, addend: 0x0, symName: '__ZN119_$LT$pyo3..instance..Bound$LT$pyo3..types..typeobject..PyType$GT$$u20$as$u20$pyo3..types..typeobject..PyTypeMethods$GT$11as_type_ptr17hb97bfe59c16e1c44E', symObjAddr: 0x4C, symBinAddr: 0x1F334, symSize: 0x24 }
  - { offsetInCU: 0x1D80, offset: 0x8E907, size: 0x8, addend: 0x0, symName: '__ZN123_$LT$pyo3..instance..Bound$LT$pyo3..types..sequence..PySequence$GT$$u20$as$u20$pyo3..types..sequence..PySequenceMethods$GT$3len17h488d9da1330edf4fE', symObjAddr: 0x70, symBinAddr: 0x1F358, symSize: 0xD4 }
  - { offsetInCU: 0x1E0A, offset: 0x8E991, size: 0x8, addend: 0x0, symName: '__ZN4pyo35types8iterator131_$LT$impl$u20$core..iter..traits..iterator..Iterator$u20$for$u20$pyo3..instance..Bound$LT$pyo3..types..iterator..PyIterator$GT$$GT$4next17hd0eb67548b1beaacE', symObjAddr: 0x170, symBinAddr: 0x1F458, symSize: 0x30 }
  - { offsetInCU: 0x222B, offset: 0x8EDB2, size: 0x8, addend: 0x0, symName: '__ZN129_$LT$pyo3..instance..Bound$LT$numpy..untyped_array..PyUntypedArray$GT$$u20$as$u20$numpy..untyped_array..PyUntypedArrayMethods$GT$12as_array_ptr17hd03b4426078daaa4E', symObjAddr: 0x144, symBinAddr: 0x1F42C, symSize: 0x2C }
  - { offsetInCU: 0x23D9, offset: 0x8EF60, size: 0x8, addend: 0x0, symName: '__ZN4pyo38instance36Bound$LT$pyo3..types..any..PyAny$GT$14from_owned_ptr17hdfdbfc9cd35888bdE', symObjAddr: 0x1A0, symBinAddr: 0x1F488, symSize: 0x2C }
  - { offsetInCU: 0x2421, offset: 0x8EFA8, size: 0x8, addend: 0x0, symName: '__ZN4pyo38instance39Borrowed$LT$pyo3..types..any..PyAny$GT$15from_ptr_or_opt17h14337b3f60a126c6E', symObjAddr: 0x1CC, symBinAddr: 0x1F4B4, symSize: 0x2C }
  - { offsetInCU: 0x245F, offset: 0x8EFE6, size: 0x8, addend: 0x0, symName: '__ZN4pyo38instance39Borrowed$LT$pyo3..types..any..PyAny$GT$8from_ptr17h9b34e34c8baa486cE', symObjAddr: 0x1F8, symBinAddr: 0x1F4E0, symSize: 0x34 }
  - { offsetInCU: 0x1E, offset: 0x8F2A3, size: 0x8, addend: 0x0, symName: '__ZN233_$LT$$LT$_native..py_config..PyProcessConfig$u20$as$u20$pyo3..impl_..pyclass..PyClassImpl$GT$..items_iter..INTRINSIC_ITEMS..Offset$u20$as$u20$pyo3..impl_..pyclass..OffsetCalculator$LT$_native..py_config..PyProcessConfig$C$f64$GT$$GT$6offset17h4ab2b23b1003ead5E', symObjAddr: 0x0, symBinAddr: 0x1F514, symSize: 0x40 }
  - { offsetInCU: 0x4D, offset: 0x8F2D2, size: 0x8, addend: 0x0, symName: '__ZN7_native9py_config184_$LT$impl$u20$pyo3..impl_..pyclass..PyMethods$LT$_native..py_config..PyGridConfig$GT$$u20$for$u20$pyo3..impl_..pyclass..PyClassImplCollector$LT$_native..py_config..PyGridConfig$GT$$GT$10py_methods5ITEMS17h4040201ef2f9cb64E', symObjAddr: 0xA198, symBinAddr: 0x792018, symSize: 0x0 }
  - { offsetInCU: 0x5F, offset: 0x8F2E4, size: 0x8, addend: 0x0, symName: '__ZN7_native9py_config184_$LT$impl$u20$pyo3..impl_..pyclass..PyMethods$LT$_native..py_config..PyGridConfig$GT$$u20$for$u20$pyo3..impl_..pyclass..PyClassImplCollector$LT$_native..py_config..PyGridConfig$GT$$GT$10py_methods5ITEMS10trampoline17h1ea019c67759ba13E', symObjAddr: 0x7884, symBinAddr: 0x26D98, symSize: 0x4C }
  - { offsetInCU: 0xAB, offset: 0x8F330, size: 0x8, addend: 0x0, symName: '__ZN7_native9py_config184_$LT$impl$u20$pyo3..impl_..pyclass..PyMethods$LT$_native..py_config..PyGridConfig$GT$$u20$for$u20$pyo3..impl_..pyclass..PyClassImplCollector$LT$_native..py_config..PyGridConfig$GT$$GT$10py_methods5ITEMS10trampoline17h782c6e18c3170ea3E', symObjAddr: 0x78D0, symBinAddr: 0x26DE4, symSize: 0x44 }
  - { offsetInCU: 0xE8, offset: 0x8F36D, size: 0x8, addend: 0x0, symName: '__ZN7_native9py_config184_$LT$impl$u20$pyo3..impl_..pyclass..PyMethods$LT$_native..py_config..PyGridConfig$GT$$u20$for$u20$pyo3..impl_..pyclass..PyClassImplCollector$LT$_native..py_config..PyGridConfig$GT$$GT$10py_methods5ITEMS10trampoline17hd3ce52cdc995b982E', symObjAddr: 0x7914, symBinAddr: 0x26E28, symSize: 0x3C }
  - { offsetInCU: 0x130, offset: 0x8F3B5, size: 0x8, addend: 0x0, symName: '__ZN7_native9py_config184_$LT$impl$u20$pyo3..impl_..pyclass..PyMethods$LT$_native..py_config..PyMaskConfig$GT$$u20$for$u20$pyo3..impl_..pyclass..PyClassImplCollector$LT$_native..py_config..PyMaskConfig$GT$$GT$10py_methods5ITEMS17h92bcbc5078aab2d8E', symObjAddr: 0xA248, symBinAddr: 0x7920C8, symSize: 0x0 }
  - { offsetInCU: 0x142, offset: 0x8F3C7, size: 0x8, addend: 0x0, symName: '__ZN7_native9py_config184_$LT$impl$u20$pyo3..impl_..pyclass..PyMethods$LT$_native..py_config..PyMaskConfig$GT$$u20$for$u20$pyo3..impl_..pyclass..PyClassImplCollector$LT$_native..py_config..PyMaskConfig$GT$$GT$10py_methods5ITEMS10trampoline17h9f0d681600c0e72cE', symObjAddr: 0x7950, symBinAddr: 0x26E64, symSize: 0x50 }
  - { offsetInCU: 0x198, offset: 0x8F41D, size: 0x8, addend: 0x0, symName: '__ZN7_native9py_config184_$LT$impl$u20$pyo3..impl_..pyclass..PyMethods$LT$_native..py_config..PyMaskConfig$GT$$u20$for$u20$pyo3..impl_..pyclass..PyClassImplCollector$LT$_native..py_config..PyMaskConfig$GT$$GT$10py_methods5ITEMS10trampoline17ha319c0b4d878a422E', symObjAddr: 0x79A0, symBinAddr: 0x26EB4, symSize: 0x50 }
  - { offsetInCU: 0x1EE, offset: 0x8F473, size: 0x8, addend: 0x0, symName: '__ZN7_native9py_config184_$LT$impl$u20$pyo3..impl_..pyclass..PyMethods$LT$_native..py_config..PyMaskConfig$GT$$u20$for$u20$pyo3..impl_..pyclass..PyClassImplCollector$LT$_native..py_config..PyMaskConfig$GT$$GT$10py_methods5ITEMS10trampoline17hb156dd6563a69180E', symObjAddr: 0x79F0, symBinAddr: 0x26F04, symSize: 0x3C }
  - { offsetInCU: 0x234, offset: 0x8F4B9, size: 0x8, addend: 0x0, symName: '__ZN7_native9py_config188_$LT$impl$u20$pyo3..impl_..pyclass..PyMethods$LT$_native..py_config..PyOpticsConfig$GT$$u20$for$u20$pyo3..impl_..pyclass..PyClassImplCollector$LT$_native..py_config..PyOpticsConfig$GT$$GT$10py_methods5ITEMS17hc160827b6fdc8a69E', symObjAddr: 0xA3C8, symBinAddr: 0x792248, symSize: 0x0 }
  - { offsetInCU: 0x246, offset: 0x8F4CB, size: 0x8, addend: 0x0, symName: '__ZN7_native9py_config188_$LT$impl$u20$pyo3..impl_..pyclass..PyMethods$LT$_native..py_config..PyOpticsConfig$GT$$u20$for$u20$pyo3..impl_..pyclass..PyClassImplCollector$LT$_native..py_config..PyOpticsConfig$GT$$GT$10py_methods5ITEMS10trampoline17h3344b176486d6f07E', symObjAddr: 0x7A2C, symBinAddr: 0x26F40, symSize: 0x50 }
  - { offsetInCU: 0x29C, offset: 0x8F521, size: 0x8, addend: 0x0, symName: '__ZN7_native9py_config188_$LT$impl$u20$pyo3..impl_..pyclass..PyMethods$LT$_native..py_config..PyOpticsConfig$GT$$u20$for$u20$pyo3..impl_..pyclass..PyClassImplCollector$LT$_native..py_config..PyOpticsConfig$GT$$GT$10py_methods5ITEMS10trampoline17h4e88eb23bb7f254eE', symObjAddr: 0x7A7C, symBinAddr: 0x26F90, symSize: 0x50 }
  - { offsetInCU: 0x2F2, offset: 0x8F577, size: 0x8, addend: 0x0, symName: '__ZN7_native9py_config188_$LT$impl$u20$pyo3..impl_..pyclass..PyMethods$LT$_native..py_config..PyOpticsConfig$GT$$u20$for$u20$pyo3..impl_..pyclass..PyClassImplCollector$LT$_native..py_config..PyOpticsConfig$GT$$GT$10py_methods5ITEMS10trampoline17h652f93be4cfbeb7eE', symObjAddr: 0x7ACC, symBinAddr: 0x26FE0, symSize: 0x4C }
  - { offsetInCU: 0x33A, offset: 0x8F5BF, size: 0x8, addend: 0x0, symName: '__ZN7_native9py_config188_$LT$impl$u20$pyo3..impl_..pyclass..PyMethods$LT$_native..py_config..PyOpticsConfig$GT$$u20$for$u20$pyo3..impl_..pyclass..PyClassImplCollector$LT$_native..py_config..PyOpticsConfig$GT$$GT$10py_methods5ITEMS10trampoline17hcc320899eb45ada4E', symObjAddr: 0x7B18, symBinAddr: 0x2702C, symSize: 0x3C }
  - { offsetInCU: 0x380, offset: 0x8F605, size: 0x8, addend: 0x0, symName: '__ZN7_native9py_config188_$LT$impl$u20$pyo3..impl_..pyclass..PyMethods$LT$_native..py_config..PyResistConfig$GT$$u20$for$u20$pyo3..impl_..pyclass..PyClassImplCollector$LT$_native..py_config..PyResistConfig$GT$$GT$10py_methods5ITEMS17he421d8da7aefe99dE', symObjAddr: 0xA588, symBinAddr: 0x792408, symSize: 0x0 }
  - { offsetInCU: 0x392, offset: 0x8F617, size: 0x8, addend: 0x0, symName: '__ZN7_native9py_config188_$LT$impl$u20$pyo3..impl_..pyclass..PyMethods$LT$_native..py_config..PyResistConfig$GT$$u20$for$u20$pyo3..impl_..pyclass..PyClassImplCollector$LT$_native..py_config..PyResistConfig$GT$$GT$10py_methods5ITEMS10trampoline17h3f9a278b5f546053E', symObjAddr: 0x7B54, symBinAddr: 0x27068, symSize: 0x3C }
  - { offsetInCU: 0x3BE, offset: 0x8F643, size: 0x8, addend: 0x0, symName: '__ZN7_native9py_config188_$LT$impl$u20$pyo3..impl_..pyclass..PyMethods$LT$_native..py_config..PyResistConfig$GT$$u20$for$u20$pyo3..impl_..pyclass..PyClassImplCollector$LT$_native..py_config..PyResistConfig$GT$$GT$10py_methods5ITEMS10trampoline17hc2eae9be1c0415ccE', symObjAddr: 0x7B90, symBinAddr: 0x270A4, symSize: 0x44 }
  - { offsetInCU: 0x3F8, offset: 0x8F67D, size: 0x8, addend: 0x0, symName: '__ZN7_native9py_config188_$LT$impl$u20$pyo3..impl_..pyclass..PyMethods$LT$_native..py_config..PyResistConfig$GT$$u20$for$u20$pyo3..impl_..pyclass..PyClassImplCollector$LT$_native..py_config..PyResistConfig$GT$$GT$10py_methods5ITEMS10trampoline17hf4e554b5166ec6e2E', symObjAddr: 0x7BD4, symBinAddr: 0x270E8, symSize: 0x4C }
  - { offsetInCU: 0x45A, offset: 0x8F6DF, size: 0x8, addend: 0x0, symName: '__ZN7_native9py_config188_$LT$impl$u20$pyo3..impl_..pyclass..PyMethods$LT$_native..py_config..PySourceConfig$GT$$u20$for$u20$pyo3..impl_..pyclass..PyClassImplCollector$LT$_native..py_config..PySourceConfig$GT$$GT$10py_methods5ITEMS17h3cfa9ec66b1e7c74E', symObjAddr: 0xA748, symBinAddr: 0x7925C8, symSize: 0x0 }
  - { offsetInCU: 0x46C, offset: 0x8F6F1, size: 0x8, addend: 0x0, symName: '__ZN7_native9py_config188_$LT$impl$u20$pyo3..impl_..pyclass..PyMethods$LT$_native..py_config..PySourceConfig$GT$$u20$for$u20$pyo3..impl_..pyclass..PyClassImplCollector$LT$_native..py_config..PySourceConfig$GT$$GT$10py_methods5ITEMS10trampoline17h40582d51fc9b8074E', symObjAddr: 0x7C20, symBinAddr: 0x27134, symSize: 0x3C }
  - { offsetInCU: 0x498, offset: 0x8F71D, size: 0x8, addend: 0x0, symName: '__ZN7_native9py_config188_$LT$impl$u20$pyo3..impl_..pyclass..PyMethods$LT$_native..py_config..PySourceConfig$GT$$u20$for$u20$pyo3..impl_..pyclass..PyClassImplCollector$LT$_native..py_config..PySourceConfig$GT$$GT$10py_methods5ITEMS10trampoline17hd1aa9823ff25b448E', symObjAddr: 0x7C5C, symBinAddr: 0x27170, symSize: 0x50 }
  - { offsetInCU: 0x4EE, offset: 0x8F773, size: 0x8, addend: 0x0, symName: '__ZN7_native9py_config188_$LT$impl$u20$pyo3..impl_..pyclass..PyMethods$LT$_native..py_config..PySourceConfig$GT$$u20$for$u20$pyo3..impl_..pyclass..PyClassImplCollector$LT$_native..py_config..PySourceConfig$GT$$GT$10py_methods5ITEMS10trampoline17hf6834f822fad05a6E', symObjAddr: 0x7CAC, symBinAddr: 0x271C0, symSize: 0x50 }
  - { offsetInCU: 0x544, offset: 0x8F7C9, size: 0x8, addend: 0x0, symName: '__ZN7_native9py_config188_$LT$impl$u20$pyo3..impl_..pyclass..PyMethods$LT$_native..py_config..PySourceConfig$GT$$u20$for$u20$pyo3..impl_..pyclass..PyClassImplCollector$LT$_native..py_config..PySourceConfig$GT$$GT$10py_methods5ITEMS10trampoline17hfc57a35598895233E', symObjAddr: 0x7CFC, symBinAddr: 0x27210, symSize: 0x4C }
  - { offsetInCU: 0x5A7, offset: 0x8F82C, size: 0x8, addend: 0x0, symName: '__ZN7_native9py_config190_$LT$impl$u20$pyo3..impl_..pyclass..PyMethods$LT$_native..py_config..PyProcessConfig$GT$$u20$for$u20$pyo3..impl_..pyclass..PyClassImplCollector$LT$_native..py_config..PyProcessConfig$GT$$GT$10py_methods5ITEMS17h052aec453c27036dE', symObjAddr: 0xA788, symBinAddr: 0x792608, symSize: 0x0 }
  - { offsetInCU: 0x5B9, offset: 0x8F83E, size: 0x8, addend: 0x0, symName: '__ZN7_native9py_config190_$LT$impl$u20$pyo3..impl_..pyclass..PyMethods$LT$_native..py_config..PyProcessConfig$GT$$u20$for$u20$pyo3..impl_..pyclass..PyClassImplCollector$LT$_native..py_config..PyProcessConfig$GT$$GT$10py_methods5ITEMS10trampoline17h5f951f8c50f9204dE', symObjAddr: 0x7D48, symBinAddr: 0x2725C, symSize: 0x4C }
  - { offsetInCU: 0x605, offset: 0x8F88A, size: 0x8, addend: 0x0, symName: '__ZN7_native9py_config190_$LT$impl$u20$pyo3..impl_..pyclass..PyMethods$LT$_native..py_config..PyProcessConfig$GT$$u20$for$u20$pyo3..impl_..pyclass..PyClassImplCollector$LT$_native..py_config..PyProcessConfig$GT$$GT$10py_methods5ITEMS10trampoline17haaae022c1e54a56dE', symObjAddr: 0x7D94, symBinAddr: 0x272A8, symSize: 0x3C }
  - { offsetInCU: 0x64E, offset: 0x8F8D3, size: 0x8, addend: 0x0, symName: '__ZN7_native9py_config194_$LT$impl$u20$pyo3..impl_..pyclass..PyMethods$LT$_native..py_config..PyFilmStackConfig$GT$$u20$for$u20$pyo3..impl_..pyclass..PyClassImplCollector$LT$_native..py_config..PyFilmStackConfig$GT$$GT$10py_methods5ITEMS17h79872bb2913e2ad1E', symObjAddr: 0xA848, symBinAddr: 0x7926C8, symSize: 0x0 }
  - { offsetInCU: 0x660, offset: 0x8F8E5, size: 0x8, addend: 0x0, symName: '__ZN7_native9py_config194_$LT$impl$u20$pyo3..impl_..pyclass..PyMethods$LT$_native..py_config..PyFilmStackConfig$GT$$u20$for$u20$pyo3..impl_..pyclass..PyClassImplCollector$LT$_native..py_config..PyFilmStackConfig$GT$$GT$10py_methods5ITEMS10trampoline17h02773d9a5a2d6e55E', symObjAddr: 0x7DD0, symBinAddr: 0x272E4, symSize: 0x50 }
  - { offsetInCU: 0x6BB, offset: 0x8F940, size: 0x8, addend: 0x0, symName: '__ZN7_native9py_config194_$LT$impl$u20$pyo3..impl_..pyclass..PyMethods$LT$_native..py_config..PyFilmStackConfig$GT$$u20$for$u20$pyo3..impl_..pyclass..PyClassImplCollector$LT$_native..py_config..PyFilmStackConfig$GT$$GT$10py_methods5ITEMS10trampoline17h45b01ca9fce3c12fE', symObjAddr: 0x7E20, symBinAddr: 0x27334, symSize: 0x4C }
  - { offsetInCU: 0x707, offset: 0x8F98C, size: 0x8, addend: 0x0, symName: '__ZN7_native9py_config194_$LT$impl$u20$pyo3..impl_..pyclass..PyMethods$LT$_native..py_config..PyFilmStackConfig$GT$$u20$for$u20$pyo3..impl_..pyclass..PyClassImplCollector$LT$_native..py_config..PyFilmStackConfig$GT$$GT$10py_methods5ITEMS10trampoline17h501195c82e1a2ce3E', symObjAddr: 0x7E6C, symBinAddr: 0x27380, symSize: 0x50 }
  - { offsetInCU: 0x762, offset: 0x8F9E7, size: 0x8, addend: 0x0, symName: '__ZN7_native9py_config194_$LT$impl$u20$pyo3..impl_..pyclass..PyMethods$LT$_native..py_config..PyFilmStackConfig$GT$$u20$for$u20$pyo3..impl_..pyclass..PyClassImplCollector$LT$_native..py_config..PyFilmStackConfig$GT$$GT$10py_methods5ITEMS10trampoline17hd9eb400c89be7575E', symObjAddr: 0x7EBC, symBinAddr: 0x273D0, symSize: 0x3C }
  - { offsetInCU: 0x7AB, offset: 0x8FA30, size: 0x8, addend: 0x0, symName: '__ZN86_$LT$_native..py_config..PyGridConfig$u20$as$u20$pyo3..impl_..pyclass..PyClassImpl$GT$10items_iter15INTRINSIC_ITEMS17h6bbf4cee0a88b69cE', symObjAddr: 0xABC0, symBinAddr: 0x6A70E8, symSize: 0x0 }
  - { offsetInCU: 0x7CC, offset: 0x8FA51, size: 0x8, addend: 0x0, symName: '__ZN86_$LT$_native..py_config..PyGridConfig$u20$as$u20$pyo3..impl_..pyclass..PyClassImpl$GT$16lazy_type_object11TYPE_OBJECT17hfe8652908c11c87cE', symObjAddr: 0xACD0, symBinAddr: 0x7C06A0, symSize: 0x0 }
  - { offsetInCU: 0x7ED, offset: 0x8FA72, size: 0x8, addend: 0x0, symName: '__ZN86_$LT$_native..py_config..PyGridConfig$u20$as$u20$pyo3..impl_..pyclass..PyClassImpl$GT$3doc3DOC17h118a4b6e6c630b78E', symObjAddr: 0xAD30, symBinAddr: 0x7C0700, symSize: 0x0 }
  - { offsetInCU: 0x7FB, offset: 0x8FA80, size: 0x8, addend: 0x0, symName: '__ZN86_$LT$_native..py_config..PyGridConfig$u20$as$u20$pyo3..impl_..pyclass..PyClassImpl$GT$10items_iter17h5c36ea82573d1ea0E', symObjAddr: 0x80F4, symBinAddr: 0x27608, symSize: 0x38 }
  - { offsetInCU: 0x838, offset: 0x8FABD, size: 0x8, addend: 0x0, symName: '__ZN86_$LT$_native..py_config..PyGridConfig$u20$as$u20$pyo3..impl_..pyclass..PyClassImpl$GT$16lazy_type_object17hf66b9f7514bfd3e6E', symObjAddr: 0x812C, symBinAddr: 0x27640, symSize: 0xC }
  - { offsetInCU: 0x856, offset: 0x8FADB, size: 0x8, addend: 0x0, symName: '__ZN86_$LT$_native..py_config..PyGridConfig$u20$as$u20$pyo3..impl_..pyclass..PyClassImpl$GT$3doc17h9a6bb08861151056E', symObjAddr: 0x8138, symBinAddr: 0x2764C, symSize: 0x3C }
  - { offsetInCU: 0x9C1, offset: 0x8FC46, size: 0x8, addend: 0x0, symName: '__ZN86_$LT$_native..py_config..PyMaskConfig$u20$as$u20$pyo3..impl_..pyclass..PyClassImpl$GT$10items_iter15INTRINSIC_ITEMS17hd791273b19678225E', symObjAddr: 0xABE0, symBinAddr: 0x6A7108, symSize: 0x0 }
  - { offsetInCU: 0x9E1, offset: 0x8FC66, size: 0x8, addend: 0x0, symName: '__ZN86_$LT$_native..py_config..PyMaskConfig$u20$as$u20$pyo3..impl_..pyclass..PyClassImpl$GT$16lazy_type_object11TYPE_OBJECT17hb3967bc3df888796E', symObjAddr: 0xAD50, symBinAddr: 0x7C0720, symSize: 0x0 }
  - { offsetInCU: 0xA01, offset: 0x8FC86, size: 0x8, addend: 0x0, symName: '__ZN86_$LT$_native..py_config..PyMaskConfig$u20$as$u20$pyo3..impl_..pyclass..PyClassImpl$GT$3doc3DOC17h5217bce328431cebE', symObjAddr: 0xADB0, symBinAddr: 0x7C0780, symSize: 0x0 }
  - { offsetInCU: 0xA0F, offset: 0x8FC94, size: 0x8, addend: 0x0, symName: '__ZN86_$LT$_native..py_config..PyMaskConfig$u20$as$u20$pyo3..impl_..pyclass..PyClassImpl$GT$10items_iter17h7142d3b647bbf5beE', symObjAddr: 0x8174, symBinAddr: 0x27688, symSize: 0x38 }
  - { offsetInCU: 0xA4A, offset: 0x8FCCF, size: 0x8, addend: 0x0, symName: '__ZN86_$LT$_native..py_config..PyMaskConfig$u20$as$u20$pyo3..impl_..pyclass..PyClassImpl$GT$16lazy_type_object17h538f99a76ef2e516E', symObjAddr: 0x81AC, symBinAddr: 0x276C0, symSize: 0xC }
  - { offsetInCU: 0xA67, offset: 0x8FCEC, size: 0x8, addend: 0x0, symName: '__ZN86_$LT$_native..py_config..PyMaskConfig$u20$as$u20$pyo3..impl_..pyclass..PyClassImpl$GT$3doc17hfe4515c66bc25277E', symObjAddr: 0x81B8, symBinAddr: 0x276CC, symSize: 0x3C }
  - { offsetInCU: 0xB85, offset: 0x8FE0A, size: 0x8, addend: 0x0, symName: '__ZN88_$LT$_native..py_config..PyOpticsConfig$u20$as$u20$pyo3..impl_..pyclass..PyClassImpl$GT$10items_iter15INTRINSIC_ITEMS17h425e8d130dd7fc54E', symObjAddr: 0xAC00, symBinAddr: 0x6A7128, symSize: 0x0 }
  - { offsetInCU: 0xBA5, offset: 0x8FE2A, size: 0x8, addend: 0x0, symName: '__ZN88_$LT$_native..py_config..PyOpticsConfig$u20$as$u20$pyo3..impl_..pyclass..PyClassImpl$GT$16lazy_type_object11TYPE_OBJECT17h969abe0d3bcf390bE', symObjAddr: 0xADD0, symBinAddr: 0x7C07A0, symSize: 0x0 }
  - { offsetInCU: 0xBC5, offset: 0x8FE4A, size: 0x8, addend: 0x0, symName: '__ZN88_$LT$_native..py_config..PyOpticsConfig$u20$as$u20$pyo3..impl_..pyclass..PyClassImpl$GT$3doc3DOC17h7693dafed276c037E', symObjAddr: 0xAE30, symBinAddr: 0x7C0800, symSize: 0x0 }
  - { offsetInCU: 0xBD3, offset: 0x8FE58, size: 0x8, addend: 0x0, symName: '__ZN88_$LT$_native..py_config..PyOpticsConfig$u20$as$u20$pyo3..impl_..pyclass..PyClassImpl$GT$10items_iter17hcbe9d87f1e1fbc45E', symObjAddr: 0x8218, symBinAddr: 0x2772C, symSize: 0x38 }
  - { offsetInCU: 0xC0E, offset: 0x8FE93, size: 0x8, addend: 0x0, symName: '__ZN88_$LT$_native..py_config..PyOpticsConfig$u20$as$u20$pyo3..impl_..pyclass..PyClassImpl$GT$16lazy_type_object17hed6e65f4b0ce7551E', symObjAddr: 0x8250, symBinAddr: 0x27764, symSize: 0xC }
  - { offsetInCU: 0xC2B, offset: 0x8FEB0, size: 0x8, addend: 0x0, symName: '__ZN88_$LT$_native..py_config..PyOpticsConfig$u20$as$u20$pyo3..impl_..pyclass..PyClassImpl$GT$3doc17hd045a9de5cb58773E', symObjAddr: 0x825C, symBinAddr: 0x27770, symSize: 0x3C }
  - { offsetInCU: 0xE15, offset: 0x9009A, size: 0x8, addend: 0x0, symName: '__ZN88_$LT$_native..py_config..PyResistConfig$u20$as$u20$pyo3..impl_..pyclass..PyClassImpl$GT$10items_iter15INTRINSIC_ITEMS17hc1f478fefe499d4dE', symObjAddr: 0xAC20, symBinAddr: 0x6A7148, symSize: 0x0 }
  - { offsetInCU: 0xE35, offset: 0x900BA, size: 0x8, addend: 0x0, symName: '__ZN88_$LT$_native..py_config..PyResistConfig$u20$as$u20$pyo3..impl_..pyclass..PyClassImpl$GT$16lazy_type_object11TYPE_OBJECT17h8945066bd9013bf6E', symObjAddr: 0xAE50, symBinAddr: 0x7C0820, symSize: 0x0 }
  - { offsetInCU: 0xE55, offset: 0x900DA, size: 0x8, addend: 0x0, symName: '__ZN88_$LT$_native..py_config..PyResistConfig$u20$as$u20$pyo3..impl_..pyclass..PyClassImpl$GT$3doc3DOC17hfd00443de6036a87E', symObjAddr: 0xAEB0, symBinAddr: 0x7C0880, symSize: 0x0 }
  - { offsetInCU: 0xE63, offset: 0x900E8, size: 0x8, addend: 0x0, symName: '__ZN88_$LT$_native..py_config..PyResistConfig$u20$as$u20$pyo3..impl_..pyclass..PyClassImpl$GT$10items_iter17haaef190d16ebc1fcE', symObjAddr: 0x8298, symBinAddr: 0x277AC, symSize: 0x38 }
  - { offsetInCU: 0xE9E, offset: 0x90123, size: 0x8, addend: 0x0, symName: '__ZN88_$LT$_native..py_config..PyResistConfig$u20$as$u20$pyo3..impl_..pyclass..PyClassImpl$GT$16lazy_type_object17ha53dcf85e41beb1aE', symObjAddr: 0x82D0, symBinAddr: 0x277E4, symSize: 0xC }
  - { offsetInCU: 0xEBB, offset: 0x90140, size: 0x8, addend: 0x0, symName: '__ZN88_$LT$_native..py_config..PyResistConfig$u20$as$u20$pyo3..impl_..pyclass..PyClassImpl$GT$3doc17h844a648c613cafb2E', symObjAddr: 0x82DC, symBinAddr: 0x277F0, symSize: 0x3C }
  - { offsetInCU: 0x10BB, offset: 0x90340, size: 0x8, addend: 0x0, symName: '__ZN88_$LT$_native..py_config..PySourceConfig$u20$as$u20$pyo3..impl_..pyclass..PyClassImpl$GT$10items_iter15INTRINSIC_ITEMS17h4bafcc01386b3da2E', symObjAddr: 0xAC40, symBinAddr: 0x6A7168, symSize: 0x0 }
  - { offsetInCU: 0x10DB, offset: 0x90360, size: 0x8, addend: 0x0, symName: '__ZN88_$LT$_native..py_config..PySourceConfig$u20$as$u20$pyo3..impl_..pyclass..PyClassImpl$GT$16lazy_type_object11TYPE_OBJECT17h19191659ce50cc2fE', symObjAddr: 0xAED0, symBinAddr: 0x7C08A0, symSize: 0x0 }
  - { offsetInCU: 0x10FB, offset: 0x90380, size: 0x8, addend: 0x0, symName: '__ZN88_$LT$_native..py_config..PySourceConfig$u20$as$u20$pyo3..impl_..pyclass..PyClassImpl$GT$3doc3DOC17hc94a2d5d26f15168E', symObjAddr: 0xAF30, symBinAddr: 0x7C0900, symSize: 0x0 }
  - { offsetInCU: 0x1109, offset: 0x9038E, size: 0x8, addend: 0x0, symName: '__ZN88_$LT$_native..py_config..PySourceConfig$u20$as$u20$pyo3..impl_..pyclass..PyClassImpl$GT$10items_iter17h8b1b73e85be97312E', symObjAddr: 0x8318, symBinAddr: 0x2782C, symSize: 0x38 }
  - { offsetInCU: 0x1144, offset: 0x903C9, size: 0x8, addend: 0x0, symName: '__ZN88_$LT$_native..py_config..PySourceConfig$u20$as$u20$pyo3..impl_..pyclass..PyClassImpl$GT$16lazy_type_object17h0240c44822758034E', symObjAddr: 0x8350, symBinAddr: 0x27864, symSize: 0xC }
  - { offsetInCU: 0x1161, offset: 0x903E6, size: 0x8, addend: 0x0, symName: '__ZN88_$LT$_native..py_config..PySourceConfig$u20$as$u20$pyo3..impl_..pyclass..PyClassImpl$GT$3doc17h1f8ec0e958b2f50bE', symObjAddr: 0x835C, symBinAddr: 0x27870, symSize: 0x3C }
  - { offsetInCU: 0x1375, offset: 0x905FA, size: 0x8, addend: 0x0, symName: '__ZN89_$LT$_native..py_config..PyProcessConfig$u20$as$u20$pyo3..impl_..pyclass..PyClassImpl$GT$10items_iter15INTRINSIC_ITEMS17h117e1eb64e83a8d7E', symObjAddr: 0xA9E8, symBinAddr: 0x792868, symSize: 0x0 }
  - { offsetInCU: 0x138C, offset: 0x90611, size: 0x8, addend: 0x0, symName: '__ZN233_$LT$$LT$_native..py_config..PyProcessConfig$u20$as$u20$pyo3..impl_..pyclass..PyClassImpl$GT$..items_iter..INTRINSIC_ITEMS..Offset$u20$as$u20$pyo3..impl_..pyclass..OffsetCalculator$LT$_native..py_config..PyProcessConfig$C$f64$GT$$GT$6offset17h4ab2b23b1003ead5E', symObjAddr: 0x0, symBinAddr: 0x1F514, symSize: 0x40 }
  - { offsetInCU: 0x13B0, offset: 0x90635, size: 0x8, addend: 0x0, symName: '__ZN233_$LT$$LT$_native..py_config..PyProcessConfig$u20$as$u20$pyo3..impl_..pyclass..PyClassImpl$GT$..items_iter..INTRINSIC_ITEMS..Offset$u20$as$u20$pyo3..impl_..pyclass..OffsetCalculator$LT$_native..py_config..PyProcessConfig$C$f64$GT$$GT$6offset17hd112c6a7e83ead86E', symObjAddr: 0x40, symBinAddr: 0x1F554, symSize: 0x40 }
  - { offsetInCU: 0x13D4, offset: 0x90659, size: 0x8, addend: 0x0, symName: '__ZN233_$LT$$LT$_native..py_config..PyProcessConfig$u20$as$u20$pyo3..impl_..pyclass..PyClassImpl$GT$..items_iter..INTRINSIC_ITEMS..Offset$u20$as$u20$pyo3..impl_..pyclass..OffsetCalculator$LT$_native..py_config..PyProcessConfig$C$f64$GT$$GT$6offset17hf3161af22c30d0f8E', symObjAddr: 0x80, symBinAddr: 0x1F594, symSize: 0x40 }
  - { offsetInCU: 0x1408, offset: 0x9068D, size: 0x8, addend: 0x0, symName: '__ZN89_$LT$_native..py_config..PyProcessConfig$u20$as$u20$pyo3..impl_..pyclass..PyClassImpl$GT$16lazy_type_object11TYPE_OBJECT17h5848b46b3d4084c1E', symObjAddr: 0xAF50, symBinAddr: 0x7C0920, symSize: 0x0 }
  - { offsetInCU: 0x1429, offset: 0x906AE, size: 0x8, addend: 0x0, symName: '__ZN89_$LT$_native..py_config..PyProcessConfig$u20$as$u20$pyo3..impl_..pyclass..PyClassImpl$GT$3doc3DOC17h5110cb40b41abe47E', symObjAddr: 0xAFB0, symBinAddr: 0x7C0980, symSize: 0x0 }
  - { offsetInCU: 0x1437, offset: 0x906BC, size: 0x8, addend: 0x0, symName: '__ZN89_$LT$_native..py_config..PyProcessConfig$u20$as$u20$pyo3..impl_..pyclass..PyClassImpl$GT$10items_iter17he4d87b89e8d8834aE', symObjAddr: 0x8398, symBinAddr: 0x278AC, symSize: 0x38 }
  - { offsetInCU: 0x1474, offset: 0x906F9, size: 0x8, addend: 0x0, symName: '__ZN89_$LT$_native..py_config..PyProcessConfig$u20$as$u20$pyo3..impl_..pyclass..PyClassImpl$GT$16lazy_type_object17h13bdbd6060f89e79E', symObjAddr: 0x83D0, symBinAddr: 0x278E4, symSize: 0xC }
  - { offsetInCU: 0x1492, offset: 0x90717, size: 0x8, addend: 0x0, symName: '__ZN89_$LT$_native..py_config..PyProcessConfig$u20$as$u20$pyo3..impl_..pyclass..PyClassImpl$GT$3doc17h9936a83b02be4b0cE', symObjAddr: 0x83DC, symBinAddr: 0x278F0, symSize: 0x3C }
  - { offsetInCU: 0x15E8, offset: 0x9086D, size: 0x8, addend: 0x0, symName: '__ZN91_$LT$_native..py_config..PyFilmStackConfig$u20$as$u20$pyo3..impl_..pyclass..PyClassImpl$GT$10items_iter15INTRINSIC_ITEMS17h367955dbde2e4b65E', symObjAddr: 0xAC60, symBinAddr: 0x6A7188, symSize: 0x0 }
  - { offsetInCU: 0x1609, offset: 0x9088E, size: 0x8, addend: 0x0, symName: '__ZN91_$LT$_native..py_config..PyFilmStackConfig$u20$as$u20$pyo3..impl_..pyclass..PyClassImpl$GT$16lazy_type_object11TYPE_OBJECT17h1d042909991c1350E', symObjAddr: 0xAFD0, symBinAddr: 0x7C09A0, symSize: 0x0 }
  - { offsetInCU: 0x162A, offset: 0x908AF, size: 0x8, addend: 0x0, symName: '__ZN91_$LT$_native..py_config..PyFilmStackConfig$u20$as$u20$pyo3..impl_..pyclass..PyClassImpl$GT$3doc3DOC17h476b4a55311e2267E', symObjAddr: 0xB030, symBinAddr: 0x7C0A00, symSize: 0x0 }
  - { offsetInCU: 0x1638, offset: 0x908BD, size: 0x8, addend: 0x0, symName: '__ZN91_$LT$_native..py_config..PyFilmStackConfig$u20$as$u20$pyo3..impl_..pyclass..PyClassImpl$GT$10items_iter17hfbca28933ef07100E', symObjAddr: 0x8418, symBinAddr: 0x2792C, symSize: 0x38 }
  - { offsetInCU: 0x1675, offset: 0x908FA, size: 0x8, addend: 0x0, symName: '__ZN91_$LT$_native..py_config..PyFilmStackConfig$u20$as$u20$pyo3..impl_..pyclass..PyClassImpl$GT$16lazy_type_object17h96fe9d0265739790E', symObjAddr: 0x8450, symBinAddr: 0x27964, symSize: 0xC }
  - { offsetInCU: 0x1693, offset: 0x90918, size: 0x8, addend: 0x0, symName: '__ZN91_$LT$_native..py_config..PyFilmStackConfig$u20$as$u20$pyo3..impl_..pyclass..PyClassImpl$GT$3doc17hd0ae033a5109cf5fE', symObjAddr: 0x845C, symBinAddr: 0x27970, symSize: 0x3C }
  - { offsetInCU: 0x17E4, offset: 0x90A69, size: 0x8, addend: 0x0, symName: '__ZN71_$LT$_native..py_config..PyGridConfig$u20$as$u20$core..clone..Clone$GT$5clone17hcfbc866623c5272aE', symObjAddr: 0xC0, symBinAddr: 0x1F5D4, symSize: 0x24 }
  - { offsetInCU: 0x1818, offset: 0x90A9D, size: 0x8, addend: 0x0, symName: '__ZN71_$LT$_native..py_config..PyMaskConfig$u20$as$u20$core..clone..Clone$GT$5clone17hf07f88c864a55cdaE', symObjAddr: 0xE4, symBinAddr: 0x1F5F8, symSize: 0x44 }
  - { offsetInCU: 0x184A, offset: 0x90ACF, size: 0x8, addend: 0x0, symName: '__ZN73_$LT$_native..py_config..PyOpticsConfig$u20$as$u20$core..clone..Clone$GT$5clone17he23309dc14e265c0E', symObjAddr: 0x128, symBinAddr: 0x1F63C, symSize: 0x44 }
  - { offsetInCU: 0x187C, offset: 0x90B01, size: 0x8, addend: 0x0, symName: '__ZN73_$LT$_native..py_config..PyResistConfig$u20$as$u20$core..clone..Clone$GT$5clone17hea102fe72b66d256E', symObjAddr: 0x16C, symBinAddr: 0x1F680, symSize: 0x44 }
  - { offsetInCU: 0x18AE, offset: 0x90B33, size: 0x8, addend: 0x0, symName: '__ZN73_$LT$_native..py_config..PySourceConfig$u20$as$u20$core..clone..Clone$GT$5clone17h1f0cf2c100376300E', symObjAddr: 0x1B0, symBinAddr: 0x1F6C4, symSize: 0x44 }
  - { offsetInCU: 0x18E0, offset: 0x90B65, size: 0x8, addend: 0x0, symName: '__ZN82_$LT$_native..py_config..PyGridConfig$u20$as$u20$pyo3..type_object..PyTypeInfo$GT$15type_object_raw17ha6d8b63a101eaf92E', symObjAddr: 0x7EF8, symBinAddr: 0x2740C, symSize: 0x24 }
  - { offsetInCU: 0x1920, offset: 0x90BA5, size: 0x8, addend: 0x0, symName: '__ZN82_$LT$_native..py_config..PyMaskConfig$u20$as$u20$pyo3..type_object..PyTypeInfo$GT$15type_object_raw17h85a70c71f4ff4bddE', symObjAddr: 0x7F1C, symBinAddr: 0x27430, symSize: 0x24 }
  - { offsetInCU: 0x195D, offset: 0x90BE2, size: 0x8, addend: 0x0, symName: '__ZN83_$LT$_native..py_config..PyGridConfig$u20$as$u20$pyo3..conversion..IntoPyObject$GT$13into_pyobject17h85b456b880a3d126E', symObjAddr: 0x7F40, symBinAddr: 0x27454, symSize: 0x24 }
  - { offsetInCU: 0x19AC, offset: 0x90C31, size: 0x8, addend: 0x0, symName: '__ZN83_$LT$_native..py_config..PyMaskConfig$u20$as$u20$pyo3..conversion..IntoPyObject$GT$13into_pyobject17hedb6938894b00394E', symObjAddr: 0x7F64, symBinAddr: 0x27478, symSize: 0x40 }
  - { offsetInCU: 0x19F8, offset: 0x90C7D, size: 0x8, addend: 0x0, symName: '__ZN84_$LT$_native..py_config..PyOpticsConfig$u20$as$u20$pyo3..type_object..PyTypeInfo$GT$15type_object_raw17hbc44c9ddad546625E', symObjAddr: 0x7FA4, symBinAddr: 0x274B8, symSize: 0x24 }
  - { offsetInCU: 0x1A35, offset: 0x90CBA, size: 0x8, addend: 0x0, symName: '__ZN84_$LT$_native..py_config..PyResistConfig$u20$as$u20$pyo3..type_object..PyTypeInfo$GT$15type_object_raw17ha7acf319609cd82aE', symObjAddr: 0x7FC8, symBinAddr: 0x274DC, symSize: 0x24 }
  - { offsetInCU: 0x1A72, offset: 0x90CF7, size: 0x8, addend: 0x0, symName: '__ZN84_$LT$_native..py_config..PySourceConfig$u20$as$u20$pyo3..type_object..PyTypeInfo$GT$15type_object_raw17hfb483466560a57e7E', symObjAddr: 0x7FEC, symBinAddr: 0x27500, symSize: 0x24 }
  - { offsetInCU: 0x1AAF, offset: 0x90D34, size: 0x8, addend: 0x0, symName: '__ZN85_$LT$_native..py_config..PyOpticsConfig$u20$as$u20$pyo3..conversion..IntoPyObject$GT$13into_pyobject17hd1a5934fba47a23aE', symObjAddr: 0x8010, symBinAddr: 0x27524, symSize: 0x40 }
  - { offsetInCU: 0x1AFB, offset: 0x90D80, size: 0x8, addend: 0x0, symName: '__ZN85_$LT$_native..py_config..PyProcessConfig$u20$as$u20$pyo3..type_object..PyTypeInfo$GT$15type_object_raw17h90dfcecbc200274fE', symObjAddr: 0x8050, symBinAddr: 0x27564, symSize: 0x24 }
  - { offsetInCU: 0x1B3B, offset: 0x90DC0, size: 0x8, addend: 0x0, symName: '__ZN85_$LT$_native..py_config..PyResistConfig$u20$as$u20$pyo3..conversion..IntoPyObject$GT$13into_pyobject17he34422d3b33ef6baE', symObjAddr: 0x8074, symBinAddr: 0x27588, symSize: 0x40 }
  - { offsetInCU: 0x1B87, offset: 0x90E0C, size: 0x8, addend: 0x0, symName: '__ZN85_$LT$_native..py_config..PySourceConfig$u20$as$u20$pyo3..conversion..IntoPyObject$GT$13into_pyobject17hfea097fae8f9e233E', symObjAddr: 0x80B4, symBinAddr: 0x275C8, symSize: 0x40 }
  - { offsetInCU: 0x1BD3, offset: 0x90E58, size: 0x8, addend: 0x0, symName: '__ZN87_$LT$_native..py_config..PyFilmStackConfig$u20$as$u20$pyo3..type_object..PyTypeInfo$GT$15type_object_raw17h64d491201f612f21E', symObjAddr: 0x81F4, symBinAddr: 0x27708, symSize: 0x24 }
  - { offsetInCU: 0x6611, offset: 0x95896, size: 0x8, addend: 0x0, symName: __ZN7_native9py_config12PyGridConfig13field_size_nm17he03b74bc5f87b2ecE, symObjAddr: 0x1F4, symBinAddr: 0x1F708, symSize: 0x24 }
  - { offsetInCU: 0x6634, offset: 0x958B9, size: 0x8, addend: 0x0, symName: __ZN7_native9py_config12PyGridConfig20__pymethod___new____17hc423eef43ae24493E, symObjAddr: 0x218, symBinAddr: 0x1F72C, symSize: 0x3C8 }
  - { offsetInCU: 0x67EA, offset: 0x95A6F, size: 0x8, addend: 0x0, symName: __ZN7_native9py_config12PyGridConfig21__pymethod___repr____17h89380abca340811aE, symObjAddr: 0x5E0, symBinAddr: 0x1FAF4, symSize: 0x178 }
  - { offsetInCU: 0x68AC, offset: 0x95B31, size: 0x8, addend: 0x0, symName: __ZN7_native9py_config12PyGridConfig21__pymethod_get_size__17h4b518c8996d0bc53E, symObjAddr: 0x758, symBinAddr: 0x1FC6C, symSize: 0x134 }
  - { offsetInCU: 0x6940, offset: 0x95BC5, size: 0x8, addend: 0x0, symName: __ZN7_native9py_config12PyGridConfig25__pymethod_get_pixel_nm__17h9b884a145531e719E, symObjAddr: 0x88C, symBinAddr: 0x1FDA0, symSize: 0x134 }
  - { offsetInCU: 0x69D4, offset: 0x95C59, size: 0x8, addend: 0x0, symName: __ZN7_native9py_config12PyGridConfig26__pymethod_field_size_nm__17hf89dace8f9c779fcE, symObjAddr: 0x9C0, symBinAddr: 0x1FED4, symSize: 0x214 }
  - { offsetInCU: 0x6ACE, offset: 0x95D53, size: 0x8, addend: 0x0, symName: __ZN7_native9py_config12PyGridConfig3new17h6762142b50b787daE, symObjAddr: 0xBD4, symBinAddr: 0x200E8, symSize: 0xD0 }
  - { offsetInCU: 0x6B40, offset: 0x95DC5, size: 0x8, addend: 0x0, symName: __ZN7_native9py_config12PyGridConfig4size17h6efeebfd383f89efE, symObjAddr: 0xCA4, symBinAddr: 0x201B8, symSize: 0x18 }
  - { offsetInCU: 0x6B63, offset: 0x95DE8, size: 0x8, addend: 0x0, symName: __ZN7_native9py_config12PyGridConfig8__repr__17hf77703725db9d286E, symObjAddr: 0xCBC, symBinAddr: 0x201D0, symSize: 0xD8 }
  - { offsetInCU: 0x6BE1, offset: 0x95E66, size: 0x8, addend: 0x0, symName: __ZN7_native9py_config12PyGridConfig8pixel_nm17hb794313cc0782dc4E, symObjAddr: 0xD94, symBinAddr: 0x202A8, symSize: 0x18 }
  - { offsetInCU: 0x6C04, offset: 0x95E89, size: 0x8, addend: 0x0, symName: __ZN7_native9py_config12PyMaskConfig10line_space17h077dfca02ed15d5fE, symObjAddr: 0xDAC, symBinAddr: 0x202C0, symSize: 0x100 }
  - { offsetInCU: 0x6C72, offset: 0x95EF7, size: 0x8, addend: 0x0, symName: __ZN7_native9py_config12PyMaskConfig12contact_hole17h18722a271a27d491E, symObjAddr: 0xEAC, symBinAddr: 0x203C0, symSize: 0x104 }
  - { offsetInCU: 0x6CEF, offset: 0x95F74, size: 0x8, addend: 0x0, symName: __ZN7_native9py_config12PyMaskConfig21__pymethod___repr____17h097f8af6b7d7627bE, symObjAddr: 0xFB0, symBinAddr: 0x204C4, symSize: 0x178 }
  - { offsetInCU: 0x6DA9, offset: 0x9602E, size: 0x8, addend: 0x0, symName: __ZN7_native9py_config12PyMaskConfig23__pymethod_line_space__17h2f5a2852810a8cd4E, symObjAddr: 0x1128, symBinAddr: 0x2063C, symSize: 0x3FC }
  - { offsetInCU: 0x6F4C, offset: 0x961D1, size: 0x8, addend: 0x0, symName: __ZN7_native9py_config12PyMaskConfig25__pymethod_contact_hole__17hc3a2f0086aba3128E, symObjAddr: 0x1524, symBinAddr: 0x20A38, symSize: 0x4A0 }
  - { offsetInCU: 0x7130, offset: 0x963B5, size: 0x8, addend: 0x0, symName: __ZN7_native9py_config12PyMaskConfig8__repr__17h403717872108cab6E, symObjAddr: 0x19C4, symBinAddr: 0x20ED8, symSize: 0x78 }
  - { offsetInCU: 0x71B6, offset: 0x9643B, size: 0x8, addend: 0x0, symName: __ZN7_native9py_config14PyOpticsConfig14add_aberration17h7cb53937eddd73eeE, symObjAddr: 0x1A3C, symBinAddr: 0x20F50, symSize: 0x2C }
  - { offsetInCU: 0x7201, offset: 0x96486, size: 0x8, addend: 0x0, symName: __ZN7_native9py_config14PyOpticsConfig14flare_fraction17h4ee850396f40a6d0E, symObjAddr: 0x1A68, symBinAddr: 0x20F7C, symSize: 0x18 }
  - { offsetInCU: 0x7223, offset: 0x964A8, size: 0x8, addend: 0x0, symName: __ZN7_native9py_config14PyOpticsConfig18numerical_aperture17hc02ccdada5c5ae46E, symObjAddr: 0x1A80, symBinAddr: 0x20F94, symSize: 0x18 }
  - { offsetInCU: 0x7245, offset: 0x964CA, size: 0x8, addend: 0x0, symName: __ZN7_native9py_config14PyOpticsConfig19rayleigh_resolution17h7e65cc20a9af4653E, symObjAddr: 0x1A98, symBinAddr: 0x20FAC, symSize: 0x28 }
  - { offsetInCU: 0x7275, offset: 0x964FA, size: 0x8, addend: 0x0, symName: __ZN7_native9py_config14PyOpticsConfig20__pymethod___new____17hd84dea24066f9dceE, symObjAddr: 0x1AC0, symBinAddr: 0x20FD4, symSize: 0x48C }
  - { offsetInCU: 0x744D, offset: 0x966D2, size: 0x8, addend: 0x0, symName: __ZN7_native9py_config14PyOpticsConfig21__pymethod___repr____17h91927e5d9438b943E, symObjAddr: 0x1F4C, symBinAddr: 0x21460, symSize: 0x178 }
  - { offsetInCU: 0x7507, offset: 0x9678C, size: 0x8, addend: 0x0, symName: __ZN7_native9py_config14PyOpticsConfig26__pymethod_get_reduction__17h8529f32cd0c3fe45E, symObjAddr: 0x20C4, symBinAddr: 0x215D8, symSize: 0x134 }
  - { offsetInCU: 0x7595, offset: 0x9681A, size: 0x8, addend: 0x0, symName: __ZN7_native9py_config14PyOpticsConfig27__pymethod_add_aberration__17h5349c840cd1b96d6E, symObjAddr: 0x21F8, symBinAddr: 0x2170C, symSize: 0x45C }
  - { offsetInCU: 0x775C, offset: 0x969E1, size: 0x8, addend: 0x0, symName: __ZN7_native9py_config14PyOpticsConfig31__pymethod_get_flare_fraction__17hed5ba37ca1b88a07E, symObjAddr: 0x2654, symBinAddr: 0x21B68, symSize: 0x134 }
  - { offsetInCU: 0x77EA, offset: 0x96A6F, size: 0x8, addend: 0x0, symName: __ZN7_native9py_config14PyOpticsConfig32__pymethod_rayleigh_resolution__17h53eee2bbd54eeb04E, symObjAddr: 0x2788, symBinAddr: 0x21C9C, symSize: 0x378 }
  - { offsetInCU: 0x7985, offset: 0x96C0A, size: 0x8, addend: 0x0, symName: __ZN7_native9py_config14PyOpticsConfig35__pymethod_get_numerical_aperture__17h02d708e31fc1eae2E, symObjAddr: 0x2B00, symBinAddr: 0x22014, symSize: 0x134 }
  - { offsetInCU: 0x7A13, offset: 0x96C98, size: 0x8, addend: 0x0, symName: __ZN7_native9py_config14PyOpticsConfig3new17h546f402eaca38fb1E, symObjAddr: 0x2C34, symBinAddr: 0x22148, symSize: 0x324 }
  - { offsetInCU: 0x7B9C, offset: 0x96E21, size: 0x8, addend: 0x0, symName: __ZN7_native9py_config14PyOpticsConfig8__repr__17ha2b63d1f95f38e1dE, symObjAddr: 0x2F58, symBinAddr: 0x2246C, symSize: 0x90 }
  - { offsetInCU: 0x7C15, offset: 0x96E9A, size: 0x8, addend: 0x0, symName: __ZN7_native9py_config14PyOpticsConfig9reduction17h98d776e8dc6299f8E, symObjAddr: 0x2FE8, symBinAddr: 0x224FC, symSize: 0x18 }
  - { offsetInCU: 0x7C44, offset: 0x96EC9, size: 0x8, addend: 0x0, symName: __ZN7_native9py_config14PyResistConfig12thickness_nm17h41b35993cbd5e2a5E, symObjAddr: 0x3000, symBinAddr: 0x22514, symSize: 0x18 }
  - { offsetInCU: 0x7C67, offset: 0x96EEC, size: 0x8, addend: 0x0, symName: __ZN7_native9py_config14PyResistConfig16peb_diffusion_nm17h7997dbf778d54a7bE, symObjAddr: 0x3018, symBinAddr: 0x2252C, symSize: 0x18 }
  - { offsetInCU: 0x7C8A, offset: 0x96F0F, size: 0x8, addend: 0x0, symName: __ZN7_native9py_config14PyResistConfig17vuv_fluoropolymer17h3520ed55336b88baE, symObjAddr: 0x3030, symBinAddr: 0x22544, symSize: 0x3C }
  - { offsetInCU: 0x7C9D, offset: 0x96F22, size: 0x8, addend: 0x0, symName: __ZN7_native9py_config14PyResistConfig20__pymethod___new____17hb238aa899cca4eefE, symObjAddr: 0x306C, symBinAddr: 0x22580, symSize: 0x68C }
  - { offsetInCU: 0x7F11, offset: 0x97196, size: 0x8, addend: 0x0, symName: __ZN7_native9py_config14PyResistConfig21__pymethod___repr____17h2e02f9f97cc37f16E, symObjAddr: 0x36F8, symBinAddr: 0x22C0C, symSize: 0x178 }
  - { offsetInCU: 0x7FCB, offset: 0x97250, size: 0x8, addend: 0x0, symName: __ZN7_native9py_config14PyResistConfig23__pymethod_get_dill_a__17h744af8b204bd5ca7E, symObjAddr: 0x3870, symBinAddr: 0x22D84, symSize: 0x134 }
  - { offsetInCU: 0x8059, offset: 0x972DE, size: 0x8, addend: 0x0, symName: __ZN7_native9py_config14PyResistConfig23__pymethod_get_dill_b__17h05128f348d620338E, symObjAddr: 0x39A4, symBinAddr: 0x22EB8, symSize: 0x134 }
  - { offsetInCU: 0x80E7, offset: 0x9736C, size: 0x8, addend: 0x0, symName: __ZN7_native9py_config14PyResistConfig23__pymethod_get_dill_c__17he13e459484969091E, symObjAddr: 0x3AD8, symBinAddr: 0x22FEC, symSize: 0x134 }
  - { offsetInCU: 0x8175, offset: 0x973FA, size: 0x8, addend: 0x0, symName: __ZN7_native9py_config14PyResistConfig29__pymethod_get_thickness_nm__17he2533117bce13213E, symObjAddr: 0x3C0C, symBinAddr: 0x23120, symSize: 0x134 }
  - { offsetInCU: 0x8203, offset: 0x97488, size: 0x8, addend: 0x0, symName: __ZN7_native9py_config14PyResistConfig30__pymethod_vuv_fluoropolymer__17h45967078a5367920E, symObjAddr: 0x3D40, symBinAddr: 0x23254, symSize: 0x140 }
  - { offsetInCU: 0x82A4, offset: 0x97529, size: 0x8, addend: 0x0, symName: __ZN7_native9py_config14PyResistConfig33__pymethod_get_peb_diffusion_nm__17hbed7f85ed2db7148E, symObjAddr: 0x3E80, symBinAddr: 0x23394, symSize: 0x134 }
  - { offsetInCU: 0x8350, offset: 0x975D5, size: 0x8, addend: 0x0, symName: __ZN7_native9py_config14PyResistConfig3new17he76d54dd8c122d71E, symObjAddr: 0x3FB4, symBinAddr: 0x234C8, symSize: 0x2F8 }
  - { offsetInCU: 0x84E8, offset: 0x9776D, size: 0x8, addend: 0x0, symName: __ZN7_native9py_config14PyResistConfig6dill_a17h1647c0668de0f5d9E, symObjAddr: 0x42AC, symBinAddr: 0x237C0, symSize: 0x18 }
  - { offsetInCU: 0x850B, offset: 0x97790, size: 0x8, addend: 0x0, symName: __ZN7_native9py_config14PyResistConfig6dill_b17h13fcbac4c0d17655E, symObjAddr: 0x42C4, symBinAddr: 0x237D8, symSize: 0x18 }
  - { offsetInCU: 0x852E, offset: 0x977B3, size: 0x8, addend: 0x0, symName: __ZN7_native9py_config14PyResistConfig6dill_c17h558ad7ac08b93f9eE, symObjAddr: 0x42DC, symBinAddr: 0x237F0, symSize: 0x18 }
  - { offsetInCU: 0x8551, offset: 0x977D6, size: 0x8, addend: 0x0, symName: __ZN7_native9py_config14PyResistConfig8__repr__17h5cc71aa33e73ebd4E, symObjAddr: 0x42F4, symBinAddr: 0x23808, symSize: 0xC8 }
  - { offsetInCU: 0x85DC, offset: 0x97861, size: 0x8, addend: 0x0, symName: __ZN7_native9py_config14PySourceConfig11sigma_outer17he3b57b4d543e4b3dE, symObjAddr: 0x43BC, symBinAddr: 0x238D0, symSize: 0x4C }
  - { offsetInCU: 0x861B, offset: 0x978A0, size: 0x8, addend: 0x0, symName: __ZN7_native9py_config14PySourceConfig12bandwidth_pm17hb8fdd6d2009115c9E, symObjAddr: 0x4408, symBinAddr: 0x2391C, symSize: 0x18 }
  - { offsetInCU: 0x863D, offset: 0x978C2, size: 0x8, addend: 0x0, symName: __ZN7_native9py_config14PySourceConfig13wavelength_nm17he593a018718e0095E, symObjAddr: 0x4420, symBinAddr: 0x23934, symSize: 0x18 }
  - { offsetInCU: 0x865F, offset: 0x978E4, size: 0x8, addend: 0x0, symName: __ZN7_native9py_config14PySourceConfig16spectral_samples17hf2edb28b2d9927e5E, symObjAddr: 0x4438, symBinAddr: 0x2394C, symSize: 0x18 }
  - { offsetInCU: 0x8681, offset: 0x97906, size: 0x8, addend: 0x0, symName: __ZN7_native9py_config14PySourceConfig20__pymethod___new____17hfecf9e44415dc678E, symObjAddr: 0x4450, symBinAddr: 0x23964, symSize: 0x534 }
  - { offsetInCU: 0x888D, offset: 0x97B12, size: 0x8, addend: 0x0, symName: __ZN7_native9py_config14PySourceConfig21__pymethod___repr____17h7657dd83ccefbfb6E, symObjAddr: 0x4984, symBinAddr: 0x23E98, symSize: 0x178 }
  - { offsetInCU: 0x8947, offset: 0x97BCC, size: 0x8, addend: 0x0, symName: __ZN7_native9py_config14PySourceConfig21__pymethod_f2_laser__17h4754c681f352b0f9E, symObjAddr: 0x4AFC, symBinAddr: 0x24010, symSize: 0x310 }
  - { offsetInCU: 0x8AB6, offset: 0x97D3B, size: 0x8, addend: 0x0, symName: __ZN7_native9py_config14PySourceConfig22__pymethod_ar2_laser__17h086118b04574fd3bE, symObjAddr: 0x4E0C, symBinAddr: 0x24320, symSize: 0x310 }
  - { offsetInCU: 0x8C25, offset: 0x97EAA, size: 0x8, addend: 0x0, symName: __ZN7_native9py_config14PySourceConfig28__pymethod_get_sigma_outer__17hbef7b108fafea01dE, symObjAddr: 0x511C, symBinAddr: 0x24630, symSize: 0x134 }
  - { offsetInCU: 0x8CB3, offset: 0x97F38, size: 0x8, addend: 0x0, symName: __ZN7_native9py_config14PySourceConfig29__pymethod_get_bandwidth_pm__17hdcc5cfd4e2bf0f57E, symObjAddr: 0x5250, symBinAddr: 0x24764, symSize: 0x134 }
  - { offsetInCU: 0x8D41, offset: 0x97FC6, size: 0x8, addend: 0x0, symName: __ZN7_native9py_config14PySourceConfig30__pymethod_get_wavelength_nm__17h32487e72e486dfd6E, symObjAddr: 0x5384, symBinAddr: 0x24898, symSize: 0x134 }
  - { offsetInCU: 0x8DCF, offset: 0x98054, size: 0x8, addend: 0x0, symName: __ZN7_native9py_config14PySourceConfig33__pymethod_get_spectral_samples__17h87c95c40c67d8bedE, symObjAddr: 0x54B8, symBinAddr: 0x249CC, symSize: 0x134 }
  - { offsetInCU: 0x8E5D, offset: 0x980E2, size: 0x8, addend: 0x0, symName: __ZN7_native9py_config14PySourceConfig3new17h4b5a5898fd4ec6a8E, symObjAddr: 0x55EC, symBinAddr: 0x24B00, symSize: 0x35C }
  - { offsetInCU: 0x9011, offset: 0x98296, size: 0x8, addend: 0x0, symName: __ZN7_native9py_config14PySourceConfig8__repr__17h812579eaa4156768E, symObjAddr: 0x5948, symBinAddr: 0x24E5C, symSize: 0x8C }
  - { offsetInCU: 0x908A, offset: 0x9830F, size: 0x8, addend: 0x0, symName: __ZN7_native9py_config14PySourceConfig8f2_laser17h1d468aa40d6c7671E, symObjAddr: 0x59D4, symBinAddr: 0x24EE8, symSize: 0xF8 }
  - { offsetInCU: 0x90E9, offset: 0x9836E, size: 0x8, addend: 0x0, symName: __ZN7_native9py_config14PySourceConfig9ar2_laser17h0b4bba8de2a5a3d0E, symObjAddr: 0x5ACC, symBinAddr: 0x24FE0, symSize: 0xF8 }
  - { offsetInCU: 0x9148, offset: 0x983CD, size: 0x8, addend: 0x0, symName: __ZN7_native9py_config15PyProcessConfig20__pymethod___new____17he97962c4203373c1E, symObjAddr: 0x5BC4, symBinAddr: 0x250D8, symSize: 0x428 }
  - { offsetInCU: 0x9334, offset: 0x985B9, size: 0x8, addend: 0x0, symName: __ZN7_native9py_config15PyProcessConfig21__pymethod___repr____17h4a3c31ef99457515E, symObjAddr: 0x5FEC, symBinAddr: 0x25500, symSize: 0x178 }
  - { offsetInCU: 0x93F6, offset: 0x9867B, size: 0x8, addend: 0x0, symName: __ZN7_native9py_config15PyProcessConfig25__pymethod_set_focus_nm__17h8017862adb034c0aE, symObjAddr: 0x6164, symBinAddr: 0x25678, symSize: 0x250 }
  - { offsetInCU: 0x950F, offset: 0x98794, size: 0x8, addend: 0x0, symName: __ZN7_native9py_config15PyProcessConfig28__pymethod_set_dose_mj_cm2__17h7c775ed9427f91c5E, symObjAddr: 0x63B4, symBinAddr: 0x258C8, symSize: 0x250 }
  - { offsetInCU: 0x9628, offset: 0x988AD, size: 0x8, addend: 0x0, symName: __ZN7_native9py_config15PyProcessConfig35__pymethod_set_development_time_s__17h8c73b3007a44c71eE, symObjAddr: 0x6604, symBinAddr: 0x25B18, symSize: 0x250 }
  - { offsetInCU: 0x9741, offset: 0x989C6, size: 0x8, addend: 0x0, symName: __ZN7_native9py_config15PyProcessConfig3new17h5679da72afe23231E, symObjAddr: 0x6854, symBinAddr: 0x25D68, symSize: 0x24 }
  - { offsetInCU: 0x978F, offset: 0x98A14, size: 0x8, addend: 0x0, symName: __ZN7_native9py_config15PyProcessConfig8__repr__17h6835bdfa7112839eE, symObjAddr: 0x6878, symBinAddr: 0x25D8C, symSize: 0x84 }
  - { offsetInCU: 0x9819, offset: 0x98A9E, size: 0x8, addend: 0x0, symName: __ZN7_native9py_config17PyFilmStackConfig13set_substrate17hd90dead894430729E, symObjAddr: 0x68FC, symBinAddr: 0x25E10, symSize: 0x38 }
  - { offsetInCU: 0x985A, offset: 0x98ADF, size: 0x8, addend: 0x0, symName: __ZN7_native9py_config17PyFilmStackConfig20__pymethod___new____17hccd312369e799483E, symObjAddr: 0x6934, symBinAddr: 0x25E48, symSize: 0x200 }
  - { offsetInCU: 0x99A4, offset: 0x98C29, size: 0x8, addend: 0x0, symName: __ZN7_native9py_config17PyFilmStackConfig21__pymethod___repr____17ha33f824c91b381cfE, symObjAddr: 0x6B34, symBinAddr: 0x26048, symSize: 0x178 }
  - { offsetInCU: 0x9A66, offset: 0x98CEB, size: 0x8, addend: 0x0, symName: __ZN7_native9py_config17PyFilmStackConfig22__pymethod_add_layer__17h287e3a85713a05fdE, symObjAddr: 0x6CAC, symBinAddr: 0x261C0, symSize: 0x5FC }
  - { offsetInCU: 0x9C9E, offset: 0x98F23, size: 0x8, addend: 0x0, symName: __ZN7_native9py_config17PyFilmStackConfig26__pymethod_set_substrate__17hea5daff8ee26a8d0E, symObjAddr: 0x72A8, symBinAddr: 0x267BC, symSize: 0x45C }
  - { offsetInCU: 0x9E7A, offset: 0x990FF, size: 0x8, addend: 0x0, symName: __ZN7_native9py_config17PyFilmStackConfig3new17hd9be6351d6b1d3e3E, symObjAddr: 0x7704, symBinAddr: 0x26C18, symSize: 0x3C }
  - { offsetInCU: 0x9E9A, offset: 0x9911F, size: 0x8, addend: 0x0, symName: __ZN7_native9py_config17PyFilmStackConfig8__repr__17h20af0e0ac9204718E, symObjAddr: 0x7740, symBinAddr: 0x26C54, symSize: 0x78 }
  - { offsetInCU: 0x9F17, offset: 0x9919C, size: 0x8, addend: 0x0, symName: __ZN7_native9py_config17PyFilmStackConfig9add_layer17h281ee425703d493fE, symObjAddr: 0x77B8, symBinAddr: 0x26CCC, symSize: 0xCC }
  - { offsetInCU: 0x1E, offset: 0x99722, size: 0x8, addend: 0x0, symName: '__ZN123_$LT$$RF$_native..py_results..PyAerialImageResult$u20$as$u20$pyo3..impl_..extract_argument..PyFunctionArgument$LT$_$GT$$GT$7extract17ha8d31715eb182448E', symObjAddr: 0x0, symBinAddr: 0x279AC, symSize: 0x2C }
  - { offsetInCU: 0x4C, offset: 0x99750, size: 0x8, addend: 0x0, symName: '__ZN7_native10py_results200_$LT$impl$u20$pyo3..impl_..pyclass..PyMethods$LT$_native..py_results..PyAerialImageResult$GT$$u20$for$u20$pyo3..impl_..pyclass..PyClassImplCollector$LT$_native..py_results..PyAerialImageResult$GT$$GT$10py_methods5ITEMS17h5720aafaec1f1574E', symObjAddr: 0x3100, symBinAddr: 0x792B48, symSize: 0x0 }
  - { offsetInCU: 0x5E, offset: 0x99762, size: 0x8, addend: 0x0, symName: '__ZN7_native10py_results200_$LT$impl$u20$pyo3..impl_..pyclass..PyMethods$LT$_native..py_results..PyAerialImageResult$GT$$u20$for$u20$pyo3..impl_..pyclass..PyClassImplCollector$LT$_native..py_results..PyAerialImageResult$GT$$GT$10py_methods5ITEMS10trampoline17h15eb1735b796cf91E', symObjAddr: 0x1A3C, symBinAddr: 0x293E8, symSize: 0x44 }
  - { offsetInCU: 0x98, offset: 0x9979C, size: 0x8, addend: 0x0, symName: '__ZN7_native10py_results200_$LT$impl$u20$pyo3..impl_..pyclass..PyMethods$LT$_native..py_results..PyAerialImageResult$GT$$u20$for$u20$pyo3..impl_..pyclass..PyClassImplCollector$LT$_native..py_results..PyAerialImageResult$GT$$GT$10py_methods5ITEMS10trampoline17h789408ae5f302b9bE', symObjAddr: 0x1A80, symBinAddr: 0x2942C, symSize: 0x3C }
  - { offsetInCU: 0xC4, offset: 0x997C8, size: 0x8, addend: 0x0, symName: '__ZN7_native10py_results200_$LT$impl$u20$pyo3..impl_..pyclass..PyMethods$LT$_native..py_results..PyAerialImageResult$GT$$u20$for$u20$pyo3..impl_..pyclass..PyClassImplCollector$LT$_native..py_results..PyAerialImageResult$GT$$GT$10py_methods5ITEMS10trampoline17h7e153777a93e9ee6E', symObjAddr: 0x1ABC, symBinAddr: 0x29468, symSize: 0x50 }
  - { offsetInCU: 0x11A, offset: 0x9981E, size: 0x8, addend: 0x0, symName: '__ZN7_native10py_results200_$LT$impl$u20$pyo3..impl_..pyclass..PyMethods$LT$_native..py_results..PyAerialImageResult$GT$$u20$for$u20$pyo3..impl_..pyclass..PyClassImplCollector$LT$_native..py_results..PyAerialImageResult$GT$$GT$10py_methods5ITEMS10trampoline17h7fcb969b5924b409E', symObjAddr: 0x1B0C, symBinAddr: 0x294B8, symSize: 0x50 }
  - { offsetInCU: 0x18A, offset: 0x9988E, size: 0x8, addend: 0x0, symName: '__ZN7_native10py_results204_$LT$impl$u20$pyo3..impl_..pyclass..PyMethods$LT$_native..py_results..PyResistProfileResult$GT$$u20$for$u20$pyo3..impl_..pyclass..PyClassImplCollector$LT$_native..py_results..PyResistProfileResult$GT$$GT$10py_methods5ITEMS17hc4c7804e995b12d4E', symObjAddr: 0x3200, symBinAddr: 0x792C48, symSize: 0x0 }
  - { offsetInCU: 0x19C, offset: 0x998A0, size: 0x8, addend: 0x0, symName: '__ZN7_native10py_results204_$LT$impl$u20$pyo3..impl_..pyclass..PyMethods$LT$_native..py_results..PyResistProfileResult$GT$$u20$for$u20$pyo3..impl_..pyclass..PyClassImplCollector$LT$_native..py_results..PyResistProfileResult$GT$$GT$10py_methods5ITEMS10trampoline17h49e28cc1a98c296bE', symObjAddr: 0x1BA4, symBinAddr: 0x29550, symSize: 0x3C }
  - { offsetInCU: 0x1E2, offset: 0x998E6, size: 0x8, addend: 0x0, symName: '__ZN94_$LT$_native..py_results..PyAerialImageResult$u20$as$u20$pyo3..impl_..pyclass..PyClassImpl$GT$10items_iter15INTRINSIC_ITEMS17h3db53286c312d5ecE', symObjAddr: 0x32C0, symBinAddr: 0x6A7278, symSize: 0x0 }
  - { offsetInCU: 0x202, offset: 0x99906, size: 0x8, addend: 0x0, symName: '__ZN94_$LT$_native..py_results..PyAerialImageResult$u20$as$u20$pyo3..impl_..pyclass..PyClassImpl$GT$16lazy_type_object11TYPE_OBJECT17hcdab1caeaf3129c6E', symObjAddr: 0x3300, symBinAddr: 0x7C0A20, symSize: 0x0 }
  - { offsetInCU: 0x222, offset: 0x99926, size: 0x8, addend: 0x0, symName: '__ZN94_$LT$_native..py_results..PyAerialImageResult$u20$as$u20$pyo3..impl_..pyclass..PyClassImpl$GT$3doc3DOC17he6f17b02e46ad649E', symObjAddr: 0x3360, symBinAddr: 0x7C0A80, symSize: 0x0 }
  - { offsetInCU: 0x230, offset: 0x99934, size: 0x8, addend: 0x0, symName: '__ZN94_$LT$_native..py_results..PyAerialImageResult$u20$as$u20$pyo3..impl_..pyclass..PyClassImpl$GT$10items_iter17ha868719b3ef4b763E', symObjAddr: 0x265C, symBinAddr: 0x2A008, symSize: 0x38 }
  - { offsetInCU: 0x26B, offset: 0x9996F, size: 0x8, addend: 0x0, symName: '__ZN94_$LT$_native..py_results..PyAerialImageResult$u20$as$u20$pyo3..impl_..pyclass..PyClassImpl$GT$16lazy_type_object17hf1342e029c1d0d00E', symObjAddr: 0x2694, symBinAddr: 0x2A040, symSize: 0xC }
  - { offsetInCU: 0x288, offset: 0x9998C, size: 0x8, addend: 0x0, symName: '__ZN94_$LT$_native..py_results..PyAerialImageResult$u20$as$u20$pyo3..impl_..pyclass..PyClassImpl$GT$3doc17hffc1eebd804468ccE', symObjAddr: 0x26A0, symBinAddr: 0x2A04C, symSize: 0x3C }
  - { offsetInCU: 0x50F, offset: 0x99C13, size: 0x8, addend: 0x0, symName: '__ZN96_$LT$_native..py_results..PyResistProfileResult$u20$as$u20$pyo3..impl_..pyclass..PyClassImpl$GT$10items_iter15INTRINSIC_ITEMS17h343fa8c8e89f24d1E', symObjAddr: 0x32E0, symBinAddr: 0x6A7298, symSize: 0x0 }
  - { offsetInCU: 0x52F, offset: 0x99C33, size: 0x8, addend: 0x0, symName: '__ZN96_$LT$_native..py_results..PyResistProfileResult$u20$as$u20$pyo3..impl_..pyclass..PyClassImpl$GT$16lazy_type_object11TYPE_OBJECT17hcd67dd488768f7eaE', symObjAddr: 0x3380, symBinAddr: 0x7C0AA0, symSize: 0x0 }
  - { offsetInCU: 0x54F, offset: 0x99C53, size: 0x8, addend: 0x0, symName: '__ZN96_$LT$_native..py_results..PyResistProfileResult$u20$as$u20$pyo3..impl_..pyclass..PyClassImpl$GT$3doc3DOC17h1acaf0cc1fcd3c7aE', symObjAddr: 0x33E0, symBinAddr: 0x7C0B00, symSize: 0x0 }
  - { offsetInCU: 0x55D, offset: 0x99C61, size: 0x8, addend: 0x0, symName: '__ZN96_$LT$_native..py_results..PyResistProfileResult$u20$as$u20$pyo3..impl_..pyclass..PyClassImpl$GT$10items_iter17h114b245c6975da99E', symObjAddr: 0x26DC, symBinAddr: 0x2A088, symSize: 0x38 }
  - { offsetInCU: 0x598, offset: 0x99C9C, size: 0x8, addend: 0x0, symName: '__ZN96_$LT$_native..py_results..PyResistProfileResult$u20$as$u20$pyo3..impl_..pyclass..PyClassImpl$GT$16lazy_type_object17hb4cf8ed536fd68d7E', symObjAddr: 0x2714, symBinAddr: 0x2A0C0, symSize: 0xC }
  - { offsetInCU: 0x5B5, offset: 0x99CB9, size: 0x8, addend: 0x0, symName: '__ZN96_$LT$_native..py_results..PyResistProfileResult$u20$as$u20$pyo3..impl_..pyclass..PyClassImpl$GT$3doc17h1d55d9730aaaf2dbE', symObjAddr: 0x2720, symBinAddr: 0x2A0CC, symSize: 0x3C }
  - { offsetInCU: 0x753, offset: 0x99E57, size: 0x8, addend: 0x0, symName: '__ZN123_$LT$$RF$_native..py_results..PyAerialImageResult$u20$as$u20$pyo3..impl_..extract_argument..PyFunctionArgument$LT$_$GT$$GT$7extract17ha8d31715eb182448E', symObjAddr: 0x0, symBinAddr: 0x279AC, symSize: 0x2C }
  - { offsetInCU: 0x793, offset: 0x99E97, size: 0x8, addend: 0x0, symName: '__ZN125_$LT$$RF$_native..py_results..PyResistProfileResult$u20$as$u20$pyo3..impl_..extract_argument..PyFunctionArgument$LT$_$GT$$GT$7extract17ha0653d2d6bab69eaE', symObjAddr: 0x2C, symBinAddr: 0x279D8, symSize: 0x2C }
  - { offsetInCU: 0x7D3, offset: 0x99ED7, size: 0x8, addend: 0x0, symName: '__ZN90_$LT$_native..py_results..PyAerialImageResult$u20$as$u20$pyo3..type_object..PyTypeInfo$GT$15type_object_raw17h8f24aa4e5eb174beE', symObjAddr: 0x2594, symBinAddr: 0x29F40, symSize: 0x24 }
  - { offsetInCU: 0x810, offset: 0x99F14, size: 0x8, addend: 0x0, symName: '__ZN91_$LT$_native..py_results..PyAerialImageResult$u20$as$u20$pyo3..conversion..IntoPyObject$GT$13into_pyobject17hb51a03830ecb91c1E', symObjAddr: 0x25B8, symBinAddr: 0x29F64, symSize: 0x40 }
  - { offsetInCU: 0x85C, offset: 0x99F60, size: 0x8, addend: 0x0, symName: '__ZN92_$LT$_native..py_results..PyResistProfileResult$u20$as$u20$pyo3..type_object..PyTypeInfo$GT$15type_object_raw17h6c4ddae1506588bbE', symObjAddr: 0x25F8, symBinAddr: 0x29FA4, symSize: 0x24 }
  - { offsetInCU: 0x899, offset: 0x99F9D, size: 0x8, addend: 0x0, symName: '__ZN93_$LT$_native..py_results..PyResistProfileResult$u20$as$u20$pyo3..conversion..IntoPyObject$GT$13into_pyobject17h40f54c081c06f0b0E', symObjAddr: 0x261C, symBinAddr: 0x29FC8, symSize: 0x40 }
  - { offsetInCU: 0x3FFC, offset: 0x9D700, size: 0x8, addend: 0x0, symName: __ZN7_native10py_results19PyAerialImageResult11from_grid2d17h0aa7fa896717abbaE, symObjAddr: 0x58, symBinAddr: 0x27A04, symSize: 0x94 }
  - { offsetInCU: 0x40E1, offset: 0x9D7E5, size: 0x8, addend: 0x0, symName: __ZN7_native10py_results19PyAerialImageResult13cross_section17h7876bd04a86a790dE, symObjAddr: 0xEC, symBinAddr: 0x27A98, symSize: 0x22C }
  - { offsetInCU: 0x41E4, offset: 0x9D8E8, size: 0x8, addend: 0x0, symName: __ZN7_native10py_results19PyAerialImageResult14image_contrast17hcb2728d65110209dE, symObjAddr: 0x318, symBinAddr: 0x27CC4, symSize: 0x24 }
  - { offsetInCU: 0x4206, offset: 0x9D90A, size: 0x8, addend: 0x0, symName: __ZN7_native10py_results19PyAerialImageResult17__pymethod_nils__17hf6102920e4c0d252E, symObjAddr: 0x33C, symBinAddr: 0x27CE8, symSize: 0x38C }
  - { offsetInCU: 0x43A1, offset: 0x9DAA5, size: 0x8, addend: 0x0, symName: __ZN7_native10py_results19PyAerialImageResult19__pymethod___eq____17hfb40a99775051aeaE, symObjAddr: 0x6C8, symBinAddr: 0x28074, symSize: 0x204 }
  - { offsetInCU: 0x444C, offset: 0x9DB50, size: 0x8, addend: 0x0, symName: __ZN7_native10py_results19PyAerialImageResult21__pymethod___repr____17hf419e1df466f4ef2E, symObjAddr: 0x8CC, symBinAddr: 0x28278, symSize: 0x178 }
  - { offsetInCU: 0x4506, offset: 0x9DC0A, size: 0x8, addend: 0x0, symName: __ZN7_native10py_results19PyAerialImageResult21__pymethod_get_x_nm__17h445073344c463b92E, symObjAddr: 0xA44, symBinAddr: 0x283F0, symSize: 0x134 }
  - { offsetInCU: 0x4594, offset: 0x9DC98, size: 0x8, addend: 0x0, symName: __ZN7_native10py_results19PyAerialImageResult21__pymethod_get_y_nm__17hc83a9aa1b56938f1E, symObjAddr: 0xB78, symBinAddr: 0x28524, symSize: 0x134 }
  - { offsetInCU: 0x4622, offset: 0x9DD26, size: 0x8, addend: 0x0, symName: __ZN7_native10py_results19PyAerialImageResult26__pymethod_cross_section__17ha02dbd6e830d156aE, symObjAddr: 0xCAC, symBinAddr: 0x28658, symSize: 0x3FC }
  - { offsetInCU: 0x47B5, offset: 0x9DEB9, size: 0x8, addend: 0x0, symName: __ZN7_native10py_results19PyAerialImageResult26__pymethod_get_intensity__17h69a36392819bddf0E, symObjAddr: 0x10A8, symBinAddr: 0x28A54, symSize: 0x134 }
  - { offsetInCU: 0x4843, offset: 0x9DF47, size: 0x8, addend: 0x0, symName: __ZN7_native10py_results19PyAerialImageResult27__pymethod_image_contrast__17h5b88d1349cea3456E, symObjAddr: 0x11DC, symBinAddr: 0x28B88, symSize: 0x214 }
  - { offsetInCU: 0x4933, offset: 0x9E037, size: 0x8, addend: 0x0, symName: __ZN7_native10py_results19PyAerialImageResult4nils17hee2a88738b6cc692E, symObjAddr: 0x13F0, symBinAddr: 0x28D9C, symSize: 0x180 }
  - { offsetInCU: 0x4A05, offset: 0x9E109, size: 0x8, addend: 0x0, symName: __ZN7_native10py_results19PyAerialImageResult4x_nm17hbc75a79b09ed91bfE, symObjAddr: 0x1570, symBinAddr: 0x28F1C, symSize: 0xCC }
  - { offsetInCU: 0x4A90, offset: 0x9E194, size: 0x8, addend: 0x0, symName: __ZN7_native10py_results19PyAerialImageResult4y_nm17hc9521ce4d6584b27E, symObjAddr: 0x163C, symBinAddr: 0x28FE8, symSize: 0xCC }
  - { offsetInCU: 0x4B1B, offset: 0x9E21F, size: 0x8, addend: 0x0, symName: __ZN7_native10py_results19PyAerialImageResult6__eq__17h672979588c6f737eE, symObjAddr: 0x1708, symBinAddr: 0x290B4, symSize: 0x1D0 }
  - { offsetInCU: 0x4B60, offset: 0x9E264, size: 0x8, addend: 0x0, symName: __ZN7_native10py_results19PyAerialImageResult8__repr__17h574b6c0ad72b151fE, symObjAddr: 0x18D8, symBinAddr: 0x29284, symSize: 0x140 }
  - { offsetInCU: 0x4BDB, offset: 0x9E2DF, size: 0x8, addend: 0x0, symName: __ZN7_native10py_results19PyAerialImageResult9intensity17h1d26ad315eaa35a5E, symObjAddr: 0x1A18, symBinAddr: 0x293C4, symSize: 0x24 }
  - { offsetInCU: 0x4C16, offset: 0x9E31A, size: 0x8, addend: 0x0, symName: '__ZN7_native10py_results200_$LT$impl$u20$pyo3..impl_..pyclass..PyMethods$LT$_native..py_results..PyAerialImageResult$GT$$u20$for$u20$pyo3..impl_..pyclass..PyClassImplCollector$LT$_native..py_results..PyAerialImageResult$GT$$GT$10py_methods5ITEMS58_$LT$impl$u20$_native..py_results..PyAerialImageResult$GT$24__pymethod___richcmp____17hb4a21c00c8ca3e6aE', symObjAddr: 0x1B5C, symBinAddr: 0x29508, symSize: 0x48 }
  - { offsetInCU: 0x4C57, offset: 0x9E35B, size: 0x8, addend: 0x0, symName: '__ZN7_native10py_results204_$LT$impl$u20$pyo3..impl_..pyclass..PyMethods$LT$_native..py_results..PyResistProfileResult$GT$$u20$for$u20$pyo3..impl_..pyclass..PyClassImplCollector$LT$_native..py_results..PyResistProfileResult$GT$$GT$10py_methods5ITEMS60_$LT$impl$u20$_native..py_results..PyResistProfileResult$GT$24__pymethod___richcmp____17ha9cb9e02047db07dE', symObjAddr: 0x1BE0, symBinAddr: 0x2958C, symSize: 0x48 }
  - { offsetInCU: 0x4C98, offset: 0x9E39C, size: 0x8, addend: 0x0, symName: __ZN7_native10py_results21PyResistProfileResult12from_profile17h0f492b5c8bbe9443E, symObjAddr: 0x1C28, symBinAddr: 0x295D4, symSize: 0x54 }
  - { offsetInCU: 0x4CC7, offset: 0x9E3CB, size: 0x8, addend: 0x0, symName: __ZN7_native10py_results21PyResistProfileResult12thickness_nm17h5849cf0e912c7ab7E, symObjAddr: 0x1C7C, symBinAddr: 0x29628, symSize: 0x18 }
  - { offsetInCU: 0x4CE9, offset: 0x9E3ED, size: 0x8, addend: 0x0, symName: __ZN7_native10py_results21PyResistProfileResult19__pymethod___eq____17hb326fa6708b14635E, symObjAddr: 0x1C94, symBinAddr: 0x29640, symSize: 0x204 }
  - { offsetInCU: 0x4D94, offset: 0x9E498, size: 0x8, addend: 0x0, symName: __ZN7_native10py_results21PyResistProfileResult21__pymethod___repr____17h11edd518941999afE, symObjAddr: 0x1E98, symBinAddr: 0x29844, symSize: 0x178 }
  - { offsetInCU: 0x4E4E, offset: 0x9E552, size: 0x8, addend: 0x0, symName: __ZN7_native10py_results21PyResistProfileResult21__pymethod_get_x_nm__17h6ba3b85c8f7a6df5E, symObjAddr: 0x2010, symBinAddr: 0x299BC, symSize: 0x134 }
  - { offsetInCU: 0x4EDC, offset: 0x9E5E0, size: 0x8, addend: 0x0, symName: __ZN7_native10py_results21PyResistProfileResult26__pymethod_get_height_nm__17hdaac9d32759280c6E, symObjAddr: 0x2144, symBinAddr: 0x29AF0, symSize: 0x134 }
  - { offsetInCU: 0x4F6A, offset: 0x9E66E, size: 0x8, addend: 0x0, symName: __ZN7_native10py_results21PyResistProfileResult29__pymethod_get_thickness_nm__17h384379289918e8ddE, symObjAddr: 0x2278, symBinAddr: 0x29C24, symSize: 0x134 }
  - { offsetInCU: 0x4FF8, offset: 0x9E6FC, size: 0x8, addend: 0x0, symName: __ZN7_native10py_results21PyResistProfileResult4x_nm17hce9b152c52f19694E, symObjAddr: 0x23AC, symBinAddr: 0x29D58, symSize: 0x28 }
  - { offsetInCU: 0x5033, offset: 0x9E737, size: 0x8, addend: 0x0, symName: __ZN7_native10py_results21PyResistProfileResult6__eq__17h23af3b32e1531438E, symObjAddr: 0x23D4, symBinAddr: 0x29D80, symSize: 0xFC }
  - { offsetInCU: 0x5063, offset: 0x9E767, size: 0x8, addend: 0x0, symName: __ZN7_native10py_results21PyResistProfileResult8__repr__17h74269f72c756e271E, symObjAddr: 0x24D0, symBinAddr: 0x29E7C, symSize: 0x9C }
  - { offsetInCU: 0x50DD, offset: 0x9E7E1, size: 0x8, addend: 0x0, symName: __ZN7_native10py_results21PyResistProfileResult9height_nm17h35fa0e4027417893E, symObjAddr: 0x256C, symBinAddr: 0x29F18, symSize: 0x28 }
  - { offsetInCU: 0x1E, offset: 0x9EA51, size: 0x8, addend: 0x0, symName: '__ZN102_$LT$core..iter..adapters..zip..Zip$LT$A$C$B$GT$$u20$as$u20$core..iter..traits..iterator..Iterator$GT$4next17h8b0f17bc0e0b7675E', symObjAddr: 0x0, symBinAddr: 0x2A108, symSize: 0x24 }
  - { offsetInCU: 0x853, offset: 0x9F286, size: 0x8, addend: 0x0, symName: '__ZN102_$LT$core..iter..adapters..zip..Zip$LT$A$C$B$GT$$u20$as$u20$core..iter..traits..iterator..Iterator$GT$4next17h8b0f17bc0e0b7675E', symObjAddr: 0x0, symBinAddr: 0x2A108, symSize: 0x24 }
  - { offsetInCU: 0x891, offset: 0x9F2C4, size: 0x8, addend: 0x0, symName: '__ZN102_$LT$core..iter..adapters..zip..Zip$LT$A$C$B$GT$$u20$as$u20$core..iter..traits..iterator..Iterator$GT$4next17hc43cda0c524290a3E', symObjAddr: 0x24, symBinAddr: 0x2A12C, symSize: 0x24 }
  - { offsetInCU: 0x8D5, offset: 0x9F308, size: 0x8, addend: 0x0, symName: '__ZN111_$LT$core..iter..adapters..zip..Zip$LT$A$C$B$GT$$u20$as$u20$core..iter..adapters..zip..ZipImpl$LT$A$C$B$GT$$GT$3new17h73b793b1c1dd01fcE', symObjAddr: 0x48, symBinAddr: 0x2A150, symSize: 0x3C }
  - { offsetInCU: 0x921, offset: 0x9F354, size: 0x8, addend: 0x0, symName: '__ZN111_$LT$core..iter..adapters..zip..Zip$LT$A$C$B$GT$$u20$as$u20$core..iter..adapters..zip..ZipImpl$LT$A$C$B$GT$$GT$3new17hce6c44417534f308E', symObjAddr: 0x84, symBinAddr: 0x2A18C, symSize: 0x64 }
  - { offsetInCU: 0x96F, offset: 0x9F3A2, size: 0x8, addend: 0x0, symName: '__ZN111_$LT$core..iter..adapters..zip..Zip$LT$A$C$B$GT$$u20$as$u20$core..iter..adapters..zip..ZipImpl$LT$A$C$B$GT$$GT$4next17h13901e5577a52a9cE', symObjAddr: 0xE8, symBinAddr: 0x2A1F0, symSize: 0xE0 }
  - { offsetInCU: 0xAD0, offset: 0x9F503, size: 0x8, addend: 0x0, symName: '__ZN111_$LT$core..iter..adapters..zip..Zip$LT$A$C$B$GT$$u20$as$u20$core..iter..adapters..zip..ZipImpl$LT$A$C$B$GT$$GT$4next17h3ca0897e558be8f5E', symObjAddr: 0x1C8, symBinAddr: 0x2A2D0, symSize: 0xE0 }
  - { offsetInCU: 0xD93, offset: 0x9F7C6, size: 0x8, addend: 0x0, symName: __ZN4core4iter6traits8iterator8Iterator3all17hd96dc6e2f135915dE, symObjAddr: 0x2A8, symBinAddr: 0x2A3B0, symSize: 0x3C }
  - { offsetInCU: 0xDE2, offset: 0x9F815, size: 0x8, addend: 0x0, symName: __ZN4core4iter6traits8iterator8Iterator3all17hda3ba60bc9381582E, symObjAddr: 0x2E4, symBinAddr: 0x2A3EC, symSize: 0x3C }
  - { offsetInCU: 0xE31, offset: 0x9F864, size: 0x8, addend: 0x0, symName: __ZN4core4iter6traits8iterator8Iterator8try_fold17h3837d059c7042277E, symObjAddr: 0x320, symBinAddr: 0x2A428, symSize: 0x140 }
  - { offsetInCU: 0xEE4, offset: 0x9F917, size: 0x8, addend: 0x0, symName: __ZN4core4iter6traits8iterator8Iterator8try_fold17he07afbb749720c1dE, symObjAddr: 0x460, symBinAddr: 0x2A568, symSize: 0x140 }
  - { offsetInCU: 0xFD5, offset: 0x9FA08, size: 0x8, addend: 0x0, symName: '__ZN63_$LT$I$u20$as$u20$core..iter..traits..collect..IntoIterator$GT$9into_iter17h16edb2d3f520e6a5E', symObjAddr: 0x5A0, symBinAddr: 0x2A6A8, symSize: 0x30 }
  - { offsetInCU: 0x100D, offset: 0x9FA40, size: 0x8, addend: 0x0, symName: '__ZN63_$LT$I$u20$as$u20$core..iter..traits..collect..IntoIterator$GT$9into_iter17h934c534a03276fefE', symObjAddr: 0x5D0, symBinAddr: 0x2A6D8, symSize: 0x30 }
  - { offsetInCU: 0x1E, offset: 0xA141B, size: 0x8, addend: 0x0, symName: '__ZN102_$LT$$RF$mut$u20$alloc..vec..Vec$LT$T$C$A$GT$$u20$as$u20$core..iter..traits..collect..IntoIterator$GT$9into_iter17hf2a252ee6b4f4caaE', symObjAddr: 0x0, symBinAddr: 0x2A708, symSize: 0x68 }
  - { offsetInCU: 0x17EC, offset: 0xA2BE9, size: 0x8, addend: 0x0, symName: '__ZN4core5slice29_$LT$impl$u20$$u5b$T$u5d$$GT$4iter17h1553c00a6f7aff07E', symObjAddr: 0xD7C, symBinAddr: 0x2B484, symSize: 0x28 }
  - { offsetInCU: 0x3885, offset: 0xA4C82, size: 0x8, addend: 0x0, symName: '__ZN102_$LT$$RF$mut$u20$alloc..vec..Vec$LT$T$C$A$GT$$u20$as$u20$core..iter..traits..collect..IntoIterator$GT$9into_iter17hf2a252ee6b4f4caaE', symObjAddr: 0x0, symBinAddr: 0x2A708, symSize: 0x68 }
  - { offsetInCU: 0x3DB0, offset: 0xA51AD, size: 0x8, addend: 0x0, symName: '__ZN111_$LT$alloc..vec..Vec$LT$T$GT$$u20$as$u20$alloc..vec..spec_from_iter_nested..SpecFromIterNested$LT$T$C$I$GT$$GT$9from_iter17h0528040f5aaa8e41E', symObjAddr: 0x68, symBinAddr: 0x2A770, symSize: 0x130 }
  - { offsetInCU: 0x3E72, offset: 0xA526F, size: 0x8, addend: 0x0, symName: '__ZN111_$LT$alloc..vec..Vec$LT$T$GT$$u20$as$u20$alloc..vec..spec_from_iter_nested..SpecFromIterNested$LT$T$C$I$GT$$GT$9from_iter17h22027c495e3c8abdE', symObjAddr: 0x198, symBinAddr: 0x2A8A0, symSize: 0x130 }
  - { offsetInCU: 0x3F34, offset: 0xA5331, size: 0x8, addend: 0x0, symName: '__ZN111_$LT$alloc..vec..Vec$LT$T$GT$$u20$as$u20$alloc..vec..spec_from_iter_nested..SpecFromIterNested$LT$T$C$I$GT$$GT$9from_iter17h2c9547f45d540bf2E', symObjAddr: 0x2C8, symBinAddr: 0x2A9D0, symSize: 0x130 }
  - { offsetInCU: 0x3FF6, offset: 0xA53F3, size: 0x8, addend: 0x0, symName: '__ZN111_$LT$alloc..vec..Vec$LT$T$GT$$u20$as$u20$alloc..vec..spec_from_iter_nested..SpecFromIterNested$LT$T$C$I$GT$$GT$9from_iter17h2fb643fcbe9e767aE', symObjAddr: 0x3F8, symBinAddr: 0x2AB00, symSize: 0x130 }
  - { offsetInCU: 0x40B8, offset: 0xA54B5, size: 0x8, addend: 0x0, symName: '__ZN111_$LT$alloc..vec..Vec$LT$T$GT$$u20$as$u20$alloc..vec..spec_from_iter_nested..SpecFromIterNested$LT$T$C$I$GT$$GT$9from_iter17h55a734891caa2acbE', symObjAddr: 0x528, symBinAddr: 0x2AC30, symSize: 0x130 }
  - { offsetInCU: 0x417A, offset: 0xA5577, size: 0x8, addend: 0x0, symName: '__ZN111_$LT$alloc..vec..Vec$LT$T$GT$$u20$as$u20$alloc..vec..spec_from_iter_nested..SpecFromIterNested$LT$T$C$I$GT$$GT$9from_iter17h7f9bfadcf5a2b6e3E', symObjAddr: 0x658, symBinAddr: 0x2AD60, symSize: 0x130 }
  - { offsetInCU: 0x423C, offset: 0xA5639, size: 0x8, addend: 0x0, symName: '__ZN111_$LT$alloc..vec..Vec$LT$T$GT$$u20$as$u20$alloc..vec..spec_from_iter_nested..SpecFromIterNested$LT$T$C$I$GT$$GT$9from_iter17haa08d2e184f78457E', symObjAddr: 0x788, symBinAddr: 0x2AE90, symSize: 0x130 }
  - { offsetInCU: 0x42FE, offset: 0xA56FB, size: 0x8, addend: 0x0, symName: '__ZN111_$LT$alloc..vec..Vec$LT$T$GT$$u20$as$u20$alloc..vec..spec_from_iter_nested..SpecFromIterNested$LT$T$C$I$GT$$GT$9from_iter17hc40525bf07c489c5E', symObjAddr: 0x8B8, symBinAddr: 0x2AFC0, symSize: 0x130 }
  - { offsetInCU: 0x43C0, offset: 0xA57BD, size: 0x8, addend: 0x0, symName: '__ZN111_$LT$alloc..vec..Vec$LT$T$GT$$u20$as$u20$alloc..vec..spec_from_iter_nested..SpecFromIterNested$LT$T$C$I$GT$$GT$9from_iter17hdbe86b51b8a08073E', symObjAddr: 0x9E8, symBinAddr: 0x2B0F0, symSize: 0x130 }
  - { offsetInCU: 0x4482, offset: 0xA587F, size: 0x8, addend: 0x0, symName: '__ZN111_$LT$alloc..vec..Vec$LT$T$GT$$u20$as$u20$alloc..vec..spec_from_iter_nested..SpecFromIterNested$LT$T$C$I$GT$$GT$9from_iter17he56bb92676039d4eE', symObjAddr: 0xB18, symBinAddr: 0x2B220, symSize: 0x134 }
  - { offsetInCU: 0x4544, offset: 0xA5941, size: 0x8, addend: 0x0, symName: '__ZN111_$LT$alloc..vec..Vec$LT$T$GT$$u20$as$u20$alloc..vec..spec_from_iter_nested..SpecFromIterNested$LT$T$C$I$GT$$GT$9from_iter17hffcb3082791a9322E', symObjAddr: 0xC4C, symBinAddr: 0x2B354, symSize: 0x130 }
  - { offsetInCU: 0x4AFE, offset: 0xA5EFB, size: 0x8, addend: 0x0, symName: '__ZN5alloc3vec16Vec$LT$T$C$A$GT$14extend_trusted28_$u7b$$u7b$closure$u7d$$u7d$17h0cf65707ae6e842cE', symObjAddr: 0x2108, symBinAddr: 0x2C810, symSize: 0x30 }
  - { offsetInCU: 0x4BA6, offset: 0xA5FA3, size: 0x8, addend: 0x0, symName: '__ZN5alloc3vec16Vec$LT$T$C$A$GT$14extend_trusted28_$u7b$$u7b$closure$u7d$$u7d$17h3b3dce101f84cb30E', symObjAddr: 0x2138, symBinAddr: 0x2C840, symSize: 0x30 }
  - { offsetInCU: 0x4C4E, offset: 0xA604B, size: 0x8, addend: 0x0, symName: '__ZN5alloc3vec16Vec$LT$T$C$A$GT$14extend_trusted28_$u7b$$u7b$closure$u7d$$u7d$17h3d96af1cb03417efE', symObjAddr: 0x2168, symBinAddr: 0x2C870, symSize: 0x30 }
  - { offsetInCU: 0x4CF6, offset: 0xA60F3, size: 0x8, addend: 0x0, symName: '__ZN5alloc3vec16Vec$LT$T$C$A$GT$14extend_trusted28_$u7b$$u7b$closure$u7d$$u7d$17h56bc86292d011035E', symObjAddr: 0x2198, symBinAddr: 0x2C8A0, symSize: 0x30 }
  - { offsetInCU: 0x4D9E, offset: 0xA619B, size: 0x8, addend: 0x0, symName: '__ZN5alloc3vec16Vec$LT$T$C$A$GT$14extend_trusted28_$u7b$$u7b$closure$u7d$$u7d$17h65c5d97662ed945fE', symObjAddr: 0x21C8, symBinAddr: 0x2C8D0, symSize: 0x30 }
  - { offsetInCU: 0x4E46, offset: 0xA6243, size: 0x8, addend: 0x0, symName: '__ZN5alloc3vec16Vec$LT$T$C$A$GT$14extend_trusted28_$u7b$$u7b$closure$u7d$$u7d$17h77cc044f7770d6b7E', symObjAddr: 0x21F8, symBinAddr: 0x2C900, symSize: 0x3C }
  - { offsetInCU: 0x4F03, offset: 0xA6300, size: 0x8, addend: 0x0, symName: '__ZN5alloc3vec16Vec$LT$T$C$A$GT$14extend_trusted28_$u7b$$u7b$closure$u7d$$u7d$17h8a028b0f5e63a114E', symObjAddr: 0x2234, symBinAddr: 0x2C93C, symSize: 0x30 }
  - { offsetInCU: 0x4FAB, offset: 0xA63A8, size: 0x8, addend: 0x0, symName: '__ZN5alloc3vec16Vec$LT$T$C$A$GT$14extend_trusted28_$u7b$$u7b$closure$u7d$$u7d$17ha07d51ee088b8242E', symObjAddr: 0x2264, symBinAddr: 0x2C96C, symSize: 0x30 }
  - { offsetInCU: 0x5053, offset: 0xA6450, size: 0x8, addend: 0x0, symName: '__ZN5alloc3vec16Vec$LT$T$C$A$GT$14extend_trusted28_$u7b$$u7b$closure$u7d$$u7d$17hc56dda761d46d366E', symObjAddr: 0x2294, symBinAddr: 0x2C99C, symSize: 0x30 }
  - { offsetInCU: 0x50FB, offset: 0xA64F8, size: 0x8, addend: 0x0, symName: '__ZN5alloc3vec16Vec$LT$T$C$A$GT$14extend_trusted28_$u7b$$u7b$closure$u7d$$u7d$17hd8953085cf285928E', symObjAddr: 0x22C4, symBinAddr: 0x2C9CC, symSize: 0x30 }
  - { offsetInCU: 0x51A3, offset: 0xA65A0, size: 0x8, addend: 0x0, symName: '__ZN5alloc3vec16Vec$LT$T$C$A$GT$14extend_trusted28_$u7b$$u7b$closure$u7d$$u7d$17hdc250b6336590427E', symObjAddr: 0x22F4, symBinAddr: 0x2C9FC, symSize: 0x30 }
  - { offsetInCU: 0x54E7, offset: 0xA68E4, size: 0x8, addend: 0x0, symName: '__ZN5alloc3vec16in_place_collect108_$LT$impl$u20$alloc..vec..spec_from_iter..SpecFromIter$LT$T$C$I$GT$$u20$for$u20$alloc..vec..Vec$LT$T$GT$$GT$9from_iter17h6e8d6e12c86e6f0cE', symObjAddr: 0x2A24, symBinAddr: 0x2D12C, symSize: 0x28 }
  - { offsetInCU: 0x55AA, offset: 0xA69A7, size: 0x8, addend: 0x0, symName: '__ZN72_$LT$alloc..vec..Vec$LT$T$C$A$GT$$u20$as$u20$core..ops..deref..Deref$GT$5deref17h9666a33aa4ce3056E', symObjAddr: 0x2AE4, symBinAddr: 0x2D1EC, symSize: 0x20 }
  - { offsetInCU: 0x5667, offset: 0xA6A64, size: 0x8, addend: 0x0, symName: '__ZN72_$LT$alloc..vec..Vec$LT$T$C$A$GT$$u20$as$u20$core..ops..deref..Deref$GT$5deref17hf056ddcb19232a88E', symObjAddr: 0x2B04, symBinAddr: 0x2D20C, symSize: 0x20 }
  - { offsetInCU: 0x57BA, offset: 0xA6BB7, size: 0x8, addend: 0x0, symName: '__ZN67_$LT$alloc..vec..Vec$LT$T$C$A$GT$$u20$as$u20$core..clone..Clone$GT$5clone17h1fe8223252353618E', symObjAddr: 0x2A4C, symBinAddr: 0x2D154, symSize: 0x4C }
  - { offsetInCU: 0x5922, offset: 0xA6D1F, size: 0x8, addend: 0x0, symName: '__ZN67_$LT$alloc..vec..Vec$LT$T$C$A$GT$$u20$as$u20$core..clone..Clone$GT$5clone17hd40738e01a177b4dE', symObjAddr: 0x2A98, symBinAddr: 0x2D1A0, symSize: 0x4C }
  - { offsetInCU: 0x5B3B, offset: 0xA6F38, size: 0x8, addend: 0x0, symName: '__ZN90_$LT$alloc..vec..Vec$LT$T$C$A$GT$$u20$as$u20$core..iter..traits..collect..IntoIterator$GT$9into_iter17h15e063766616a40aE', symObjAddr: 0x2B4C, symBinAddr: 0x2D254, symSize: 0xA8 }
  - { offsetInCU: 0x5D32, offset: 0xA712F, size: 0x8, addend: 0x0, symName: '__ZN90_$LT$alloc..vec..Vec$LT$T$C$A$GT$$u20$as$u20$core..iter..traits..collect..IntoIterator$GT$9into_iter17h73a8afc0a2cc7dc1E', symObjAddr: 0x2BF4, symBinAddr: 0x2D2FC, symSize: 0xB0 }
  - { offsetInCU: 0x5F29, offset: 0xA7326, size: 0x8, addend: 0x0, symName: '__ZN90_$LT$alloc..vec..Vec$LT$T$C$A$GT$$u20$as$u20$core..iter..traits..collect..IntoIterator$GT$9into_iter17h9e32c61a480b6377E', symObjAddr: 0x2CA4, symBinAddr: 0x2D3AC, symSize: 0xA8 }
  - { offsetInCU: 0x6120, offset: 0xA751D, size: 0x8, addend: 0x0, symName: '__ZN90_$LT$alloc..vec..Vec$LT$T$C$A$GT$$u20$as$u20$core..iter..traits..collect..IntoIterator$GT$9into_iter17he23fdb0e7a76855bE', symObjAddr: 0x2D4C, symBinAddr: 0x2D454, symSize: 0xA8 }
  - { offsetInCU: 0x63D3, offset: 0xA77D0, size: 0x8, addend: 0x0, symName: '__ZN94_$LT$$RF$alloc..vec..Vec$LT$T$C$A$GT$$u20$as$u20$core..iter..traits..collect..IntoIterator$GT$9into_iter17h75fdfc4b3d498cd3E', symObjAddr: 0x2DF4, symBinAddr: 0x2D4FC, symSize: 0x68 }
  - { offsetInCU: 0x65B8, offset: 0xA79B5, size: 0x8, addend: 0x0, symName: '__ZN94_$LT$$RF$alloc..vec..Vec$LT$T$C$A$GT$$u20$as$u20$core..iter..traits..collect..IntoIterator$GT$9into_iter17h99c6cf093dc1fa8bE', symObjAddr: 0x2E5C, symBinAddr: 0x2D564, symSize: 0x60 }
  - { offsetInCU: 0x679D, offset: 0xA7B9A, size: 0x8, addend: 0x0, symName: '__ZN94_$LT$$RF$alloc..vec..Vec$LT$T$C$A$GT$$u20$as$u20$core..iter..traits..collect..IntoIterator$GT$9into_iter17hd1ec424c6d97c94eE', symObjAddr: 0x2EBC, symBinAddr: 0x2D5C4, symSize: 0x60 }
  - { offsetInCU: 0x6988, offset: 0xA7D85, size: 0x8, addend: 0x0, symName: '__ZN95_$LT$alloc..vec..Vec$LT$T$GT$$u20$as$u20$core..iter..traits..collect..FromIterator$LT$T$GT$$GT$9from_iter17h24e6724f879e6156E', symObjAddr: 0x2F1C, symBinAddr: 0x2D624, symSize: 0x34 }
  - { offsetInCU: 0x69C9, offset: 0xA7DC6, size: 0x8, addend: 0x0, symName: '__ZN95_$LT$alloc..vec..Vec$LT$T$GT$$u20$as$u20$core..iter..traits..collect..FromIterator$LT$T$GT$$GT$9from_iter17h2960ba916edc7d7eE', symObjAddr: 0x2F50, symBinAddr: 0x2D658, symSize: 0x34 }
  - { offsetInCU: 0x6A0A, offset: 0xA7E07, size: 0x8, addend: 0x0, symName: '__ZN95_$LT$alloc..vec..Vec$LT$T$GT$$u20$as$u20$core..iter..traits..collect..FromIterator$LT$T$GT$$GT$9from_iter17h395a8cb2a41ef0ecE', symObjAddr: 0x2F84, symBinAddr: 0x2D68C, symSize: 0x34 }
  - { offsetInCU: 0x6A4B, offset: 0xA7E48, size: 0x8, addend: 0x0, symName: '__ZN95_$LT$alloc..vec..Vec$LT$T$GT$$u20$as$u20$core..iter..traits..collect..FromIterator$LT$T$GT$$GT$9from_iter17h3ce810a0edd85fbaE', symObjAddr: 0x2FB8, symBinAddr: 0x2D6C0, symSize: 0x34 }
  - { offsetInCU: 0x6A8C, offset: 0xA7E89, size: 0x8, addend: 0x0, symName: '__ZN95_$LT$alloc..vec..Vec$LT$T$GT$$u20$as$u20$core..iter..traits..collect..FromIterator$LT$T$GT$$GT$9from_iter17h75eea887eb9534bfE', symObjAddr: 0x2FEC, symBinAddr: 0x2D6F4, symSize: 0x34 }
  - { offsetInCU: 0x6ACD, offset: 0xA7ECA, size: 0x8, addend: 0x0, symName: '__ZN95_$LT$alloc..vec..Vec$LT$T$GT$$u20$as$u20$core..iter..traits..collect..FromIterator$LT$T$GT$$GT$9from_iter17h943a9efe899d436fE', symObjAddr: 0x3020, symBinAddr: 0x2D728, symSize: 0x34 }
  - { offsetInCU: 0x6B0E, offset: 0xA7F0B, size: 0x8, addend: 0x0, symName: '__ZN95_$LT$alloc..vec..Vec$LT$T$GT$$u20$as$u20$core..iter..traits..collect..FromIterator$LT$T$GT$$GT$9from_iter17h9edfe469976185baE', symObjAddr: 0x3054, symBinAddr: 0x2D75C, symSize: 0x34 }
  - { offsetInCU: 0x6B4F, offset: 0xA7F4C, size: 0x8, addend: 0x0, symName: '__ZN95_$LT$alloc..vec..Vec$LT$T$GT$$u20$as$u20$core..iter..traits..collect..FromIterator$LT$T$GT$$GT$9from_iter17h9effd4c6b3a848edE', symObjAddr: 0x3088, symBinAddr: 0x2D790, symSize: 0x34 }
  - { offsetInCU: 0x6B90, offset: 0xA7F8D, size: 0x8, addend: 0x0, symName: '__ZN95_$LT$alloc..vec..Vec$LT$T$GT$$u20$as$u20$core..iter..traits..collect..FromIterator$LT$T$GT$$GT$9from_iter17haad5268359d9e228E', symObjAddr: 0x30BC, symBinAddr: 0x2D7C4, symSize: 0x34 }
  - { offsetInCU: 0x6BD1, offset: 0xA7FCE, size: 0x8, addend: 0x0, symName: '__ZN95_$LT$alloc..vec..Vec$LT$T$GT$$u20$as$u20$core..iter..traits..collect..FromIterator$LT$T$GT$$GT$9from_iter17hb93e7fe8adbb0738E', symObjAddr: 0x30F0, symBinAddr: 0x2D7F8, symSize: 0x34 }
  - { offsetInCU: 0x6C12, offset: 0xA800F, size: 0x8, addend: 0x0, symName: '__ZN95_$LT$alloc..vec..Vec$LT$T$GT$$u20$as$u20$core..iter..traits..collect..FromIterator$LT$T$GT$$GT$9from_iter17hbb805370e0374b77E', symObjAddr: 0x3124, symBinAddr: 0x2D82C, symSize: 0x34 }
  - { offsetInCU: 0x6C53, offset: 0xA8050, size: 0x8, addend: 0x0, symName: '__ZN95_$LT$alloc..vec..Vec$LT$T$GT$$u20$as$u20$core..iter..traits..collect..FromIterator$LT$T$GT$$GT$9from_iter17hdb93d8415f755a06E', symObjAddr: 0x3158, symBinAddr: 0x2D860, symSize: 0x34 }
  - { offsetInCU: 0x6C9F, offset: 0xA809C, size: 0x8, addend: 0x0, symName: '__ZN97_$LT$alloc..vec..Vec$LT$T$C$A$GT$$u20$as$u20$alloc..vec..spec_extend..SpecExtend$LT$T$C$I$GT$$GT$11spec_extend17h00fc07601fb9ea11E', symObjAddr: 0x318C, symBinAddr: 0x2D894, symSize: 0x24 }
  - { offsetInCU: 0x6CF1, offset: 0xA80EE, size: 0x8, addend: 0x0, symName: '__ZN97_$LT$alloc..vec..Vec$LT$T$C$A$GT$$u20$as$u20$alloc..vec..spec_extend..SpecExtend$LT$T$C$I$GT$$GT$11spec_extend17h18cfb3fb20058e37E', symObjAddr: 0x31B0, symBinAddr: 0x2D8B8, symSize: 0x24 }
  - { offsetInCU: 0x6D43, offset: 0xA8140, size: 0x8, addend: 0x0, symName: '__ZN97_$LT$alloc..vec..Vec$LT$T$C$A$GT$$u20$as$u20$alloc..vec..spec_extend..SpecExtend$LT$T$C$I$GT$$GT$11spec_extend17h1db0337c4dd0071eE', symObjAddr: 0x31D4, symBinAddr: 0x2D8DC, symSize: 0x24 }
  - { offsetInCU: 0x6D95, offset: 0xA8192, size: 0x8, addend: 0x0, symName: '__ZN97_$LT$alloc..vec..Vec$LT$T$C$A$GT$$u20$as$u20$alloc..vec..spec_extend..SpecExtend$LT$T$C$I$GT$$GT$11spec_extend17h2d5a8f92599667bbE', symObjAddr: 0x31F8, symBinAddr: 0x2D900, symSize: 0x24 }
  - { offsetInCU: 0x6DE7, offset: 0xA81E4, size: 0x8, addend: 0x0, symName: '__ZN97_$LT$alloc..vec..Vec$LT$T$C$A$GT$$u20$as$u20$alloc..vec..spec_extend..SpecExtend$LT$T$C$I$GT$$GT$11spec_extend17h41df9c2e6a875573E', symObjAddr: 0x321C, symBinAddr: 0x2D924, symSize: 0x24 }
  - { offsetInCU: 0x6E39, offset: 0xA8236, size: 0x8, addend: 0x0, symName: '__ZN97_$LT$alloc..vec..Vec$LT$T$C$A$GT$$u20$as$u20$alloc..vec..spec_extend..SpecExtend$LT$T$C$I$GT$$GT$11spec_extend17h8abd2f6a09c22834E', symObjAddr: 0x3240, symBinAddr: 0x2D948, symSize: 0x24 }
  - { offsetInCU: 0x6E8B, offset: 0xA8288, size: 0x8, addend: 0x0, symName: '__ZN97_$LT$alloc..vec..Vec$LT$T$C$A$GT$$u20$as$u20$alloc..vec..spec_extend..SpecExtend$LT$T$C$I$GT$$GT$11spec_extend17h953cf0533d7e30ceE', symObjAddr: 0x3264, symBinAddr: 0x2D96C, symSize: 0x24 }
  - { offsetInCU: 0x6EDD, offset: 0xA82DA, size: 0x8, addend: 0x0, symName: '__ZN97_$LT$alloc..vec..Vec$LT$T$C$A$GT$$u20$as$u20$alloc..vec..spec_extend..SpecExtend$LT$T$C$I$GT$$GT$11spec_extend17ha8392abec6e6f309E', symObjAddr: 0x3288, symBinAddr: 0x2D990, symSize: 0x24 }
  - { offsetInCU: 0x6F2F, offset: 0xA832C, size: 0x8, addend: 0x0, symName: '__ZN97_$LT$alloc..vec..Vec$LT$T$C$A$GT$$u20$as$u20$alloc..vec..spec_extend..SpecExtend$LT$T$C$I$GT$$GT$11spec_extend17hda3172dce82dc341E', symObjAddr: 0x32AC, symBinAddr: 0x2D9B4, symSize: 0x24 }
  - { offsetInCU: 0x6F81, offset: 0xA837E, size: 0x8, addend: 0x0, symName: '__ZN97_$LT$alloc..vec..Vec$LT$T$C$A$GT$$u20$as$u20$alloc..vec..spec_extend..SpecExtend$LT$T$C$I$GT$$GT$11spec_extend17hdb82f08a8d9b241fE', symObjAddr: 0x32D0, symBinAddr: 0x2D9D8, symSize: 0x24 }
  - { offsetInCU: 0x6FD3, offset: 0xA83D0, size: 0x8, addend: 0x0, symName: '__ZN97_$LT$alloc..vec..Vec$LT$T$C$A$GT$$u20$as$u20$alloc..vec..spec_extend..SpecExtend$LT$T$C$I$GT$$GT$11spec_extend17he8fe509b051c6beeE', symObjAddr: 0x32F4, symBinAddr: 0x2D9FC, symSize: 0x24 }
  - { offsetInCU: 0x7031, offset: 0xA842E, size: 0x8, addend: 0x0, symName: '__ZN98_$LT$alloc..vec..Vec$LT$T$GT$$u20$as$u20$alloc..vec..spec_from_iter..SpecFromIter$LT$T$C$I$GT$$GT$9from_iter17h0ef919fde153b4ddE', symObjAddr: 0x3318, symBinAddr: 0x2DA20, symSize: 0x14 }
  - { offsetInCU: 0x7070, offset: 0xA846D, size: 0x8, addend: 0x0, symName: '__ZN98_$LT$alloc..vec..Vec$LT$T$GT$$u20$as$u20$alloc..vec..spec_from_iter..SpecFromIter$LT$T$C$I$GT$$GT$9from_iter17h16daf7e12065d6c4E', symObjAddr: 0x332C, symBinAddr: 0x2DA34, symSize: 0x14 }
  - { offsetInCU: 0x70AF, offset: 0xA84AC, size: 0x8, addend: 0x0, symName: '__ZN98_$LT$alloc..vec..Vec$LT$T$GT$$u20$as$u20$alloc..vec..spec_from_iter..SpecFromIter$LT$T$C$I$GT$$GT$9from_iter17h40069848e7cb38dcE', symObjAddr: 0x3340, symBinAddr: 0x2DA48, symSize: 0x14 }
  - { offsetInCU: 0x70EE, offset: 0xA84EB, size: 0x8, addend: 0x0, symName: '__ZN98_$LT$alloc..vec..Vec$LT$T$GT$$u20$as$u20$alloc..vec..spec_from_iter..SpecFromIter$LT$T$C$I$GT$$GT$9from_iter17h4325236ad8eb5bf2E', symObjAddr: 0x3354, symBinAddr: 0x2DA5C, symSize: 0x14 }
  - { offsetInCU: 0x712D, offset: 0xA852A, size: 0x8, addend: 0x0, symName: '__ZN98_$LT$alloc..vec..Vec$LT$T$GT$$u20$as$u20$alloc..vec..spec_from_iter..SpecFromIter$LT$T$C$I$GT$$GT$9from_iter17h452c4c08264df8f2E', symObjAddr: 0x3368, symBinAddr: 0x2DA70, symSize: 0x14 }
  - { offsetInCU: 0x716C, offset: 0xA8569, size: 0x8, addend: 0x0, symName: '__ZN98_$LT$alloc..vec..Vec$LT$T$GT$$u20$as$u20$alloc..vec..spec_from_iter..SpecFromIter$LT$T$C$I$GT$$GT$9from_iter17h50a16221ba74f934E', symObjAddr: 0x337C, symBinAddr: 0x2DA84, symSize: 0x14 }
  - { offsetInCU: 0x71AB, offset: 0xA85A8, size: 0x8, addend: 0x0, symName: '__ZN98_$LT$alloc..vec..Vec$LT$T$GT$$u20$as$u20$alloc..vec..spec_from_iter..SpecFromIter$LT$T$C$I$GT$$GT$9from_iter17h6940f21e04a8f14fE', symObjAddr: 0x3390, symBinAddr: 0x2DA98, symSize: 0x14 }
  - { offsetInCU: 0x71EA, offset: 0xA85E7, size: 0x8, addend: 0x0, symName: '__ZN98_$LT$alloc..vec..Vec$LT$T$GT$$u20$as$u20$alloc..vec..spec_from_iter..SpecFromIter$LT$T$C$I$GT$$GT$9from_iter17h7a6877c0f393effaE', symObjAddr: 0x33A4, symBinAddr: 0x2DAAC, symSize: 0x14 }
  - { offsetInCU: 0x7229, offset: 0xA8626, size: 0x8, addend: 0x0, symName: '__ZN98_$LT$alloc..vec..Vec$LT$T$GT$$u20$as$u20$alloc..vec..spec_from_iter..SpecFromIter$LT$T$C$I$GT$$GT$9from_iter17h9888a4dacdd1a451E', symObjAddr: 0x33B8, symBinAddr: 0x2DAC0, symSize: 0x14 }
  - { offsetInCU: 0x7268, offset: 0xA8665, size: 0x8, addend: 0x0, symName: '__ZN98_$LT$alloc..vec..Vec$LT$T$GT$$u20$as$u20$alloc..vec..spec_from_iter..SpecFromIter$LT$T$C$I$GT$$GT$9from_iter17he58608cce57f49b4E', symObjAddr: 0x33CC, symBinAddr: 0x2DAD4, symSize: 0x14 }
  - { offsetInCU: 0x72A7, offset: 0xA86A4, size: 0x8, addend: 0x0, symName: '__ZN98_$LT$alloc..vec..Vec$LT$T$GT$$u20$as$u20$alloc..vec..spec_from_iter..SpecFromIter$LT$T$C$I$GT$$GT$9from_iter17hede82622c980a504E', symObjAddr: 0x33E0, symBinAddr: 0x2DAE8, symSize: 0x14 }
  - { offsetInCU: 0x7CD3, offset: 0xA90D0, size: 0x8, addend: 0x0, symName: __ZN4pyo310conversion15IntoPyObjectExt17into_bound_py_any17h3054552cb2cc369cE, symObjAddr: 0xDA4, symBinAddr: 0x2B4AC, symSize: 0xE0 }
  - { offsetInCU: 0x7D60, offset: 0xA915D, size: 0x8, addend: 0x0, symName: __ZN4pyo310conversion15IntoPyObjectExt17into_bound_py_any17ha6c5eb0a9c3a3abfE, symObjAddr: 0xE84, symBinAddr: 0x2B58C, symSize: 0xE4 }
  - { offsetInCU: 0x7DED, offset: 0xA91EA, size: 0x8, addend: 0x0, symName: __ZN4pyo310conversion15IntoPyObjectExt17into_bound_py_any17hc73781bda668960aE, symObjAddr: 0xF68, symBinAddr: 0x2B670, symSize: 0xE0 }
  - { offsetInCU: 0x7E80, offset: 0xA927D, size: 0x8, addend: 0x0, symName: '__ZN57_$LT$T$u20$as$u20$pyo3..conversion..FromPyObjectBound$GT$20from_py_object_bound17h5c2f2d68f0547de2E', symObjAddr: 0x1374, symBinAddr: 0x2BA7C, symSize: 0x34 }
  - { offsetInCU: 0x7ECD, offset: 0xA92CA, size: 0x8, addend: 0x0, symName: '__ZN4pyo311conversions3std3vec85_$LT$impl$u20$pyo3..conversion..IntoPyObject$u20$for$u20$alloc..vec..Vec$LT$T$GT$$GT$13into_pyobject17hafcbdcaf6a967724E', symObjAddr: 0x1048, symBinAddr: 0x2B750, symSize: 0x34 }
  - { offsetInCU: 0x7F1C, offset: 0xA9319, size: 0x8, addend: 0x0, symName: '__ZN4pyo311conversions3std3vec85_$LT$impl$u20$pyo3..conversion..IntoPyObject$u20$for$u20$alloc..vec..Vec$LT$T$GT$$GT$13into_pyobject17hbc33e6473d9ef472E', symObjAddr: 0x107C, symBinAddr: 0x2B784, symSize: 0x34 }
  - { offsetInCU: 0x7F7E, offset: 0xA937B, size: 0x8, addend: 0x0, symName: '__ZN4pyo35types5tuple76_$LT$impl$u20$pyo3..conversion..IntoPyObject$u20$for$u20$$LP$T0$C$T1$RP$$GT$13into_pyobject17h03d37e93575517afE', symObjAddr: 0x10B0, symBinAddr: 0x2B7B8, symSize: 0x23C }
  - { offsetInCU: 0x8052, offset: 0xA944F, size: 0x8, addend: 0x0, symName: '__ZN4pyo35types8sequence85_$LT$impl$u20$pyo3..conversion..FromPyObject$u20$for$u20$alloc..vec..Vec$LT$T$GT$$GT$13extract_bound17h9461d0a650a33c71E', symObjAddr: 0x12EC, symBinAddr: 0x2B9F4, symSize: 0x88 }
  - { offsetInCU: 0x80B6, offset: 0xA94B3, size: 0x8, addend: 0x0, symName: '__ZN80_$LT$T$u20$as$u20$pyo3..impl_..extract_argument..PyFunctionArgument$LT$_$GT$$GT$7extract17he599c476f2fd509aE', symObjAddr: 0x2B24, symBinAddr: 0x2D22C, symSize: 0x28 }
  - { offsetInCU: 0x83E5, offset: 0xA97E2, size: 0x8, addend: 0x0, symName: '__ZN5alloc3vec12Vec$LT$T$GT$3new17h226e74dab42606caE', symObjAddr: 0x13A8, symBinAddr: 0x2BAB0, symSize: 0x14 }
  - { offsetInCU: 0x8402, offset: 0xA97FF, size: 0x8, addend: 0x0, symName: '__ZN5alloc3vec12Vec$LT$T$GT$3new17h9c08b1f969be269aE', symObjAddr: 0x13BC, symBinAddr: 0x2BAC4, symSize: 0x14 }
  - { offsetInCU: 0x8453, offset: 0xA9850, size: 0x8, addend: 0x0, symName: '__ZN5alloc3vec12Vec$LT$T$GT$3new17hccbd384a78b1f9a1E', symObjAddr: 0x13D0, symBinAddr: 0x2BAD8, symSize: 0x14 }
  - { offsetInCU: 0x85E7, offset: 0xA99E4, size: 0x8, addend: 0x0, symName: '__ZN5alloc3vec12Vec$LT$T$GT$3new17hf1820b050de408f7E', symObjAddr: 0x13E4, symBinAddr: 0x2BAEC, symSize: 0x14 }
  - { offsetInCU: 0x8A5A, offset: 0xA9E57, size: 0x8, addend: 0x0, symName: '__ZN5alloc3vec16Vec$LT$T$C$A$GT$14extend_trusted17h1c7977106ec87bbfE', symObjAddr: 0x13F8, symBinAddr: 0x2BB00, symSize: 0x130 }
  - { offsetInCU: 0x8C68, offset: 0xAA065, size: 0x8, addend: 0x0, symName: '__ZN5alloc3vec16Vec$LT$T$C$A$GT$14extend_trusted17h68c57762c08550b6E', symObjAddr: 0x1528, symBinAddr: 0x2BC30, symSize: 0x130 }
  - { offsetInCU: 0x8E5C, offset: 0xAA259, size: 0x8, addend: 0x0, symName: '__ZN5alloc3vec16Vec$LT$T$C$A$GT$14extend_trusted17hb4849f8bc2193f1aE', symObjAddr: 0x1658, symBinAddr: 0x2BD60, symSize: 0x130 }
  - { offsetInCU: 0x9050, offset: 0xAA44D, size: 0x8, addend: 0x0, symName: '__ZN5alloc3vec16Vec$LT$T$C$A$GT$14extend_trusted17hbe51d0c5d4b2607bE', symObjAddr: 0x1788, symBinAddr: 0x2BE90, symSize: 0x130 }
  - { offsetInCU: 0x9244, offset: 0xAA641, size: 0x8, addend: 0x0, symName: '__ZN5alloc3vec16Vec$LT$T$C$A$GT$14extend_trusted17hcc7e8e219c683f17E', symObjAddr: 0x18B8, symBinAddr: 0x2BFC0, symSize: 0x130 }
  - { offsetInCU: 0x9445, offset: 0xAA842, size: 0x8, addend: 0x0, symName: '__ZN5alloc3vec16Vec$LT$T$C$A$GT$14extend_trusted17hd1a8e7e7de872ff8E', symObjAddr: 0x19E8, symBinAddr: 0x2C0F0, symSize: 0x130 }
  - { offsetInCU: 0x9639, offset: 0xAAA36, size: 0x8, addend: 0x0, symName: '__ZN5alloc3vec16Vec$LT$T$C$A$GT$14extend_trusted17hd5ba457c15d3171fE', symObjAddr: 0x1B18, symBinAddr: 0x2C220, symSize: 0x130 }
  - { offsetInCU: 0x982D, offset: 0xAAC2A, size: 0x8, addend: 0x0, symName: '__ZN5alloc3vec16Vec$LT$T$C$A$GT$14extend_trusted17hdac1f6f512a0d229E', symObjAddr: 0x1C48, symBinAddr: 0x2C350, symSize: 0x130 }
  - { offsetInCU: 0x9A48, offset: 0xAAE45, size: 0x8, addend: 0x0, symName: '__ZN5alloc3vec16Vec$LT$T$C$A$GT$14extend_trusted17he5e3e4967b533279E', symObjAddr: 0x1D78, symBinAddr: 0x2C480, symSize: 0x130 }
  - { offsetInCU: 0x9C3C, offset: 0xAB039, size: 0x8, addend: 0x0, symName: '__ZN5alloc3vec16Vec$LT$T$C$A$GT$14extend_trusted17hfb5523514adf2204E', symObjAddr: 0x1EA8, symBinAddr: 0x2C5B0, symSize: 0x130 }
  - { offsetInCU: 0x9E30, offset: 0xAB22D, size: 0x8, addend: 0x0, symName: '__ZN5alloc3vec16Vec$LT$T$C$A$GT$14extend_trusted17hffa1862f66807c10E', symObjAddr: 0x1FD8, symBinAddr: 0x2C6E0, symSize: 0x130 }
  - { offsetInCU: 0xA03D, offset: 0xAB43A, size: 0x8, addend: 0x0, symName: '__ZN5alloc3vec16Vec$LT$T$C$A$GT$3len17h3133b8bc01eb7e62E', symObjAddr: 0x2324, symBinAddr: 0x2CA2C, symSize: 0x18 }
  - { offsetInCU: 0xA07F, offset: 0xAB47C, size: 0x8, addend: 0x0, symName: '__ZN5alloc3vec16Vec$LT$T$C$A$GT$3len17h8ffe6037b514bdafE', symObjAddr: 0x233C, symBinAddr: 0x2CA44, symSize: 0x18 }
  - { offsetInCU: 0xA0C1, offset: 0xAB4BE, size: 0x8, addend: 0x0, symName: '__ZN5alloc3vec16Vec$LT$T$C$A$GT$3len17hadefb2f94b7625caE', symObjAddr: 0x2354, symBinAddr: 0x2CA5C, symSize: 0x18 }
  - { offsetInCU: 0xA103, offset: 0xAB500, size: 0x8, addend: 0x0, symName: '__ZN5alloc3vec16Vec$LT$T$C$A$GT$4push17h231fa2e24a55e8d0E', symObjAddr: 0x236C, symBinAddr: 0x2CA74, symSize: 0x30 }
  - { offsetInCU: 0xA154, offset: 0xAB551, size: 0x8, addend: 0x0, symName: '__ZN5alloc3vec16Vec$LT$T$C$A$GT$4push17h3052d3c63f8b60b1E', symObjAddr: 0x239C, symBinAddr: 0x2CAA4, symSize: 0x24 }
  - { offsetInCU: 0xA1A6, offset: 0xAB5A3, size: 0x8, addend: 0x0, symName: '__ZN5alloc3vec16Vec$LT$T$C$A$GT$4push17h538e0e8f34a00213E', symObjAddr: 0x23C0, symBinAddr: 0x2CAC8, symSize: 0x24 }
  - { offsetInCU: 0xA1EB, offset: 0xAB5E8, size: 0x8, addend: 0x0, symName: '__ZN5alloc3vec16Vec$LT$T$C$A$GT$4push17h6f3a27fc2cfa59ccE', symObjAddr: 0x23E4, symBinAddr: 0x2CAEC, symSize: 0x24 }
  - { offsetInCU: 0xA23D, offset: 0xAB63A, size: 0x8, addend: 0x0, symName: '__ZN5alloc3vec16Vec$LT$T$C$A$GT$4push17h8f2402627e2258f7E', symObjAddr: 0x2408, symBinAddr: 0x2CB10, symSize: 0x24 }
  - { offsetInCU: 0xA2AD, offset: 0xAB6AA, size: 0x8, addend: 0x0, symName: '__ZN5alloc3vec16Vec$LT$T$C$A$GT$4push17ha2cc566c38890f90E', symObjAddr: 0x242C, symBinAddr: 0x2CB34, symSize: 0x2C }
  - { offsetInCU: 0xA32A, offset: 0xAB727, size: 0x8, addend: 0x0, symName: '__ZN5alloc3vec16Vec$LT$T$C$A$GT$8is_empty17h051cfee1ab516361E', symObjAddr: 0x2458, symBinAddr: 0x2CB60, symSize: 0x20 }
  - { offsetInCU: 0xA3AF, offset: 0xAB7AC, size: 0x8, addend: 0x0, symName: '__ZN5alloc3vec16Vec$LT$T$C$A$GT$8is_empty17h30bbe602ab4069cbE', symObjAddr: 0x2478, symBinAddr: 0x2CB80, symSize: 0x20 }
  - { offsetInCU: 0xA516, offset: 0xAB913, size: 0x8, addend: 0x0, symName: '__ZN5alloc3vec16Vec$LT$T$C$A$GT$8push_mut17h00fd6567d397c6deE', symObjAddr: 0x2498, symBinAddr: 0x2CBA0, symSize: 0xE0 }
  - { offsetInCU: 0xA7AD, offset: 0xABBAA, size: 0x8, addend: 0x0, symName: '__ZN5alloc3vec16Vec$LT$T$C$A$GT$8push_mut17h082e1b05628ab2a5E', symObjAddr: 0x2578, symBinAddr: 0x2CC80, symSize: 0xDC }
  - { offsetInCU: 0xAA12, offset: 0xABE0F, size: 0x8, addend: 0x0, symName: '__ZN5alloc3vec16Vec$LT$T$C$A$GT$8push_mut17h615b310dd0c241c3E', symObjAddr: 0x2654, symBinAddr: 0x2CD5C, symSize: 0xE4 }
  - { offsetInCU: 0xACAB, offset: 0xAC0A8, size: 0x8, addend: 0x0, symName: '__ZN5alloc3vec16Vec$LT$T$C$A$GT$8push_mut17h723bb33534f65814E', symObjAddr: 0x2738, symBinAddr: 0x2CE40, symSize: 0x108 }
  - { offsetInCU: 0xAF43, offset: 0xAC340, size: 0x8, addend: 0x0, symName: '__ZN5alloc3vec16Vec$LT$T$C$A$GT$8push_mut17h7320f9d4f20dfdc3E', symObjAddr: 0x2840, symBinAddr: 0x2CF48, symSize: 0x108 }
  - { offsetInCU: 0xB1DA, offset: 0xAC5D7, size: 0x8, addend: 0x0, symName: '__ZN5alloc3vec16Vec$LT$T$C$A$GT$8push_mut17hd1078ef36a9c44b9E', symObjAddr: 0x2948, symBinAddr: 0x2D050, symSize: 0xDC }
  - { offsetInCU: 0x1E, offset: 0xADD14, size: 0x8, addend: 0x0, symName: '__ZN96_$LT$pyo3..pycell..impl_..BorrowChecker$u20$as$u20$pyo3..pycell..impl_..PyClassBorrowChecker$GT$3new17hb3d6c70647a16a7eE', symObjAddr: 0x0, symBinAddr: 0x2DAFC, symSize: 0x40 }
  - { offsetInCU: 0x3F, offset: 0xADD35, size: 0x8, addend: 0x0, symName: '__ZN96_$LT$pyo3..pycell..impl_..BorrowChecker$u20$as$u20$pyo3..pycell..impl_..PyClassBorrowChecker$GT$3new17hb3d6c70647a16a7eE', symObjAddr: 0x0, symBinAddr: 0x2DAFC, symSize: 0x40 }
  - { offsetInCU: 0x1E, offset: 0xADDF0, size: 0x8, addend: 0x0, symName: '__ZN111_$LT$T$u20$as$u20$pyo3..impl_..callback..IntoPyCallbackOutput$LT$$BP$mut$u20$pyo3_ffi..object..PyObject$GT$$GT$7convert17h022dfa05dc6ecaf8E', symObjAddr: 0x0, symBinAddr: 0x2DB3C, symSize: 0x68 }
  - { offsetInCU: 0x864, offset: 0xAE636, size: 0x8, addend: 0x0, symName: '__ZN50_$LT$T$u20$as$u20$core..convert..Into$LT$U$GT$$GT$4into17h16f4da7d6bf52ebaE', symObjAddr: 0x96C, symBinAddr: 0x2E4A8, symSize: 0x14 }
  - { offsetInCU: 0x8A5, offset: 0xAE677, size: 0x8, addend: 0x0, symName: '__ZN50_$LT$T$u20$as$u20$core..convert..Into$LT$U$GT$$GT$4into17h1e106ddcf693f3cdE', symObjAddr: 0x980, symBinAddr: 0x2E4BC, symSize: 0x14 }
  - { offsetInCU: 0x8E6, offset: 0xAE6B8, size: 0x8, addend: 0x0, symName: '__ZN50_$LT$T$u20$as$u20$core..convert..Into$LT$U$GT$$GT$4into17h2e3d64fdfef146f5E', symObjAddr: 0x994, symBinAddr: 0x2E4D0, symSize: 0x24 }
  - { offsetInCU: 0x926, offset: 0xAE6F8, size: 0x8, addend: 0x0, symName: '__ZN50_$LT$T$u20$as$u20$core..convert..Into$LT$U$GT$$GT$4into17h3186731cd0a07227E', symObjAddr: 0x9B8, symBinAddr: 0x2E4F4, symSize: 0x14 }
  - { offsetInCU: 0x967, offset: 0xAE739, size: 0x8, addend: 0x0, symName: '__ZN50_$LT$T$u20$as$u20$core..convert..Into$LT$U$GT$$GT$4into17h67eff078e6ad4d73E', symObjAddr: 0x9CC, symBinAddr: 0x2E508, symSize: 0x14 }
  - { offsetInCU: 0x9A8, offset: 0xAE77A, size: 0x8, addend: 0x0, symName: '__ZN50_$LT$T$u20$as$u20$core..convert..Into$LT$U$GT$$GT$4into17h8039b8e9a6df3c6fE', symObjAddr: 0x9E0, symBinAddr: 0x2E51C, symSize: 0x14 }
  - { offsetInCU: 0x9E9, offset: 0xAE7BB, size: 0x8, addend: 0x0, symName: '__ZN50_$LT$T$u20$as$u20$core..convert..Into$LT$U$GT$$GT$4into17hd570a0bb7f54ab95E', symObjAddr: 0x9F4, symBinAddr: 0x2E530, symSize: 0x14 }
  - { offsetInCU: 0x25B2, offset: 0xB0384, size: 0x8, addend: 0x0, symName: '__ZN111_$LT$T$u20$as$u20$pyo3..impl_..callback..IntoPyCallbackOutput$LT$$BP$mut$u20$pyo3_ffi..object..PyObject$GT$$GT$7convert17h022dfa05dc6ecaf8E', symObjAddr: 0x0, symBinAddr: 0x2DB3C, symSize: 0x68 }
  - { offsetInCU: 0x2603, offset: 0xB03D5, size: 0x8, addend: 0x0, symName: '__ZN111_$LT$T$u20$as$u20$pyo3..impl_..callback..IntoPyCallbackOutput$LT$$BP$mut$u20$pyo3_ffi..object..PyObject$GT$$GT$7convert17h1cda455df1e21985E', symObjAddr: 0x68, symBinAddr: 0x2DBA4, symSize: 0x68 }
  - { offsetInCU: 0x2654, offset: 0xB0426, size: 0x8, addend: 0x0, symName: '__ZN111_$LT$T$u20$as$u20$pyo3..impl_..callback..IntoPyCallbackOutput$LT$$BP$mut$u20$pyo3_ffi..object..PyObject$GT$$GT$7convert17ha12e3a8a62f0025bE', symObjAddr: 0xD0, symBinAddr: 0x2DC0C, symSize: 0x68 }
  - { offsetInCU: 0x26A5, offset: 0xB0477, size: 0x8, addend: 0x0, symName: '__ZN111_$LT$T$u20$as$u20$pyo3..impl_..callback..IntoPyCallbackOutput$LT$$BP$mut$u20$pyo3_ffi..object..PyObject$GT$$GT$7convert17hb0fdc30349fd93e9E', symObjAddr: 0x138, symBinAddr: 0x2DC74, symSize: 0x60 }
  - { offsetInCU: 0x26F4, offset: 0xB04C6, size: 0x8, addend: 0x0, symName: '__ZN111_$LT$T$u20$as$u20$pyo3..impl_..callback..IntoPyCallbackOutput$LT$$BP$mut$u20$pyo3_ffi..object..PyObject$GT$$GT$7convert17hb55f40dfe741a528E', symObjAddr: 0x198, symBinAddr: 0x2DCD4, symSize: 0x4C }
  - { offsetInCU: 0x274E, offset: 0xB0520, size: 0x8, addend: 0x0, symName: __ZN4pyo35impl_7pyclass11PyClassImpl11dict_offset17h2596082aa05be595E, symObjAddr: 0x8FC, symBinAddr: 0x2E438, symSize: 0x8 }
  - { offsetInCU: 0x2775, offset: 0xB0547, size: 0x8, addend: 0x0, symName: __ZN4pyo35impl_7pyclass11PyClassImpl11dict_offset17h814d531cd12431c7E, symObjAddr: 0x904, symBinAddr: 0x2E440, symSize: 0x8 }
  - { offsetInCU: 0x279C, offset: 0xB056E, size: 0x8, addend: 0x0, symName: __ZN4pyo35impl_7pyclass11PyClassImpl11dict_offset17h8761c17d878338c2E, symObjAddr: 0x90C, symBinAddr: 0x2E448, symSize: 0x8 }
  - { offsetInCU: 0x27C3, offset: 0xB0595, size: 0x8, addend: 0x0, symName: __ZN4pyo35impl_7pyclass11PyClassImpl11dict_offset17h9d1e802a2bf077aeE, symObjAddr: 0x914, symBinAddr: 0x2E450, symSize: 0x8 }
  - { offsetInCU: 0x27EA, offset: 0xB05BC, size: 0x8, addend: 0x0, symName: __ZN4pyo35impl_7pyclass11PyClassImpl11dict_offset17hbc9a573c889480daE, symObjAddr: 0x91C, symBinAddr: 0x2E458, symSize: 0x8 }
  - { offsetInCU: 0x2811, offset: 0xB05E3, size: 0x8, addend: 0x0, symName: __ZN4pyo35impl_7pyclass11PyClassImpl11dict_offset17hcaba70a22a9b5a90E, symObjAddr: 0x924, symBinAddr: 0x2E460, symSize: 0x8 }
  - { offsetInCU: 0x2838, offset: 0xB060A, size: 0x8, addend: 0x0, symName: __ZN4pyo35impl_7pyclass11PyClassImpl11dict_offset17hd8db2cbc63a94695E, symObjAddr: 0x92C, symBinAddr: 0x2E468, symSize: 0x8 }
  - { offsetInCU: 0x285F, offset: 0xB0631, size: 0x8, addend: 0x0, symName: __ZN4pyo35impl_7pyclass11PyClassImpl15weaklist_offset17h2d3e028100e9f5baE, symObjAddr: 0x934, symBinAddr: 0x2E470, symSize: 0x8 }
  - { offsetInCU: 0x2886, offset: 0xB0658, size: 0x8, addend: 0x0, symName: __ZN4pyo35impl_7pyclass11PyClassImpl15weaklist_offset17h65f62ed515f02ef5E, symObjAddr: 0x93C, symBinAddr: 0x2E478, symSize: 0x8 }
  - { offsetInCU: 0x28AD, offset: 0xB067F, size: 0x8, addend: 0x0, symName: __ZN4pyo35impl_7pyclass11PyClassImpl15weaklist_offset17h9cbc0055f25d20c4E, symObjAddr: 0x944, symBinAddr: 0x2E480, symSize: 0x8 }
  - { offsetInCU: 0x28D4, offset: 0xB06A6, size: 0x8, addend: 0x0, symName: __ZN4pyo35impl_7pyclass11PyClassImpl15weaklist_offset17haca97f81728a19c5E, symObjAddr: 0x94C, symBinAddr: 0x2E488, symSize: 0x8 }
  - { offsetInCU: 0x28FB, offset: 0xB06CD, size: 0x8, addend: 0x0, symName: __ZN4pyo35impl_7pyclass11PyClassImpl15weaklist_offset17had51c4c68f453405E, symObjAddr: 0x954, symBinAddr: 0x2E490, symSize: 0x8 }
  - { offsetInCU: 0x2922, offset: 0xB06F4, size: 0x8, addend: 0x0, symName: __ZN4pyo35impl_7pyclass11PyClassImpl15weaklist_offset17hc23e4d54f597f4deE, symObjAddr: 0x95C, symBinAddr: 0x2E498, symSize: 0x8 }
  - { offsetInCU: 0x2949, offset: 0xB071B, size: 0x8, addend: 0x0, symName: __ZN4pyo35impl_7pyclass11PyClassImpl15weaklist_offset17he870866eb3064124E, symObjAddr: 0x964, symBinAddr: 0x2E4A0, symSize: 0x8 }
  - { offsetInCU: 0x2A4E, offset: 0xB0820, size: 0x8, addend: 0x0, symName: '__ZN80_$LT$T$u20$as$u20$pyo3..impl_..extract_argument..PyFunctionArgument$LT$_$GT$$GT$7extract17h814306c192bb556cE', symObjAddr: 0x17AC, symBinAddr: 0x2F2E8, symSize: 0x28 }
  - { offsetInCU: 0x2A8D, offset: 0xB085F, size: 0x8, addend: 0x0, symName: '__ZN80_$LT$T$u20$as$u20$pyo3..impl_..extract_argument..PyFunctionArgument$LT$_$GT$$GT$7extract17h9801af30d24f640fE', symObjAddr: 0x17D4, symBinAddr: 0x2F310, symSize: 0x28 }
  - { offsetInCU: 0x2ACC, offset: 0xB089E, size: 0x8, addend: 0x0, symName: '__ZN80_$LT$T$u20$as$u20$pyo3..impl_..extract_argument..PyFunctionArgument$LT$_$GT$$GT$7extract17hb23d01a34f5e3eeeE', symObjAddr: 0x17FC, symBinAddr: 0x2F338, symSize: 0x28 }
  - { offsetInCU: 0x2B0B, offset: 0xB08DD, size: 0x8, addend: 0x0, symName: '__ZN80_$LT$T$u20$as$u20$pyo3..impl_..extract_argument..PyFunctionArgument$LT$_$GT$$GT$7extract17hb91f350cb45105a2E', symObjAddr: 0x1824, symBinAddr: 0x2F360, symSize: 0x28 }
  - { offsetInCU: 0x2B4A, offset: 0xB091C, size: 0x8, addend: 0x0, symName: '__ZN80_$LT$T$u20$as$u20$pyo3..impl_..extract_argument..PyFunctionArgument$LT$_$GT$$GT$7extract17hb9fdbc85adcaca0cE', symObjAddr: 0x184C, symBinAddr: 0x2F388, symSize: 0x28 }
  - { offsetInCU: 0x2E19, offset: 0xB0BEB, size: 0x8, addend: 0x0, symName: __ZN4pyo310conversion15IntoPyObjectExt17into_bound_py_any17h478678419d3aef25E, symObjAddr: 0x1E4, symBinAddr: 0x2DD20, symSize: 0xE4 }
  - { offsetInCU: 0x2EA6, offset: 0xB0C78, size: 0x8, addend: 0x0, symName: __ZN4pyo310conversion15IntoPyObjectExt17into_bound_py_any17h4d5b6a3c8dd0bc3aE, symObjAddr: 0x2C8, symBinAddr: 0x2DE04, symSize: 0xE4 }
  - { offsetInCU: 0x2F33, offset: 0xB0D05, size: 0x8, addend: 0x0, symName: __ZN4pyo310conversion15IntoPyObjectExt17into_bound_py_any17h8a918e5c57c9f497E, symObjAddr: 0x3AC, symBinAddr: 0x2DEE8, symSize: 0xE4 }
  - { offsetInCU: 0x2FC6, offset: 0xB0D98, size: 0x8, addend: 0x0, symName: '__ZN52_$LT$T$u20$as$u20$pyo3..conversion..FromPyObject$GT$13extract_bound17h200f82e8dc8dd6ebE', symObjAddr: 0xA08, symBinAddr: 0x2E544, symSize: 0x148 }
  - { offsetInCU: 0x3072, offset: 0xB0E44, size: 0x8, addend: 0x0, symName: '__ZN52_$LT$T$u20$as$u20$pyo3..conversion..FromPyObject$GT$13extract_bound17h58aff1f36ffd4b50E', symObjAddr: 0xB50, symBinAddr: 0x2E68C, symSize: 0x150 }
  - { offsetInCU: 0x311E, offset: 0xB0EF0, size: 0x8, addend: 0x0, symName: '__ZN52_$LT$T$u20$as$u20$pyo3..conversion..FromPyObject$GT$13extract_bound17h6a478ec6250d43fdE', symObjAddr: 0xCA0, symBinAddr: 0x2E7DC, symSize: 0x154 }
  - { offsetInCU: 0x31CA, offset: 0xB0F9C, size: 0x8, addend: 0x0, symName: '__ZN52_$LT$T$u20$as$u20$pyo3..conversion..FromPyObject$GT$13extract_bound17h781c435aee1739d5E', symObjAddr: 0xDF4, symBinAddr: 0x2E930, symSize: 0x148 }
  - { offsetInCU: 0x3276, offset: 0xB1048, size: 0x8, addend: 0x0, symName: '__ZN52_$LT$T$u20$as$u20$pyo3..conversion..FromPyObject$GT$13extract_bound17hda2fb61732734dd0E', symObjAddr: 0xF3C, symBinAddr: 0x2EA78, symSize: 0x148 }
  - { offsetInCU: 0x3328, offset: 0xB10FA, size: 0x8, addend: 0x0, symName: '__ZN57_$LT$T$u20$as$u20$pyo3..conversion..FromPyObjectBound$GT$20from_py_object_bound17h009b8b68862e72e9E', symObjAddr: 0x1180, symBinAddr: 0x2ECBC, symSize: 0x34 }
  - { offsetInCU: 0x335F, offset: 0xB1131, size: 0x8, addend: 0x0, symName: '__ZN57_$LT$T$u20$as$u20$pyo3..conversion..FromPyObjectBound$GT$20from_py_object_bound17h123b618b36c794daE', symObjAddr: 0x11B4, symBinAddr: 0x2ECF0, symSize: 0x34 }
  - { offsetInCU: 0x3396, offset: 0xB1168, size: 0x8, addend: 0x0, symName: '__ZN57_$LT$T$u20$as$u20$pyo3..conversion..FromPyObjectBound$GT$20from_py_object_bound17h7399a7efe9336b10E', symObjAddr: 0x11E8, symBinAddr: 0x2ED24, symSize: 0x34 }
  - { offsetInCU: 0x33CD, offset: 0xB119F, size: 0x8, addend: 0x0, symName: '__ZN57_$LT$T$u20$as$u20$pyo3..conversion..FromPyObjectBound$GT$20from_py_object_bound17h80f94e3ffe542257E', symObjAddr: 0x121C, symBinAddr: 0x2ED58, symSize: 0x34 }
  - { offsetInCU: 0x3404, offset: 0xB11D6, size: 0x8, addend: 0x0, symName: '__ZN57_$LT$T$u20$as$u20$pyo3..conversion..FromPyObjectBound$GT$20from_py_object_bound17hd7b8c7a8611e9b1cE', symObjAddr: 0x1250, symBinAddr: 0x2ED8C, symSize: 0x34 }
  - { offsetInCU: 0x3447, offset: 0xB1219, size: 0x8, addend: 0x0, symName: __ZN4pyo311type_object10PyTypeInfo10is_type_of17h09a219092a41a359E, symObjAddr: 0x490, symBinAddr: 0x2DFCC, symSize: 0x50 }
  - { offsetInCU: 0x347C, offset: 0xB124E, size: 0x8, addend: 0x0, symName: __ZN4pyo311type_object10PyTypeInfo10is_type_of17h0e1988fc83dceea4E, symObjAddr: 0x4E0, symBinAddr: 0x2E01C, symSize: 0x50 }
  - { offsetInCU: 0x34B1, offset: 0xB1283, size: 0x8, addend: 0x0, symName: __ZN4pyo311type_object10PyTypeInfo10is_type_of17h3473c492c5cfa282E, symObjAddr: 0x530, symBinAddr: 0x2E06C, symSize: 0x50 }
  - { offsetInCU: 0x34E6, offset: 0xB12B8, size: 0x8, addend: 0x0, symName: __ZN4pyo311type_object10PyTypeInfo10is_type_of17h402b78f9cb300250E, symObjAddr: 0x580, symBinAddr: 0x2E0BC, symSize: 0x50 }
  - { offsetInCU: 0x351B, offset: 0xB12ED, size: 0x8, addend: 0x0, symName: __ZN4pyo311type_object10PyTypeInfo10is_type_of17h51e8769049f488b6E, symObjAddr: 0x5D0, symBinAddr: 0x2E10C, symSize: 0x50 }
  - { offsetInCU: 0x3550, offset: 0xB1322, size: 0x8, addend: 0x0, symName: __ZN4pyo311type_object10PyTypeInfo10is_type_of17hae77f0585099a2dcE, symObjAddr: 0x620, symBinAddr: 0x2E15C, symSize: 0x50 }
  - { offsetInCU: 0x3585, offset: 0xB1357, size: 0x8, addend: 0x0, symName: __ZN4pyo311type_object10PyTypeInfo10is_type_of17he7c6be52e65ecce8E, symObjAddr: 0x670, symBinAddr: 0x2E1AC, symSize: 0x50 }
  - { offsetInCU: 0x35C0, offset: 0xB1392, size: 0x8, addend: 0x0, symName: '__ZN52_$LT$T$u20$as$u20$pyo3..type_object..PyTypeCheck$GT$10type_check17h2bc65a24de6e2841E', symObjAddr: 0x1084, symBinAddr: 0x2EBC0, symSize: 0x24 }
  - { offsetInCU: 0x35F5, offset: 0xB13C7, size: 0x8, addend: 0x0, symName: '__ZN52_$LT$T$u20$as$u20$pyo3..type_object..PyTypeCheck$GT$10type_check17h45c7b7b47cdbdd33E', symObjAddr: 0x10A8, symBinAddr: 0x2EBE4, symSize: 0x24 }
  - { offsetInCU: 0x362A, offset: 0xB13FC, size: 0x8, addend: 0x0, symName: '__ZN52_$LT$T$u20$as$u20$pyo3..type_object..PyTypeCheck$GT$10type_check17h880991f33a3eee31E', symObjAddr: 0x10CC, symBinAddr: 0x2EC08, symSize: 0x24 }
  - { offsetInCU: 0x365F, offset: 0xB1431, size: 0x8, addend: 0x0, symName: '__ZN52_$LT$T$u20$as$u20$pyo3..type_object..PyTypeCheck$GT$10type_check17h914b122c3d08cf11E', symObjAddr: 0x10F0, symBinAddr: 0x2EC2C, symSize: 0x24 }
  - { offsetInCU: 0x3694, offset: 0xB1466, size: 0x8, addend: 0x0, symName: '__ZN52_$LT$T$u20$as$u20$pyo3..type_object..PyTypeCheck$GT$10type_check17hc26ba04400773715E', symObjAddr: 0x1114, symBinAddr: 0x2EC50, symSize: 0x24 }
  - { offsetInCU: 0x36C9, offset: 0xB149B, size: 0x8, addend: 0x0, symName: '__ZN52_$LT$T$u20$as$u20$pyo3..type_object..PyTypeCheck$GT$10type_check17hf3611c8dbbb10a87E', symObjAddr: 0x1138, symBinAddr: 0x2EC74, symSize: 0x24 }
  - { offsetInCU: 0x36FE, offset: 0xB14D0, size: 0x8, addend: 0x0, symName: '__ZN52_$LT$T$u20$as$u20$pyo3..type_object..PyTypeCheck$GT$10type_check17hfa1f08f815f3dfe4E', symObjAddr: 0x115C, symBinAddr: 0x2EC98, symSize: 0x24 }
  - { offsetInCU: 0x373F, offset: 0xB1511, size: 0x8, addend: 0x0, symName: '__ZN4pyo312pyclass_init130_$LT$impl$u20$pyo3..impl_..callback..IntoPyCallbackOutput$LT$pyo3..pyclass_init..PyClassInitializer$LT$T$GT$$GT$$u20$for$u20$U$GT$7convert17h0c9af42d4f798317E', symObjAddr: 0x6C0, symBinAddr: 0x2E1FC, symSize: 0x60 }
  - { offsetInCU: 0x379D, offset: 0xB156F, size: 0x8, addend: 0x0, symName: '__ZN4pyo312pyclass_init130_$LT$impl$u20$pyo3..impl_..callback..IntoPyCallbackOutput$LT$pyo3..pyclass_init..PyClassInitializer$LT$T$GT$$GT$$u20$for$u20$U$GT$7convert17h1047b2cd5bde6854E', symObjAddr: 0x720, symBinAddr: 0x2E25C, symSize: 0x6C }
  - { offsetInCU: 0x37F9, offset: 0xB15CB, size: 0x8, addend: 0x0, symName: '__ZN4pyo312pyclass_init130_$LT$impl$u20$pyo3..impl_..callback..IntoPyCallbackOutput$LT$pyo3..pyclass_init..PyClassInitializer$LT$T$GT$$GT$$u20$for$u20$U$GT$7convert17h3de4b8f1c93cbe71E', symObjAddr: 0x78C, symBinAddr: 0x2E2C8, symSize: 0x68 }
  - { offsetInCU: 0x3857, offset: 0xB1629, size: 0x8, addend: 0x0, symName: '__ZN4pyo312pyclass_init130_$LT$impl$u20$pyo3..impl_..callback..IntoPyCallbackOutput$LT$pyo3..pyclass_init..PyClassInitializer$LT$T$GT$$GT$$u20$for$u20$U$GT$7convert17h59370d1be13c1b59E', symObjAddr: 0x7F4, symBinAddr: 0x2E330, symSize: 0x60 }
  - { offsetInCU: 0x38B5, offset: 0xB1687, size: 0x8, addend: 0x0, symName: '__ZN4pyo312pyclass_init130_$LT$impl$u20$pyo3..impl_..callback..IntoPyCallbackOutput$LT$pyo3..pyclass_init..PyClassInitializer$LT$T$GT$$GT$$u20$for$u20$U$GT$7convert17hd3d7c22ad1a48551E', symObjAddr: 0x854, symBinAddr: 0x2E390, symSize: 0x4C }
  - { offsetInCU: 0x3910, offset: 0xB16E2, size: 0x8, addend: 0x0, symName: '__ZN4pyo312pyclass_init130_$LT$impl$u20$pyo3..impl_..callback..IntoPyCallbackOutput$LT$pyo3..pyclass_init..PyClassInitializer$LT$T$GT$$GT$$u20$for$u20$U$GT$7convert17he4a6a4d610fbd06eE', symObjAddr: 0x8A0, symBinAddr: 0x2E3DC, symSize: 0x5C }
  - { offsetInCU: 0x429A, offset: 0xB206C, size: 0x8, addend: 0x0, symName: '__ZN7_native9py_config12PyGridConfig20__pymethod___new____28_$u7b$$u7b$closure$u7d$$u7d$17h15213bcf9aaf7e90E', symObjAddr: 0x1284, symBinAddr: 0x2EDC0, symSize: 0x18 }
  - { offsetInCU: 0x42C4, offset: 0xB2096, size: 0x8, addend: 0x0, symName: '__ZN7_native9py_config12PyGridConfig20__pymethod___new____28_$u7b$$u7b$closure$u7d$$u7d$17hb5bda8f51d8a1b8cE', symObjAddr: 0x129C, symBinAddr: 0x2EDD8, symSize: 0x14 }
  - { offsetInCU: 0x4308, offset: 0xB20DA, size: 0x8, addend: 0x0, symName: '__ZN7_native9py_config12PyGridConfig3new28_$u7b$$u7b$closure$u7d$$u7d$17h6325e9ec815c30f0E', symObjAddr: 0x12B0, symBinAddr: 0x2EDEC, symSize: 0x6C }
  - { offsetInCU: 0x4355, offset: 0xB2127, size: 0x8, addend: 0x0, symName: '__ZN7_native9py_config12PyMaskConfig10line_space28_$u7b$$u7b$closure$u7d$$u7d$17he0ec523d81f360bcE', symObjAddr: 0x131C, symBinAddr: 0x2EE58, symSize: 0x6C }
  - { offsetInCU: 0x4399, offset: 0xB216B, size: 0x8, addend: 0x0, symName: '__ZN7_native9py_config12PyMaskConfig12contact_hole28_$u7b$$u7b$closure$u7d$$u7d$17h989ed2d95b6eeb06E', symObjAddr: 0x1388, symBinAddr: 0x2EEC4, symSize: 0x6C }
  - { offsetInCU: 0x43E3, offset: 0xB21B5, size: 0x8, addend: 0x0, symName: '__ZN7_native9py_config14PyOpticsConfig20__pymethod___new____28_$u7b$$u7b$closure$u7d$$u7d$17h0fbc42e9d60ef80dE', symObjAddr: 0x13F4, symBinAddr: 0x2EF30, symSize: 0x14 }
  - { offsetInCU: 0x440B, offset: 0xB21DD, size: 0x8, addend: 0x0, symName: '__ZN7_native9py_config14PyOpticsConfig20__pymethod___new____28_$u7b$$u7b$closure$u7d$$u7d$17h6e29bc8bbd6c75f8E', symObjAddr: 0x1408, symBinAddr: 0x2EF44, symSize: 0x14 }
  - { offsetInCU: 0x4433, offset: 0xB2205, size: 0x8, addend: 0x0, symName: '__ZN7_native9py_config14PyOpticsConfig20__pymethod___new____28_$u7b$$u7b$closure$u7d$$u7d$17hbcca3c75fdbf299fE', symObjAddr: 0x141C, symBinAddr: 0x2EF58, symSize: 0x24 }
  - { offsetInCU: 0x447C, offset: 0xB224E, size: 0x8, addend: 0x0, symName: '__ZN7_native9py_config14PyOpticsConfig3new28_$u7b$$u7b$closure$u7d$$u7d$17ha3e9c44053b7bb7eE', symObjAddr: 0x1440, symBinAddr: 0x2EF7C, symSize: 0x6C }
  - { offsetInCU: 0x44C6, offset: 0xB2298, size: 0x8, addend: 0x0, symName: '__ZN7_native9py_config14PyResistConfig20__pymethod___new____28_$u7b$$u7b$closure$u7d$$u7d$17h2c6d9e70a8118d74E', symObjAddr: 0x14AC, symBinAddr: 0x2EFE8, symSize: 0x1C }
  - { offsetInCU: 0x44EE, offset: 0xB22C0, size: 0x8, addend: 0x0, symName: '__ZN7_native9py_config14PyResistConfig20__pymethod___new____28_$u7b$$u7b$closure$u7d$$u7d$17h3355417eebfe5d87E', symObjAddr: 0x14C8, symBinAddr: 0x2F004, symSize: 0x20 }
  - { offsetInCU: 0x4516, offset: 0xB22E8, size: 0x8, addend: 0x0, symName: '__ZN7_native9py_config14PyResistConfig20__pymethod___new____28_$u7b$$u7b$closure$u7d$$u7d$17h370a35a6524f3d0cE', symObjAddr: 0x14E8, symBinAddr: 0x2F024, symSize: 0x20 }
  - { offsetInCU: 0x453E, offset: 0xB2310, size: 0x8, addend: 0x0, symName: '__ZN7_native9py_config14PyResistConfig20__pymethod___new____28_$u7b$$u7b$closure$u7d$$u7d$17h5a0d6690fe874022E', symObjAddr: 0x1508, symBinAddr: 0x2F044, symSize: 0x20 }
  - { offsetInCU: 0x4566, offset: 0xB2338, size: 0x8, addend: 0x0, symName: '__ZN7_native9py_config14PyResistConfig20__pymethod___new____28_$u7b$$u7b$closure$u7d$$u7d$17he85bb66cae4ce73aE', symObjAddr: 0x1528, symBinAddr: 0x2F064, symSize: 0x24 }
  - { offsetInCU: 0x458E, offset: 0xB2360, size: 0x8, addend: 0x0, symName: '__ZN7_native9py_config14PyResistConfig20__pymethod___new____28_$u7b$$u7b$closure$u7d$$u7d$17hf66101879604d75eE', symObjAddr: 0x154C, symBinAddr: 0x2F088, symSize: 0x14 }
  - { offsetInCU: 0x45EC, offset: 0xB23BE, size: 0x8, addend: 0x0, symName: '__ZN7_native9py_config14PySourceConfig20__pymethod___new____28_$u7b$$u7b$closure$u7d$$u7d$17h75e9ad6d0452d4efE', symObjAddr: 0x1560, symBinAddr: 0x2F09C, symSize: 0x20 }
  - { offsetInCU: 0x4614, offset: 0xB23E6, size: 0x8, addend: 0x0, symName: '__ZN7_native9py_config14PySourceConfig20__pymethod___new____28_$u7b$$u7b$closure$u7d$$u7d$17h762d9a263d1cde5aE', symObjAddr: 0x1580, symBinAddr: 0x2F0BC, symSize: 0x18 }
  - { offsetInCU: 0x463C, offset: 0xB240E, size: 0x8, addend: 0x0, symName: '__ZN7_native9py_config14PySourceConfig20__pymethod___new____28_$u7b$$u7b$closure$u7d$$u7d$17h9b2ce0d4f31baa2fE', symObjAddr: 0x1598, symBinAddr: 0x2F0D4, symSize: 0x24 }
  - { offsetInCU: 0x4664, offset: 0xB2436, size: 0x8, addend: 0x0, symName: '__ZN7_native9py_config14PySourceConfig20__pymethod___new____28_$u7b$$u7b$closure$u7d$$u7d$17h9d47c5d67941b8d6E', symObjAddr: 0x15BC, symBinAddr: 0x2F0F8, symSize: 0x1C }
  - { offsetInCU: 0x46AE, offset: 0xB2480, size: 0x8, addend: 0x0, symName: '__ZN7_native9py_config14PySourceConfig21__pymethod_f2_laser__28_$u7b$$u7b$closure$u7d$$u7d$17h89f5c95e60c3470eE', symObjAddr: 0x15D8, symBinAddr: 0x2F114, symSize: 0x1C }
  - { offsetInCU: 0x46E3, offset: 0xB24B5, size: 0x8, addend: 0x0, symName: '__ZN7_native9py_config14PySourceConfig22__pymethod_ar2_laser__28_$u7b$$u7b$closure$u7d$$u7d$17h5d5374982740cd93E', symObjAddr: 0x15F4, symBinAddr: 0x2F130, symSize: 0x1C }
  - { offsetInCU: 0x471E, offset: 0xB24F0, size: 0x8, addend: 0x0, symName: '__ZN7_native9py_config14PySourceConfig8f2_laser28_$u7b$$u7b$closure$u7d$$u7d$17h16122f0ae0053f27E', symObjAddr: 0x1610, symBinAddr: 0x2F14C, symSize: 0x6C }
  - { offsetInCU: 0x4762, offset: 0xB2534, size: 0x8, addend: 0x0, symName: '__ZN7_native9py_config14PySourceConfig9ar2_laser28_$u7b$$u7b$closure$u7d$$u7d$17h24e4db0d994af95aE', symObjAddr: 0x167C, symBinAddr: 0x2F1B8, symSize: 0x6C }
  - { offsetInCU: 0x47AC, offset: 0xB257E, size: 0x8, addend: 0x0, symName: '__ZN7_native9py_config15PyProcessConfig20__pymethod___new____28_$u7b$$u7b$closure$u7d$$u7d$17h24572c1d744f4f2bE', symObjAddr: 0x16E8, symBinAddr: 0x2F224, symSize: 0x14 }
  - { offsetInCU: 0x47D6, offset: 0xB25A8, size: 0x8, addend: 0x0, symName: '__ZN7_native9py_config15PyProcessConfig20__pymethod___new____28_$u7b$$u7b$closure$u7d$$u7d$17h545904444d340748E', symObjAddr: 0x16FC, symBinAddr: 0x2F238, symSize: 0x18 }
  - { offsetInCU: 0x4800, offset: 0xB25D2, size: 0x8, addend: 0x0, symName: '__ZN7_native9py_config15PyProcessConfig20__pymethod___new____28_$u7b$$u7b$closure$u7d$$u7d$17hb16847dbb623d637E', symObjAddr: 0x1714, symBinAddr: 0x2F250, symSize: 0x14 }
  - { offsetInCU: 0x484B, offset: 0xB261D, size: 0x8, addend: 0x0, symName: '__ZN7_native9py_config15PyProcessConfig25__pymethod_set_focus_nm__28_$u7b$$u7b$closure$u7d$$u7d$17hc142c81d206f69caE', symObjAddr: 0x1728, symBinAddr: 0x2F264, symSize: 0x2C }
  - { offsetInCU: 0x4882, offset: 0xB2654, size: 0x8, addend: 0x0, symName: '__ZN7_native9py_config15PyProcessConfig28__pymethod_set_dose_mj_cm2__28_$u7b$$u7b$closure$u7d$$u7d$17h60b7d4e947800ca1E', symObjAddr: 0x1754, symBinAddr: 0x2F290, symSize: 0x2C }
  - { offsetInCU: 0x48B9, offset: 0xB268B, size: 0x8, addend: 0x0, symName: '__ZN7_native9py_config15PyProcessConfig35__pymethod_set_development_time_s__28_$u7b$$u7b$closure$u7d$$u7d$17h68795e5a24f5d2e6E', symObjAddr: 0x1780, symBinAddr: 0x2F2BC, symSize: 0x2C }
  - { offsetInCU: 0x48F6, offset: 0xB26C8, size: 0x8, addend: 0x0, symName: '__ZN86_$LT$_native..py_config..PyGridConfig$u20$as$u20$pyo3..impl_..pyclass..PyClassImpl$GT$3doc28_$u7b$$u7b$closure$u7d$$u7d$17h98ebd0a4d3a49a9aE', symObjAddr: 0x1874, symBinAddr: 0x2F3B0, symSize: 0x54 }
  - { offsetInCU: 0x4951, offset: 0xB2723, size: 0x8, addend: 0x0, symName: '__ZN86_$LT$_native..py_config..PyMaskConfig$u20$as$u20$pyo3..impl_..pyclass..PyClassImpl$GT$3doc28_$u7b$$u7b$closure$u7d$$u7d$17h689356a68fd6d4b6E', symObjAddr: 0x18C8, symBinAddr: 0x2F404, symSize: 0x58 }
  - { offsetInCU: 0x49A9, offset: 0xB277B, size: 0x8, addend: 0x0, symName: '__ZN88_$LT$_native..py_config..PyOpticsConfig$u20$as$u20$pyo3..impl_..pyclass..PyClassImpl$GT$3doc28_$u7b$$u7b$closure$u7d$$u7d$17h6b596f8714f1eda3E', symObjAddr: 0x1920, symBinAddr: 0x2F45C, symSize: 0x54 }
  - { offsetInCU: 0x4A01, offset: 0xB27D3, size: 0x8, addend: 0x0, symName: '__ZN88_$LT$_native..py_config..PyResistConfig$u20$as$u20$pyo3..impl_..pyclass..PyClassImpl$GT$3doc28_$u7b$$u7b$closure$u7d$$u7d$17h126b3db8e8023f3eE', symObjAddr: 0x1974, symBinAddr: 0x2F4B0, symSize: 0x54 }
  - { offsetInCU: 0x4A59, offset: 0xB282B, size: 0x8, addend: 0x0, symName: '__ZN88_$LT$_native..py_config..PySourceConfig$u20$as$u20$pyo3..impl_..pyclass..PyClassImpl$GT$3doc28_$u7b$$u7b$closure$u7d$$u7d$17ha094cbda90138686E', symObjAddr: 0x19C8, symBinAddr: 0x2F504, symSize: 0x54 }
  - { offsetInCU: 0x4AB6, offset: 0xB2888, size: 0x8, addend: 0x0, symName: '__ZN89_$LT$_native..py_config..PyProcessConfig$u20$as$u20$pyo3..impl_..pyclass..PyClassImpl$GT$10items_iter15INTRINSIC_ITEMS28_$u7b$$u7b$closure$u7d$$u7d$17h6c1e58cf8e168491E', symObjAddr: 0x1A1C, symBinAddr: 0x2F558, symSize: 0x44 }
  - { offsetInCU: 0x4AE0, offset: 0xB28B2, size: 0x8, addend: 0x0, symName: '__ZN89_$LT$_native..py_config..PyProcessConfig$u20$as$u20$pyo3..impl_..pyclass..PyClassImpl$GT$10items_iter15INTRINSIC_ITEMS28_$u7b$$u7b$closure$u7d$$u7d$17hda58448e891367acE', symObjAddr: 0x1A60, symBinAddr: 0x2F59C, symSize: 0x44 }
  - { offsetInCU: 0x4B0A, offset: 0xB28DC, size: 0x8, addend: 0x0, symName: '__ZN89_$LT$_native..py_config..PyProcessConfig$u20$as$u20$pyo3..impl_..pyclass..PyClassImpl$GT$10items_iter15INTRINSIC_ITEMS28_$u7b$$u7b$closure$u7d$$u7d$17hf5ffc5e84772ae27E', symObjAddr: 0x1AA4, symBinAddr: 0x2F5E0, symSize: 0x44 }
  - { offsetInCU: 0x4B50, offset: 0xB2922, size: 0x8, addend: 0x0, symName: '__ZN89_$LT$_native..py_config..PyProcessConfig$u20$as$u20$pyo3..impl_..pyclass..PyClassImpl$GT$3doc28_$u7b$$u7b$closure$u7d$$u7d$17h6598c7a40a035631E', symObjAddr: 0x1AE8, symBinAddr: 0x2F624, symSize: 0x54 }
  - { offsetInCU: 0x4BAB, offset: 0xB297D, size: 0x8, addend: 0x0, symName: '__ZN91_$LT$_native..py_config..PyFilmStackConfig$u20$as$u20$pyo3..impl_..pyclass..PyClassImpl$GT$3doc28_$u7b$$u7b$closure$u7d$$u7d$17h232e9743db8d0cb6E', symObjAddr: 0x1B3C, symBinAddr: 0x2F678, symSize: 0x54 }
  - { offsetInCU: 0x1E, offset: 0xB3E06, size: 0x8, addend: 0x0, symName: '__ZN59_$LT$alloc..alloc..Global$u20$as$u20$core..clone..Clone$GT$5clone17h7822f4c93398a10fE', symObjAddr: 0x0, symBinAddr: 0x2F6CC, symSize: 0x10 }
  - { offsetInCU: 0xBFD, offset: 0xB49E5, size: 0x8, addend: 0x0, symName: '__ZN59_$LT$alloc..alloc..Global$u20$as$u20$core..clone..Clone$GT$5clone17h7822f4c93398a10fE', symObjAddr: 0x0, symBinAddr: 0x2F6CC, symSize: 0x10 }
  - { offsetInCU: 0xD52, offset: 0xB4B3A, size: 0x8, addend: 0x0, symName: __ZN5alloc5alloc15exchange_malloc17hb496e68e8740530fE, symObjAddr: 0x10, symBinAddr: 0x2F6DC, symSize: 0xB0 }
  - { offsetInCU: 0x10DE, offset: 0xB4EC6, size: 0x8, addend: 0x0, symName: __ZN5alloc5alloc6Global18alloc_impl_runtime17h8861a1fdccb05d64E, symObjAddr: 0xC0, symBinAddr: 0x2F78C, symSize: 0x194 }
  - { offsetInCU: 0x1619, offset: 0xB5401, size: 0x8, addend: 0x0, symName: __ZN5alloc5alloc6Global19shrink_impl_runtime17h358ef96ff63a5506E, symObjAddr: 0x254, symBinAddr: 0x2F920, symSize: 0x304 }
  - { offsetInCU: 0x1E, offset: 0xB5AB0, size: 0x8, addend: 0x0, symName: __ZN5alloc3fmt6format17h74a1851825c5eb74E, symObjAddr: 0x0, symBinAddr: 0x2FC24, symSize: 0xD8 }
  - { offsetInCU: 0x536, offset: 0xB5FC8, size: 0x8, addend: 0x0, symName: __ZN5alloc3fmt6format17h74a1851825c5eb74E, symObjAddr: 0x0, symBinAddr: 0x2FC24, symSize: 0xD8 }
  - { offsetInCU: 0x1E, offset: 0xB6178, size: 0x8, addend: 0x0, symName: '__ZN4core3ops8function5impls80_$LT$impl$u20$core..ops..function..FnOnce$LT$A$GT$$u20$for$u20$$RF$mut$u20$F$GT$9call_once17h8a222055b6b0e557E', symObjAddr: 0x0, symBinAddr: 0x2FCFC, symSize: 0x34 }
  - { offsetInCU: 0x68, offset: 0xB61C2, size: 0x8, addend: 0x0, symName: '__ZN4core3ops8function5impls80_$LT$impl$u20$core..ops..function..FnOnce$LT$A$GT$$u20$for$u20$$RF$mut$u20$F$GT$9call_once17h8a222055b6b0e557E', symObjAddr: 0x0, symBinAddr: 0x2FCFC, symSize: 0x34 }
  - { offsetInCU: 0x15F, offset: 0xB62B9, size: 0x8, addend: 0x0, symName: '__ZN4core4iter6traits8iterator8Iterator10min_by_key3key28_$u7b$$u7b$closure$u7d$$u7d$17h56754e32320b3004E', symObjAddr: 0x34, symBinAddr: 0x2FD30, symSize: 0x58 }
  - { offsetInCU: 0x1B9, offset: 0xB6313, size: 0x8, addend: 0x0, symName: '__ZN4core4iter6traits8iterator8Iterator10min_by_key3key28_$u7b$$u7b$closure$u7d$$u7d$17h6229e4f035663ca7E', symObjAddr: 0x8C, symBinAddr: 0x2FD88, symSize: 0x58 }
  - { offsetInCU: 0x214, offset: 0xB636E, size: 0x8, addend: 0x0, symName: __ZN4core4iter6traits8iterator8Iterator10min_by_key7compare17ha33ce8f4fd8b0f31E, symObjAddr: 0xE4, symBinAddr: 0x2FDE0, symSize: 0x3C }
  - { offsetInCU: 0x294, offset: 0xB63EE, size: 0x8, addend: 0x0, symName: '__ZN4core4iter6traits8iterator8Iterator3all5check28_$u7b$$u7b$closure$u7d$$u7d$17ha5a4e741704ee0e0E', symObjAddr: 0x120, symBinAddr: 0x2FE1C, symSize: 0x58 }
  - { offsetInCU: 0x2F0, offset: 0xB644A, size: 0x8, addend: 0x0, symName: '__ZN4core4iter6traits8iterator8Iterator3all5check28_$u7b$$u7b$closure$u7d$$u7d$17hd96f26bc1fe61ce4E', symObjAddr: 0x178, symBinAddr: 0x2FE74, symSize: 0x58 }
  - { offsetInCU: 0x358, offset: 0xB64B2, size: 0x8, addend: 0x0, symName: '__ZN4core4iter6traits8iterator8Iterator6min_by4fold28_$u7b$$u7b$closure$u7d$$u7d$17h37d0ec3f85e2d1aaE', symObjAddr: 0x1D0, symBinAddr: 0x2FECC, symSize: 0x4C }
  - { offsetInCU: 0x3C4, offset: 0xB651E, size: 0x8, addend: 0x0, symName: '__ZN4core4iter6traits8iterator8Iterator8for_each4call28_$u7b$$u7b$closure$u7d$$u7d$17h11c2aeced4568c26E', symObjAddr: 0x21C, symBinAddr: 0x2FF18, symSize: 0x28 }
  - { offsetInCU: 0x41C, offset: 0xB6576, size: 0x8, addend: 0x0, symName: '__ZN4core4iter6traits8iterator8Iterator8for_each4call28_$u7b$$u7b$closure$u7d$$u7d$17h24bcb9e5d68abd0dE', symObjAddr: 0x244, symBinAddr: 0x2FF40, symSize: 0x28 }
  - { offsetInCU: 0x474, offset: 0xB65CE, size: 0x8, addend: 0x0, symName: '__ZN4core4iter6traits8iterator8Iterator8for_each4call28_$u7b$$u7b$closure$u7d$$u7d$17h2a8be52b1705755eE', symObjAddr: 0x26C, symBinAddr: 0x2FF68, symSize: 0x28 }
  - { offsetInCU: 0x4CC, offset: 0xB6626, size: 0x8, addend: 0x0, symName: '__ZN4core4iter6traits8iterator8Iterator8for_each4call28_$u7b$$u7b$closure$u7d$$u7d$17h359d75a7d020f216E', symObjAddr: 0x294, symBinAddr: 0x2FF90, symSize: 0x28 }
  - { offsetInCU: 0x524, offset: 0xB667E, size: 0x8, addend: 0x0, symName: '__ZN4core4iter6traits8iterator8Iterator8for_each4call28_$u7b$$u7b$closure$u7d$$u7d$17h4d4146de6a259e5bE', symObjAddr: 0x2BC, symBinAddr: 0x2FFB8, symSize: 0x28 }
  - { offsetInCU: 0x57C, offset: 0xB66D6, size: 0x8, addend: 0x0, symName: '__ZN4core4iter6traits8iterator8Iterator8for_each4call28_$u7b$$u7b$closure$u7d$$u7d$17h5305ea46668dd4e7E', symObjAddr: 0x2E4, symBinAddr: 0x2FFE0, symSize: 0x28 }
  - { offsetInCU: 0x5D4, offset: 0xB672E, size: 0x8, addend: 0x0, symName: '__ZN4core4iter6traits8iterator8Iterator8for_each4call28_$u7b$$u7b$closure$u7d$$u7d$17h6a6ccc42ad4586e7E', symObjAddr: 0x30C, symBinAddr: 0x30008, symSize: 0x2C }
  - { offsetInCU: 0x62C, offset: 0xB6786, size: 0x8, addend: 0x0, symName: '__ZN4core4iter6traits8iterator8Iterator8for_each4call28_$u7b$$u7b$closure$u7d$$u7d$17h6c0ee681a17166d8E', symObjAddr: 0x338, symBinAddr: 0x30034, symSize: 0x28 }
  - { offsetInCU: 0x684, offset: 0xB67DE, size: 0x8, addend: 0x0, symName: '__ZN4core4iter6traits8iterator8Iterator8for_each4call28_$u7b$$u7b$closure$u7d$$u7d$17h826cdd5b19dc2034E', symObjAddr: 0x360, symBinAddr: 0x3005C, symSize: 0x28 }
  - { offsetInCU: 0x6DC, offset: 0xB6836, size: 0x8, addend: 0x0, symName: '__ZN4core4iter6traits8iterator8Iterator8for_each4call28_$u7b$$u7b$closure$u7d$$u7d$17hce495d4e1adec714E', symObjAddr: 0x388, symBinAddr: 0x30084, symSize: 0x28 }
  - { offsetInCU: 0x734, offset: 0xB688E, size: 0x8, addend: 0x0, symName: '__ZN4core4iter6traits8iterator8Iterator8for_each4call28_$u7b$$u7b$closure$u7d$$u7d$17hf3777714baa2bc47E', symObjAddr: 0x3B0, symBinAddr: 0x300AC, symSize: 0x28 }
  - { offsetInCU: 0x1E, offset: 0xB6FAD, size: 0x8, addend: 0x0, symName: __ZN4pyo35types4list17try_new_from_iter17h3a315d381d6d3180E, symObjAddr: 0x0, symBinAddr: 0x300D4, symSize: 0x2C8 }
  - { offsetInCU: 0x19E0, offset: 0xB896F, size: 0x8, addend: 0x0, symName: __ZN4pyo35types4list17try_new_from_iter17h3a315d381d6d3180E, symObjAddr: 0x0, symBinAddr: 0x300D4, symSize: 0x2C8 }
  - { offsetInCU: 0x1B01, offset: 0xB8A90, size: 0x8, addend: 0x0, symName: __ZN4pyo35types4list17try_new_from_iter17hab699bf0ae0c6a23E, symObjAddr: 0x2C8, symBinAddr: 0x3039C, symSize: 0x2C8 }
  - { offsetInCU: 0x1C22, offset: 0xB8BB1, size: 0x8, addend: 0x0, symName: __ZN4pyo35types4list17try_new_from_iter17hb652c32b62824db6E, symObjAddr: 0x590, symBinAddr: 0x30664, symSize: 0x2DC }
  - { offsetInCU: 0x1D48, offset: 0xB8CD7, size: 0x8, addend: 0x0, symName: '__ZN4pyo35types4list17try_new_from_iter28_$u7b$$u7b$closure$u7d$$u7d$17h2e7a98218dcb90ceE', symObjAddr: 0x86C, symBinAddr: 0x30940, symSize: 0x114 }
  - { offsetInCU: 0x1DBD, offset: 0xB8D4C, size: 0x8, addend: 0x0, symName: '__ZN4pyo35types4list17try_new_from_iter28_$u7b$$u7b$closure$u7d$$u7d$17h8dc9ff68a6406533E', symObjAddr: 0x980, symBinAddr: 0x30A54, symSize: 0x114 }
  - { offsetInCU: 0x1E32, offset: 0xB8DC1, size: 0x8, addend: 0x0, symName: '__ZN4pyo35types4list17try_new_from_iter28_$u7b$$u7b$closure$u7d$$u7d$17he93b5fc6a8f15fa1E', symObjAddr: 0xA94, symBinAddr: 0x30B68, symSize: 0x114 }
  - { offsetInCU: 0x1F01, offset: 0xB8E90, size: 0x8, addend: 0x0, symName: '__ZN4pyo35types4list6PyList3new28_$u7b$$u7b$closure$u7d$$u7d$17h418e4e55a4ebc202E', symObjAddr: 0xC1C, symBinAddr: 0x30CF0, symSize: 0x24 }
  - { offsetInCU: 0x296A, offset: 0xB98F9, size: 0x8, addend: 0x0, symName: __ZN4pyo35types4list6PyList3new17h46036cdd4e626767E, symObjAddr: 0xBA8, symBinAddr: 0x30C7C, symSize: 0x74 }
  - { offsetInCU: 0x1E, offset: 0xB9B73, size: 0x8, addend: 0x0, symName: '__ZN4core3f6421_$LT$impl$u20$f64$GT$3abs17h03a334546433a4cdE', symObjAddr: 0x0, symBinAddr: 0x30D14, symSize: 0x1C }
  - { offsetInCU: 0x3A, offset: 0xB9B8F, size: 0x8, addend: 0x0, symName: '__ZN4core3f6421_$LT$impl$u20$f64$GT$3abs17h03a334546433a4cdE', symObjAddr: 0x0, symBinAddr: 0x30D14, symSize: 0x1C }
  - { offsetInCU: 0xD9, offset: 0xB9C2E, size: 0x8, addend: 0x0, symName: '__ZN4core3f6421_$LT$impl$u20$f64$GT$5clamp17h7b9da8891255dce2E', symObjAddr: 0x1C, symBinAddr: 0x30D30, symSize: 0x104 }
  - { offsetInCU: 0x1E, offset: 0xBA11C, size: 0x8, addend: 0x0, symName: '__ZN8nalgebra4base12construction205_$LT$impl$u20$nalgebra..base..matrix..Matrix$LT$T$C$R$C$C$C$$LT$nalgebra..base..default_allocator..DefaultAllocator$u20$as$u20$nalgebra..base..allocator..Allocator$LT$R$C$C$GT$$GT$..Buffer$LT$T$GT$$GT$$GT$13zeros_generic17h9f8d0606a4e44ac1E', symObjAddr: 0x0, symBinAddr: 0x30E34, symSize: 0x40 }
  - { offsetInCU: 0x48F, offset: 0xBA58D, size: 0x8, addend: 0x0, symName: '__ZN8nalgebra4base12construction205_$LT$impl$u20$nalgebra..base..matrix..Matrix$LT$T$C$R$C$C$C$$LT$nalgebra..base..default_allocator..DefaultAllocator$u20$as$u20$nalgebra..base..allocator..Allocator$LT$R$C$C$GT$$GT$..Buffer$LT$T$GT$$GT$$GT$13zeros_generic17h9f8d0606a4e44ac1E', symObjAddr: 0x0, symBinAddr: 0x30E34, symSize: 0x40 }
  - { offsetInCU: 0x4DA, offset: 0xBA5D8, size: 0x8, addend: 0x0, symName: '__ZN8nalgebra4base12construction205_$LT$impl$u20$nalgebra..base..matrix..Matrix$LT$T$C$R$C$C$C$$LT$nalgebra..base..default_allocator..DefaultAllocator$u20$as$u20$nalgebra..base..allocator..Allocator$LT$R$C$C$GT$$GT$..Buffer$LT$T$GT$$GT$$GT$20from_element_generic17h1399454479bd2a0cE', symObjAddr: 0x40, symBinAddr: 0x30E74, symSize: 0x120 }
  - { offsetInCU: 0x5B8, offset: 0xBA6B6, size: 0x8, addend: 0x0, symName: '__ZN8nalgebra4base12construction205_$LT$impl$u20$nalgebra..base..matrix..Matrix$LT$T$C$R$C$C$C$$LT$nalgebra..base..default_allocator..DefaultAllocator$u20$as$u20$nalgebra..base..allocator..Allocator$LT$R$C$C$GT$$GT$..Buffer$LT$T$GT$$GT$$GT$21from_iterator_generic17h26046a98bad223b8E', symObjAddr: 0x160, symBinAddr: 0x30F94, symSize: 0x74 }
  - { offsetInCU: 0x658, offset: 0xBA756, size: 0x8, addend: 0x0, symName: '__ZN8nalgebra4base12construction240_$LT$impl$u20$nalgebra..base..matrix..Matrix$LT$T$C$nalgebra..base..dimension..Dyn$C$nalgebra..base..dimension..Dyn$C$nalgebra..base..vec_storage..VecStorage$LT$T$C$nalgebra..base..dimension..Dyn$C$nalgebra..base..dimension..Dyn$GT$$GT$$GT$5zeros17hbf3f02cee288e77aE', symObjAddr: 0x1D4, symBinAddr: 0x31008, symSize: 0x24 }
  - { offsetInCU: 0x1E, offset: 0xBA7AF, size: 0x8, addend: 0x0, symName: '__ZN103_$LT$alloc..vec..into_iter..IntoIter$LT$T$C$A$GT$$u20$as$u20$core..iter..traits..iterator..Iterator$GT$4next17h6961d4da0f4afe74E', symObjAddr: 0x0, symBinAddr: 0x3102C, symSize: 0x94 }
  - { offsetInCU: 0x25AB, offset: 0xBCD3C, size: 0x8, addend: 0x0, symName: __ZN4core4iter6traits10exact_size17ExactSizeIterator3len17h28a7e6647fcbe275E, symObjAddr: 0x9A8, symBinAddr: 0x319D4, symSize: 0xB8 }
  - { offsetInCU: 0x2677, offset: 0xBCE08, size: 0x8, addend: 0x0, symName: __ZN4core4iter6traits10exact_size17ExactSizeIterator3len17hf1aab2b4109bb4f3E, symObjAddr: 0xA60, symBinAddr: 0x31A8C, symSize: 0xB8 }
  - { offsetInCU: 0x2985, offset: 0xBD116, size: 0x8, addend: 0x0, symName: __ZN4core4iter6traits8iterator8Iterator3map17h6641df8731ef8712E, symObjAddr: 0xB18, symBinAddr: 0x31B44, symSize: 0x28 }
  - { offsetInCU: 0x29F2, offset: 0xBD183, size: 0x8, addend: 0x0, symName: __ZN4core4iter6traits8iterator8Iterator3map17h7b63f371071d8f65E, symObjAddr: 0xB40, symBinAddr: 0x31B6C, symSize: 0x28 }
  - { offsetInCU: 0x2A5F, offset: 0xBD1F0, size: 0x8, addend: 0x0, symName: __ZN4core4iter6traits8iterator8Iterator3map17h96d5b1e57c41e745E, symObjAddr: 0xB68, symBinAddr: 0x31B94, symSize: 0x28 }
  - { offsetInCU: 0x38BD, offset: 0xBE04E, size: 0x8, addend: 0x0, symName: '__ZN103_$LT$alloc..vec..into_iter..IntoIter$LT$T$C$A$GT$$u20$as$u20$core..iter..traits..iterator..Iterator$GT$4next17h6961d4da0f4afe74E', symObjAddr: 0x0, symBinAddr: 0x3102C, symSize: 0x94 }
  - { offsetInCU: 0x3A17, offset: 0xBE1A8, size: 0x8, addend: 0x0, symName: '__ZN103_$LT$alloc..vec..into_iter..IntoIter$LT$T$C$A$GT$$u20$as$u20$core..iter..traits..iterator..Iterator$GT$4next17hd16e2ce9b1add4dbE', symObjAddr: 0x94, symBinAddr: 0x310C0, symSize: 0xAC }
  - { offsetInCU: 0x3B75, offset: 0xBE306, size: 0x8, addend: 0x0, symName: '__ZN103_$LT$alloc..vec..into_iter..IntoIter$LT$T$C$A$GT$$u20$as$u20$core..iter..traits..iterator..Iterator$GT$4next17hf8b50f315ff5ec60E', symObjAddr: 0x140, symBinAddr: 0x3116C, symSize: 0x94 }
  - { offsetInCU: 0x3CCF, offset: 0xBE460, size: 0x8, addend: 0x0, symName: '__ZN103_$LT$alloc..vec..into_iter..IntoIter$LT$T$C$A$GT$$u20$as$u20$core..iter..traits..iterator..Iterator$GT$8try_fold17h5f8830f65ebf9d61E', symObjAddr: 0x1D4, symBinAddr: 0x31200, symSize: 0x17C }
  - { offsetInCU: 0x3EAF, offset: 0xBE640, size: 0x8, addend: 0x0, symName: '__ZN103_$LT$alloc..vec..into_iter..IntoIter$LT$T$C$A$GT$$u20$as$u20$core..iter..traits..iterator..Iterator$GT$8try_fold17h629040e934e8d518E', symObjAddr: 0x350, symBinAddr: 0x3137C, symSize: 0x19C }
  - { offsetInCU: 0x408F, offset: 0xBE820, size: 0x8, addend: 0x0, symName: '__ZN103_$LT$alloc..vec..into_iter..IntoIter$LT$T$C$A$GT$$u20$as$u20$core..iter..traits..iterator..Iterator$GT$8try_fold17hcc4518037b1dac56E', symObjAddr: 0x4EC, symBinAddr: 0x31518, symSize: 0x1D8 }
  - { offsetInCU: 0x4254, offset: 0xBE9E5, size: 0x8, addend: 0x0, symName: '__ZN103_$LT$alloc..vec..into_iter..IntoIter$LT$T$C$A$GT$$u20$as$u20$core..iter..traits..iterator..Iterator$GT$9size_hint17h8e250eec7d6f7254E', symObjAddr: 0x6C4, symBinAddr: 0x316F0, symSize: 0xB4 }
  - { offsetInCU: 0x436D, offset: 0xBEAFE, size: 0x8, addend: 0x0, symName: '__ZN103_$LT$alloc..vec..into_iter..IntoIter$LT$T$C$A$GT$$u20$as$u20$core..iter..traits..iterator..Iterator$GT$9size_hint17had75defa4cbd4858E', symObjAddr: 0x778, symBinAddr: 0x317A4, symSize: 0xB4 }
  - { offsetInCU: 0x4486, offset: 0xBEC17, size: 0x8, addend: 0x0, symName: '__ZN103_$LT$alloc..vec..into_iter..IntoIter$LT$T$C$A$GT$$u20$as$u20$core..iter..traits..iterator..Iterator$GT$9size_hint17hb6b2ce208bdf3e39E', symObjAddr: 0x82C, symBinAddr: 0x31858, symSize: 0xB4 }
  - { offsetInCU: 0x459F, offset: 0xBED30, size: 0x8, addend: 0x0, symName: '__ZN103_$LT$alloc..vec..into_iter..IntoIter$LT$T$C$A$GT$$u20$as$u20$core..iter..traits..iterator..Iterator$GT$9size_hint17he61a3bc3563bbe9dE', symObjAddr: 0x8E0, symBinAddr: 0x3190C, symSize: 0xB4 }
  - { offsetInCU: 0x46BE, offset: 0xBEE4F, size: 0x8, addend: 0x0, symName: '__ZN104_$LT$alloc..vec..into_iter..IntoIter$LT$T$GT$$u20$as$u20$alloc..vec..in_place_collect..AsVecIntoIter$GT$12as_into_iter17h243b24a320403ba3E', symObjAddr: 0x994, symBinAddr: 0x319C0, symSize: 0x14 }
  - { offsetInCU: 0x4946, offset: 0xBF0D7, size: 0x8, addend: 0x0, symName: '__ZN97_$LT$alloc..vec..into_iter..IntoIter$LT$T$C$A$GT$$u20$as$u20$core..iter..adapters..SourceIter$GT$8as_inner17h49e7cc74e9ca91f8E', symObjAddr: 0xF40, symBinAddr: 0x31F6C, symSize: 0x14 }
  - { offsetInCU: 0x4F9D, offset: 0xBF72E, size: 0x8, addend: 0x0, symName: '__ZN5alloc3vec9into_iter21IntoIter$LT$T$C$A$GT$16as_raw_mut_slice17h2d6b3d01c52e298fE', symObjAddr: 0xB90, symBinAddr: 0x31BBC, symSize: 0xCC }
  - { offsetInCU: 0x50ED, offset: 0xBF87E, size: 0x8, addend: 0x0, symName: '__ZN5alloc3vec9into_iter21IntoIter$LT$T$C$A$GT$16as_raw_mut_slice17h3af6c3c1541d5380E', symObjAddr: 0xC5C, symBinAddr: 0x31C88, symSize: 0xCC }
  - { offsetInCU: 0x523D, offset: 0xBF9CE, size: 0x8, addend: 0x0, symName: '__ZN5alloc3vec9into_iter21IntoIter$LT$T$C$A$GT$16as_raw_mut_slice17h6c00dcaca2909af4E', symObjAddr: 0xD28, symBinAddr: 0x31D54, symSize: 0xCC }
  - { offsetInCU: 0x538D, offset: 0xBFB1E, size: 0x8, addend: 0x0, symName: '__ZN5alloc3vec9into_iter21IntoIter$LT$T$C$A$GT$16as_raw_mut_slice17hbd027bc50519ca2eE', symObjAddr: 0xDF4, symBinAddr: 0x31E20, symSize: 0xCC }
  - { offsetInCU: 0x5501, offset: 0xBFC92, size: 0x8, addend: 0x0, symName: '__ZN5alloc3vec9into_iter21IntoIter$LT$T$C$A$GT$32forget_allocation_drop_remaining17h451972f1e909e315E', symObjAddr: 0xEC0, symBinAddr: 0x31EEC, symSize: 0x80 }
  - { offsetInCU: 0x1E, offset: 0xBFFF4, size: 0x8, addend: 0x0, symName: '__ZN63_$LT$I$u20$as$u20$core..iter..traits..collect..IntoIterator$GT$9into_iter17h49988f43f7991fcbE', symObjAddr: 0x0, symBinAddr: 0x31F80, symSize: 0x18 }
  - { offsetInCU: 0x853, offset: 0xC0829, size: 0x8, addend: 0x0, symName: '__ZN63_$LT$I$u20$as$u20$core..iter..traits..collect..IntoIterator$GT$9into_iter17h49988f43f7991fcbE', symObjAddr: 0x0, symBinAddr: 0x31F80, symSize: 0x18 }
  - { offsetInCU: 0x1E, offset: 0xC17F2, size: 0x8, addend: 0x0, symName: __ZN4core3fmt9Arguments3new17h11390a69796b8e6dE, symObjAddr: 0x0, symBinAddr: 0x31F98, symSize: 0x1C }
  - { offsetInCU: 0x43E, offset: 0xC1C12, size: 0x8, addend: 0x0, symName: __ZN4core3fmt9Arguments3new17h11390a69796b8e6dE, symObjAddr: 0x0, symBinAddr: 0x31F98, symSize: 0x1C }
  - { offsetInCU: 0x4A4, offset: 0xC1C78, size: 0x8, addend: 0x0, symName: __ZN4core3fmt9Arguments3new17h28fc3310ceddd92bE, symObjAddr: 0x1C, symBinAddr: 0x31FB4, symSize: 0x1C }
  - { offsetInCU: 0x50A, offset: 0xC1CDE, size: 0x8, addend: 0x0, symName: __ZN4core3fmt9Arguments3new17h41c4309ab3171df7E, symObjAddr: 0x38, symBinAddr: 0x31FD0, symSize: 0x1C }
  - { offsetInCU: 0x570, offset: 0xC1D44, size: 0x8, addend: 0x0, symName: __ZN4core3fmt9Arguments3new17h8172789046ef1d93E, symObjAddr: 0x54, symBinAddr: 0x31FEC, symSize: 0x1C }
  - { offsetInCU: 0x5D6, offset: 0xC1DAA, size: 0x8, addend: 0x0, symName: __ZN4core3fmt9Arguments3new17h9642db96ae6bac01E, symObjAddr: 0x70, symBinAddr: 0x32008, symSize: 0x1C }
  - { offsetInCU: 0x622, offset: 0xC1DF6, size: 0x8, addend: 0x0, symName: __ZN4core3fmt9Arguments3new17hc13893d948b6b7b1E, symObjAddr: 0x8C, symBinAddr: 0x32024, symSize: 0x1C }
  - { offsetInCU: 0x654, offset: 0xC1E28, size: 0x8, addend: 0x0, symName: __ZN4core3fmt9Arguments3new17hd34ea6c10f9b7f72E, symObjAddr: 0xA8, symBinAddr: 0x32040, symSize: 0x1C }
  - { offsetInCU: 0x6A0, offset: 0xC1E74, size: 0x8, addend: 0x0, symName: __ZN4core3fmt9Arguments3new17hd6dc4531c73ca625E, symObjAddr: 0xC4, symBinAddr: 0x3205C, symSize: 0x1C }
  - { offsetInCU: 0x6EC, offset: 0xC1EC0, size: 0x8, addend: 0x0, symName: __ZN4core3fmt9Arguments3new17heaab67bee613ee4bE, symObjAddr: 0xE0, symBinAddr: 0x32078, symSize: 0x1C }
  - { offsetInCU: 0x1E, offset: 0xC1F10, size: 0x8, addend: 0x0, symName: '__ZN57_$LT$$u5b$T$u5d$$u20$as$u20$numpy..convert..ToPyArray$GT$10to_pyarray17h01fad2ff96d988a8E', symObjAddr: 0x0, symBinAddr: 0x32094, symSize: 0x28 }
  - { offsetInCU: 0x1216, offset: 0xC3108, size: 0x8, addend: 0x0, symName: '__ZN57_$LT$$u5b$T$u5d$$u20$as$u20$numpy..convert..ToPyArray$GT$10to_pyarray17h01fad2ff96d988a8E', symObjAddr: 0x0, symBinAddr: 0x32094, symSize: 0x28 }
  - { offsetInCU: 0x1E, offset: 0xC37CF, size: 0x8, addend: 0x0, symName: __ZN8pyo3_ffi7cpython10listobject15PyList_SET_ITEM17hb7ff70516ffb431cE, symObjAddr: 0x0, symBinAddr: 0x320BC, symSize: 0x110 }
  - { offsetInCU: 0x638, offset: 0xC3DE9, size: 0x8, addend: 0x0, symName: __ZN8pyo3_ffi7cpython10listobject15PyList_SET_ITEM17hb7ff70516ffb431cE, symObjAddr: 0x0, symBinAddr: 0x320BC, symSize: 0x110 }
  - { offsetInCU: 0x1E, offset: 0xC4DBB, size: 0x8, addend: 0x0, symName: '__ZN111_$LT$T$u20$as$u20$pyo3..impl_..callback..IntoPyCallbackOutput$LT$$BP$mut$u20$pyo3_ffi..object..PyObject$GT$$GT$7convert17h8e0719b9e79b9a36E', symObjAddr: 0x0, symBinAddr: 0x321CC, symSize: 0x30 }
  - { offsetInCU: 0x1C5C, offset: 0xC69F9, size: 0x8, addend: 0x0, symName: '__ZN111_$LT$T$u20$as$u20$pyo3..impl_..callback..IntoPyCallbackOutput$LT$$BP$mut$u20$pyo3_ffi..object..PyObject$GT$$GT$7convert17h8e0719b9e79b9a36E', symObjAddr: 0x0, symBinAddr: 0x321CC, symSize: 0x30 }
  - { offsetInCU: 0x1CAA, offset: 0xC6A47, size: 0x8, addend: 0x0, symName: '__ZN111_$LT$T$u20$as$u20$pyo3..impl_..callback..IntoPyCallbackOutput$LT$$BP$mut$u20$pyo3_ffi..object..PyObject$GT$$GT$7convert17hb01d7cb4ed70411cE', symObjAddr: 0x30, symBinAddr: 0x321FC, symSize: 0x30 }
  - { offsetInCU: 0x1CF8, offset: 0xC6A95, size: 0x8, addend: 0x0, symName: '__ZN111_$LT$T$u20$as$u20$pyo3..impl_..callback..IntoPyCallbackOutput$LT$$BP$mut$u20$pyo3_ffi..object..PyObject$GT$$GT$7convert17he6335977a857adc9E', symObjAddr: 0x60, symBinAddr: 0x3222C, symSize: 0x30 }
  - { offsetInCU: 0x1D47, offset: 0xC6AE4, size: 0x8, addend: 0x0, symName: __ZN4pyo35impl_8callback7convert17h06aae18eb6a5fa57E, symObjAddr: 0x90, symBinAddr: 0x3225C, symSize: 0x20 }
  - { offsetInCU: 0x1D9E, offset: 0xC6B3B, size: 0x8, addend: 0x0, symName: __ZN4pyo35impl_8callback7convert17h0cc04e08b0880bbbE, symObjAddr: 0xB0, symBinAddr: 0x3227C, symSize: 0x20 }
  - { offsetInCU: 0x1DF5, offset: 0xC6B92, size: 0x8, addend: 0x0, symName: __ZN4pyo35impl_8callback7convert17h3d5311c984e3de89E, symObjAddr: 0xD0, symBinAddr: 0x3229C, symSize: 0x24 }
  - { offsetInCU: 0x1E4C, offset: 0xC6BE9, size: 0x8, addend: 0x0, symName: __ZN4pyo35impl_8callback7convert17h40e13b1e1d4aa889E, symObjAddr: 0xF4, symBinAddr: 0x322C0, symSize: 0x40 }
  - { offsetInCU: 0x1EA4, offset: 0xC6C41, size: 0x8, addend: 0x0, symName: __ZN4pyo35impl_8callback7convert17h48deab5e65e9b01fE, symObjAddr: 0x134, symBinAddr: 0x32300, symSize: 0x40 }
  - { offsetInCU: 0x1EFC, offset: 0xC6C99, size: 0x8, addend: 0x0, symName: __ZN4pyo35impl_8callback7convert17h58048546da45cf12E, symObjAddr: 0x174, symBinAddr: 0x32340, symSize: 0x24 }
  - { offsetInCU: 0x1F53, offset: 0xC6CF0, size: 0x8, addend: 0x0, symName: __ZN4pyo35impl_8callback7convert17h5a557be36fc6d58dE, symObjAddr: 0x198, symBinAddr: 0x32364, symSize: 0x1C }
  - { offsetInCU: 0x1FAA, offset: 0xC6D47, size: 0x8, addend: 0x0, symName: __ZN4pyo35impl_8callback7convert17h5d2ca583b12faddeE, symObjAddr: 0x1B4, symBinAddr: 0x32380, symSize: 0x40 }
  - { offsetInCU: 0x2002, offset: 0xC6D9F, size: 0x8, addend: 0x0, symName: __ZN4pyo35impl_8callback7convert17h6ccb09a9a7fc1894E, symObjAddr: 0x1F4, symBinAddr: 0x323C0, symSize: 0x24 }
  - { offsetInCU: 0x2059, offset: 0xC6DF6, size: 0x8, addend: 0x0, symName: __ZN4pyo35impl_8callback7convert17h71d2b37c8674f269E, symObjAddr: 0x218, symBinAddr: 0x323E4, symSize: 0x20 }
  - { offsetInCU: 0x20B0, offset: 0xC6E4D, size: 0x8, addend: 0x0, symName: __ZN4pyo35impl_8callback7convert17h80cd14a907f58c4eE, symObjAddr: 0x238, symBinAddr: 0x32404, symSize: 0x40 }
  - { offsetInCU: 0x2108, offset: 0xC6EA5, size: 0x8, addend: 0x0, symName: __ZN4pyo35impl_8callback7convert17haaed0964c3744488E, symObjAddr: 0x278, symBinAddr: 0x32444, symSize: 0x40 }
  - { offsetInCU: 0x2160, offset: 0xC6EFD, size: 0x8, addend: 0x0, symName: __ZN4pyo35impl_8callback7convert17hd00f552ef6766a3aE, symObjAddr: 0x2B8, symBinAddr: 0x32484, symSize: 0x40 }
  - { offsetInCU: 0x21B8, offset: 0xC6F55, size: 0x8, addend: 0x0, symName: __ZN4pyo35impl_8callback7convert17hda2383a65d397aa7E, symObjAddr: 0x2F8, symBinAddr: 0x324C4, symSize: 0x34 }
  - { offsetInCU: 0x2210, offset: 0xC6FAD, size: 0x8, addend: 0x0, symName: __ZN4pyo35impl_8callback7convert17hf8f7cfab1c46959bE, symObjAddr: 0x32C, symBinAddr: 0x324F8, symSize: 0x24 }
  - { offsetInCU: 0x1E, offset: 0xC7DF8, size: 0x8, addend: 0x0, symName: '__ZN106_$LT$core..result..Result$LT$T$C$E$GT$$u20$as$u20$pyo3..impl_..callback..IntoPyCallbackOutput$LT$U$GT$$GT$7convert17h2efc05c414e83719E', symObjAddr: 0x0, symBinAddr: 0x3251C, symSize: 0xF0 }
  - { offsetInCU: 0x1B11, offset: 0xC98EB, size: 0x8, addend: 0x0, symName: '__ZN153_$LT$core..result..Result$LT$T$C$F$GT$$u20$as$u20$core..ops..try_trait..FromResidual$LT$core..result..Result$LT$core..convert..Infallible$C$E$GT$$GT$$GT$13from_residual17h0008598df43a2910E', symObjAddr: 0x908, symBinAddr: 0x32E24, symSize: 0x6C }
  - { offsetInCU: 0x1B97, offset: 0xC9971, size: 0x8, addend: 0x0, symName: '__ZN153_$LT$core..result..Result$LT$T$C$F$GT$$u20$as$u20$core..ops..try_trait..FromResidual$LT$core..result..Result$LT$core..convert..Infallible$C$E$GT$$GT$$GT$13from_residual17h06e2cbe16ff6edcdE', symObjAddr: 0x974, symBinAddr: 0x32E90, symSize: 0x64 }
  - { offsetInCU: 0x1BFF, offset: 0xC99D9, size: 0x8, addend: 0x0, symName: '__ZN153_$LT$core..result..Result$LT$T$C$F$GT$$u20$as$u20$core..ops..try_trait..FromResidual$LT$core..result..Result$LT$core..convert..Infallible$C$E$GT$$GT$$GT$13from_residual17h0b52d1044d55acdaE', symObjAddr: 0x9D8, symBinAddr: 0x32EF4, symSize: 0x4C }
  - { offsetInCU: 0x1C66, offset: 0xC9A40, size: 0x8, addend: 0x0, symName: '__ZN153_$LT$core..result..Result$LT$T$C$F$GT$$u20$as$u20$core..ops..try_trait..FromResidual$LT$core..result..Result$LT$core..convert..Infallible$C$E$GT$$GT$$GT$13from_residual17h0baf81fd442e056fE', symObjAddr: 0xA24, symBinAddr: 0x32F40, symSize: 0x6C }
  - { offsetInCU: 0x1CEC, offset: 0xC9AC6, size: 0x8, addend: 0x0, symName: '__ZN153_$LT$core..result..Result$LT$T$C$F$GT$$u20$as$u20$core..ops..try_trait..FromResidual$LT$core..result..Result$LT$core..convert..Infallible$C$E$GT$$GT$$GT$13from_residual17h12a915d4ad54ac50E', symObjAddr: 0xA90, symBinAddr: 0x32FAC, symSize: 0x6C }
  - { offsetInCU: 0x1D72, offset: 0xC9B4C, size: 0x8, addend: 0x0, symName: '__ZN153_$LT$core..result..Result$LT$T$C$F$GT$$u20$as$u20$core..ops..try_trait..FromResidual$LT$core..result..Result$LT$core..convert..Infallible$C$E$GT$$GT$$GT$13from_residual17h144641c2e46db3fdE', symObjAddr: 0xAFC, symBinAddr: 0x33018, symSize: 0x6C }
  - { offsetInCU: 0x1DF8, offset: 0xC9BD2, size: 0x8, addend: 0x0, symName: '__ZN153_$LT$core..result..Result$LT$T$C$F$GT$$u20$as$u20$core..ops..try_trait..FromResidual$LT$core..result..Result$LT$core..convert..Infallible$C$E$GT$$GT$$GT$13from_residual17h17d670338f1cd7b3E', symObjAddr: 0xB68, symBinAddr: 0x33084, symSize: 0x6C }
  - { offsetInCU: 0x1E7E, offset: 0xC9C58, size: 0x8, addend: 0x0, symName: '__ZN153_$LT$core..result..Result$LT$T$C$F$GT$$u20$as$u20$core..ops..try_trait..FromResidual$LT$core..result..Result$LT$core..convert..Infallible$C$E$GT$$GT$$GT$13from_residual17h1abf41f7c333ece3E', symObjAddr: 0xBD4, symBinAddr: 0x330F0, symSize: 0x64 }
  - { offsetInCU: 0x1EE6, offset: 0xC9CC0, size: 0x8, addend: 0x0, symName: '__ZN153_$LT$core..result..Result$LT$T$C$F$GT$$u20$as$u20$core..ops..try_trait..FromResidual$LT$core..result..Result$LT$core..convert..Infallible$C$E$GT$$GT$$GT$13from_residual17h1b4e71a329a6cc0dE', symObjAddr: 0xC38, symBinAddr: 0x33154, symSize: 0x6C }
  - { offsetInCU: 0x1F6C, offset: 0xC9D46, size: 0x8, addend: 0x0, symName: '__ZN153_$LT$core..result..Result$LT$T$C$F$GT$$u20$as$u20$core..ops..try_trait..FromResidual$LT$core..result..Result$LT$core..convert..Infallible$C$E$GT$$GT$$GT$13from_residual17h1e80b819ac63206cE', symObjAddr: 0xCA4, symBinAddr: 0x331C0, symSize: 0x6C }
  - { offsetInCU: 0x1FF2, offset: 0xC9DCC, size: 0x8, addend: 0x0, symName: '__ZN153_$LT$core..result..Result$LT$T$C$F$GT$$u20$as$u20$core..ops..try_trait..FromResidual$LT$core..result..Result$LT$core..convert..Infallible$C$E$GT$$GT$$GT$13from_residual17h2186c8306a4f2c73E', symObjAddr: 0xD10, symBinAddr: 0x3322C, symSize: 0x6C }
  - { offsetInCU: 0x2078, offset: 0xC9E52, size: 0x8, addend: 0x0, symName: '__ZN153_$LT$core..result..Result$LT$T$C$F$GT$$u20$as$u20$core..ops..try_trait..FromResidual$LT$core..result..Result$LT$core..convert..Infallible$C$E$GT$$GT$$GT$13from_residual17h22b0fd8e6a1b386dE', symObjAddr: 0xD7C, symBinAddr: 0x33298, symSize: 0x64 }
  - { offsetInCU: 0x20E0, offset: 0xC9EBA, size: 0x8, addend: 0x0, symName: '__ZN153_$LT$core..result..Result$LT$T$C$F$GT$$u20$as$u20$core..ops..try_trait..FromResidual$LT$core..result..Result$LT$core..convert..Infallible$C$E$GT$$GT$$GT$13from_residual17h245fdfcb9015b9a8E', symObjAddr: 0xDE0, symBinAddr: 0x332FC, symSize: 0x64 }
  - { offsetInCU: 0x2148, offset: 0xC9F22, size: 0x8, addend: 0x0, symName: '__ZN153_$LT$core..result..Result$LT$T$C$F$GT$$u20$as$u20$core..ops..try_trait..FromResidual$LT$core..result..Result$LT$core..convert..Infallible$C$E$GT$$GT$$GT$13from_residual17h254ccc79f373f9a6E', symObjAddr: 0xE44, symBinAddr: 0x33360, symSize: 0x4C }
  - { offsetInCU: 0x21AF, offset: 0xC9F89, size: 0x8, addend: 0x0, symName: '__ZN153_$LT$core..result..Result$LT$T$C$F$GT$$u20$as$u20$core..ops..try_trait..FromResidual$LT$core..result..Result$LT$core..convert..Infallible$C$E$GT$$GT$$GT$13from_residual17h27c2bdf87e1785c9E', symObjAddr: 0xE90, symBinAddr: 0x333AC, symSize: 0x64 }
  - { offsetInCU: 0x2217, offset: 0xC9FF1, size: 0x8, addend: 0x0, symName: '__ZN153_$LT$core..result..Result$LT$T$C$F$GT$$u20$as$u20$core..ops..try_trait..FromResidual$LT$core..result..Result$LT$core..convert..Infallible$C$E$GT$$GT$$GT$13from_residual17h2944b2839cf7e459E', symObjAddr: 0xEF4, symBinAddr: 0x33410, symSize: 0x6C }
  - { offsetInCU: 0x229D, offset: 0xCA077, size: 0x8, addend: 0x0, symName: '__ZN153_$LT$core..result..Result$LT$T$C$F$GT$$u20$as$u20$core..ops..try_trait..FromResidual$LT$core..result..Result$LT$core..convert..Infallible$C$E$GT$$GT$$GT$13from_residual17h29ce56f54b365b63E', symObjAddr: 0xF60, symBinAddr: 0x3347C, symSize: 0x6C }
  - { offsetInCU: 0x2323, offset: 0xCA0FD, size: 0x8, addend: 0x0, symName: '__ZN153_$LT$core..result..Result$LT$T$C$F$GT$$u20$as$u20$core..ops..try_trait..FromResidual$LT$core..result..Result$LT$core..convert..Infallible$C$E$GT$$GT$$GT$13from_residual17h2a8dfe2a3ebe84fbE', symObjAddr: 0xFCC, symBinAddr: 0x334E8, symSize: 0x6C }
  - { offsetInCU: 0x23A9, offset: 0xCA183, size: 0x8, addend: 0x0, symName: '__ZN153_$LT$core..result..Result$LT$T$C$F$GT$$u20$as$u20$core..ops..try_trait..FromResidual$LT$core..result..Result$LT$core..convert..Infallible$C$E$GT$$GT$$GT$13from_residual17h2ac9698675802b70E', symObjAddr: 0x1038, symBinAddr: 0x33554, symSize: 0x6C }
  - { offsetInCU: 0x242F, offset: 0xCA209, size: 0x8, addend: 0x0, symName: '__ZN153_$LT$core..result..Result$LT$T$C$F$GT$$u20$as$u20$core..ops..try_trait..FromResidual$LT$core..result..Result$LT$core..convert..Infallible$C$E$GT$$GT$$GT$13from_residual17h30a0ec0a6c7790deE', symObjAddr: 0x10A4, symBinAddr: 0x335C0, symSize: 0x64 }
  - { offsetInCU: 0x2497, offset: 0xCA271, size: 0x8, addend: 0x0, symName: '__ZN153_$LT$core..result..Result$LT$T$C$F$GT$$u20$as$u20$core..ops..try_trait..FromResidual$LT$core..result..Result$LT$core..convert..Infallible$C$E$GT$$GT$$GT$13from_residual17h36407dc2019df4caE', symObjAddr: 0x1108, symBinAddr: 0x33624, symSize: 0x64 }
  - { offsetInCU: 0x24FF, offset: 0xCA2D9, size: 0x8, addend: 0x0, symName: '__ZN153_$LT$core..result..Result$LT$T$C$F$GT$$u20$as$u20$core..ops..try_trait..FromResidual$LT$core..result..Result$LT$core..convert..Infallible$C$E$GT$$GT$$GT$13from_residual17h3acc3968b2c19d1cE', symObjAddr: 0x116C, symBinAddr: 0x33688, symSize: 0x64 }
  - { offsetInCU: 0x2567, offset: 0xCA341, size: 0x8, addend: 0x0, symName: '__ZN153_$LT$core..result..Result$LT$T$C$F$GT$$u20$as$u20$core..ops..try_trait..FromResidual$LT$core..result..Result$LT$core..convert..Infallible$C$E$GT$$GT$$GT$13from_residual17h3bdc1ecc69e228e0E', symObjAddr: 0x11D0, symBinAddr: 0x336EC, symSize: 0x6C }
  - { offsetInCU: 0x25ED, offset: 0xCA3C7, size: 0x8, addend: 0x0, symName: '__ZN153_$LT$core..result..Result$LT$T$C$F$GT$$u20$as$u20$core..ops..try_trait..FromResidual$LT$core..result..Result$LT$core..convert..Infallible$C$E$GT$$GT$$GT$13from_residual17h3e25a6bcb9080762E', symObjAddr: 0x123C, symBinAddr: 0x33758, symSize: 0x64 }
  - { offsetInCU: 0x2655, offset: 0xCA42F, size: 0x8, addend: 0x0, symName: '__ZN153_$LT$core..result..Result$LT$T$C$F$GT$$u20$as$u20$core..ops..try_trait..FromResidual$LT$core..result..Result$LT$core..convert..Infallible$C$E$GT$$GT$$GT$13from_residual17h3e40bacc5c0ecbabE', symObjAddr: 0x12A0, symBinAddr: 0x337BC, symSize: 0x4C }
  - { offsetInCU: 0x26BC, offset: 0xCA496, size: 0x8, addend: 0x0, symName: '__ZN153_$LT$core..result..Result$LT$T$C$F$GT$$u20$as$u20$core..ops..try_trait..FromResidual$LT$core..result..Result$LT$core..convert..Infallible$C$E$GT$$GT$$GT$13from_residual17h3efa3885362bca8aE', symObjAddr: 0x12EC, symBinAddr: 0x33808, symSize: 0x64 }
  - { offsetInCU: 0x2724, offset: 0xCA4FE, size: 0x8, addend: 0x0, symName: '__ZN153_$LT$core..result..Result$LT$T$C$F$GT$$u20$as$u20$core..ops..try_trait..FromResidual$LT$core..result..Result$LT$core..convert..Infallible$C$E$GT$$GT$$GT$13from_residual17h4116cfbd45f51df0E', symObjAddr: 0x1350, symBinAddr: 0x3386C, symSize: 0x64 }
  - { offsetInCU: 0x278C, offset: 0xCA566, size: 0x8, addend: 0x0, symName: '__ZN153_$LT$core..result..Result$LT$T$C$F$GT$$u20$as$u20$core..ops..try_trait..FromResidual$LT$core..result..Result$LT$core..convert..Infallible$C$E$GT$$GT$$GT$13from_residual17h41323642e7e06ba5E', symObjAddr: 0x13B4, symBinAddr: 0x338D0, symSize: 0x6C }
  - { offsetInCU: 0x2812, offset: 0xCA5EC, size: 0x8, addend: 0x0, symName: '__ZN153_$LT$core..result..Result$LT$T$C$F$GT$$u20$as$u20$core..ops..try_trait..FromResidual$LT$core..result..Result$LT$core..convert..Infallible$C$E$GT$$GT$$GT$13from_residual17h49dfd07793e54c6aE', symObjAddr: 0x1420, symBinAddr: 0x3393C, symSize: 0x64 }
  - { offsetInCU: 0x287A, offset: 0xCA654, size: 0x8, addend: 0x0, symName: '__ZN153_$LT$core..result..Result$LT$T$C$F$GT$$u20$as$u20$core..ops..try_trait..FromResidual$LT$core..result..Result$LT$core..convert..Infallible$C$E$GT$$GT$$GT$13from_residual17h4b5e4e3eaf00bc90E', symObjAddr: 0x1484, symBinAddr: 0x339A0, symSize: 0x6C }
  - { offsetInCU: 0x2900, offset: 0xCA6DA, size: 0x8, addend: 0x0, symName: '__ZN153_$LT$core..result..Result$LT$T$C$F$GT$$u20$as$u20$core..ops..try_trait..FromResidual$LT$core..result..Result$LT$core..convert..Infallible$C$E$GT$$GT$$GT$13from_residual17h586cf070e880708eE', symObjAddr: 0x14F0, symBinAddr: 0x33A0C, symSize: 0x6C }
  - { offsetInCU: 0x2986, offset: 0xCA760, size: 0x8, addend: 0x0, symName: '__ZN153_$LT$core..result..Result$LT$T$C$F$GT$$u20$as$u20$core..ops..try_trait..FromResidual$LT$core..result..Result$LT$core..convert..Infallible$C$E$GT$$GT$$GT$13from_residual17h5dfd102bea72d45cE', symObjAddr: 0x155C, symBinAddr: 0x33A78, symSize: 0x64 }
  - { offsetInCU: 0x29EE, offset: 0xCA7C8, size: 0x8, addend: 0x0, symName: '__ZN153_$LT$core..result..Result$LT$T$C$F$GT$$u20$as$u20$core..ops..try_trait..FromResidual$LT$core..result..Result$LT$core..convert..Infallible$C$E$GT$$GT$$GT$13from_residual17h6104ac01b7983f97E', symObjAddr: 0x15C0, symBinAddr: 0x33ADC, symSize: 0x6C }
  - { offsetInCU: 0x2A74, offset: 0xCA84E, size: 0x8, addend: 0x0, symName: '__ZN153_$LT$core..result..Result$LT$T$C$F$GT$$u20$as$u20$core..ops..try_trait..FromResidual$LT$core..result..Result$LT$core..convert..Infallible$C$E$GT$$GT$$GT$13from_residual17h6444e1d4ec77b451E', symObjAddr: 0x162C, symBinAddr: 0x33B48, symSize: 0x4C }
  - { offsetInCU: 0x2ADB, offset: 0xCA8B5, size: 0x8, addend: 0x0, symName: '__ZN153_$LT$core..result..Result$LT$T$C$F$GT$$u20$as$u20$core..ops..try_trait..FromResidual$LT$core..result..Result$LT$core..convert..Infallible$C$E$GT$$GT$$GT$13from_residual17h673c3392a5a4d08eE', symObjAddr: 0x1678, symBinAddr: 0x33B94, symSize: 0x6C }
  - { offsetInCU: 0x2B61, offset: 0xCA93B, size: 0x8, addend: 0x0, symName: '__ZN153_$LT$core..result..Result$LT$T$C$F$GT$$u20$as$u20$core..ops..try_trait..FromResidual$LT$core..result..Result$LT$core..convert..Infallible$C$E$GT$$GT$$GT$13from_residual17h67b6107f4e909a0aE', symObjAddr: 0x16E4, symBinAddr: 0x33C00, symSize: 0x6C }
  - { offsetInCU: 0x2BE7, offset: 0xCA9C1, size: 0x8, addend: 0x0, symName: '__ZN153_$LT$core..result..Result$LT$T$C$F$GT$$u20$as$u20$core..ops..try_trait..FromResidual$LT$core..result..Result$LT$core..convert..Infallible$C$E$GT$$GT$$GT$13from_residual17h68fcbf02ff894c4aE', symObjAddr: 0x1750, symBinAddr: 0x33C6C, symSize: 0x6C }
  - { offsetInCU: 0x2C6D, offset: 0xCAA47, size: 0x8, addend: 0x0, symName: '__ZN153_$LT$core..result..Result$LT$T$C$F$GT$$u20$as$u20$core..ops..try_trait..FromResidual$LT$core..result..Result$LT$core..convert..Infallible$C$E$GT$$GT$$GT$13from_residual17h69b4dbeb8e313095E', symObjAddr: 0x17BC, symBinAddr: 0x33CD8, symSize: 0x6C }
  - { offsetInCU: 0x2CF3, offset: 0xCAACD, size: 0x8, addend: 0x0, symName: '__ZN153_$LT$core..result..Result$LT$T$C$F$GT$$u20$as$u20$core..ops..try_trait..FromResidual$LT$core..result..Result$LT$core..convert..Infallible$C$E$GT$$GT$$GT$13from_residual17h6d366825120961ecE', symObjAddr: 0x1828, symBinAddr: 0x33D44, symSize: 0x64 }
  - { offsetInCU: 0x2D5B, offset: 0xCAB35, size: 0x8, addend: 0x0, symName: '__ZN153_$LT$core..result..Result$LT$T$C$F$GT$$u20$as$u20$core..ops..try_trait..FromResidual$LT$core..result..Result$LT$core..convert..Infallible$C$E$GT$$GT$$GT$13from_residual17h6f8b3b0d7c0d58c2E', symObjAddr: 0x188C, symBinAddr: 0x33DA8, symSize: 0x6C }
  - { offsetInCU: 0x2DE1, offset: 0xCABBB, size: 0x8, addend: 0x0, symName: '__ZN153_$LT$core..result..Result$LT$T$C$F$GT$$u20$as$u20$core..ops..try_trait..FromResidual$LT$core..result..Result$LT$core..convert..Infallible$C$E$GT$$GT$$GT$13from_residual17h702c2c54f1278572E', symObjAddr: 0x18F8, symBinAddr: 0x33E14, symSize: 0x6C }
  - { offsetInCU: 0x2E67, offset: 0xCAC41, size: 0x8, addend: 0x0, symName: '__ZN153_$LT$core..result..Result$LT$T$C$F$GT$$u20$as$u20$core..ops..try_trait..FromResidual$LT$core..result..Result$LT$core..convert..Infallible$C$E$GT$$GT$$GT$13from_residual17h735e5f3575eb7ff2E', symObjAddr: 0x1964, symBinAddr: 0x33E80, symSize: 0x6C }
  - { offsetInCU: 0x2EED, offset: 0xCACC7, size: 0x8, addend: 0x0, symName: '__ZN153_$LT$core..result..Result$LT$T$C$F$GT$$u20$as$u20$core..ops..try_trait..FromResidual$LT$core..result..Result$LT$core..convert..Infallible$C$E$GT$$GT$$GT$13from_residual17h751e27bd7e2fab46E', symObjAddr: 0x19D0, symBinAddr: 0x33EEC, symSize: 0x4C }
  - { offsetInCU: 0x2F54, offset: 0xCAD2E, size: 0x8, addend: 0x0, symName: '__ZN153_$LT$core..result..Result$LT$T$C$F$GT$$u20$as$u20$core..ops..try_trait..FromResidual$LT$core..result..Result$LT$core..convert..Infallible$C$E$GT$$GT$$GT$13from_residual17h76ee2f6aeee79dd7E', symObjAddr: 0x1A1C, symBinAddr: 0x33F38, symSize: 0x6C }
  - { offsetInCU: 0x2FDA, offset: 0xCADB4, size: 0x8, addend: 0x0, symName: '__ZN153_$LT$core..result..Result$LT$T$C$F$GT$$u20$as$u20$core..ops..try_trait..FromResidual$LT$core..result..Result$LT$core..convert..Infallible$C$E$GT$$GT$$GT$13from_residual17h7a9a5176f93f0b69E', symObjAddr: 0x1A88, symBinAddr: 0x33FA4, symSize: 0x64 }
  - { offsetInCU: 0x3042, offset: 0xCAE1C, size: 0x8, addend: 0x0, symName: '__ZN153_$LT$core..result..Result$LT$T$C$F$GT$$u20$as$u20$core..ops..try_trait..FromResidual$LT$core..result..Result$LT$core..convert..Infallible$C$E$GT$$GT$$GT$13from_residual17h8020e30d32eaa402E', symObjAddr: 0x1AEC, symBinAddr: 0x34008, symSize: 0x6C }
  - { offsetInCU: 0x30C8, offset: 0xCAEA2, size: 0x8, addend: 0x0, symName: '__ZN153_$LT$core..result..Result$LT$T$C$F$GT$$u20$as$u20$core..ops..try_trait..FromResidual$LT$core..result..Result$LT$core..convert..Infallible$C$E$GT$$GT$$GT$13from_residual17h8028b52f3ac6c651E', symObjAddr: 0x1B58, symBinAddr: 0x34074, symSize: 0x6C }
  - { offsetInCU: 0x314E, offset: 0xCAF28, size: 0x8, addend: 0x0, symName: '__ZN153_$LT$core..result..Result$LT$T$C$F$GT$$u20$as$u20$core..ops..try_trait..FromResidual$LT$core..result..Result$LT$core..convert..Infallible$C$E$GT$$GT$$GT$13from_residual17h83ecfd675a662a0dE', symObjAddr: 0x1BC4, symBinAddr: 0x340E0, symSize: 0x64 }
  - { offsetInCU: 0x31B6, offset: 0xCAF90, size: 0x8, addend: 0x0, symName: '__ZN153_$LT$core..result..Result$LT$T$C$F$GT$$u20$as$u20$core..ops..try_trait..FromResidual$LT$core..result..Result$LT$core..convert..Infallible$C$E$GT$$GT$$GT$13from_residual17h84c70bde9a06d986E', symObjAddr: 0x1C28, symBinAddr: 0x34144, symSize: 0x6C }
  - { offsetInCU: 0x323C, offset: 0xCB016, size: 0x8, addend: 0x0, symName: '__ZN153_$LT$core..result..Result$LT$T$C$F$GT$$u20$as$u20$core..ops..try_trait..FromResidual$LT$core..result..Result$LT$core..convert..Infallible$C$E$GT$$GT$$GT$13from_residual17h8b875e0f8dd0e6b3E', symObjAddr: 0x1C94, symBinAddr: 0x341B0, symSize: 0x64 }
  - { offsetInCU: 0x32A4, offset: 0xCB07E, size: 0x8, addend: 0x0, symName: '__ZN153_$LT$core..result..Result$LT$T$C$F$GT$$u20$as$u20$core..ops..try_trait..FromResidual$LT$core..result..Result$LT$core..convert..Infallible$C$E$GT$$GT$$GT$13from_residual17h8e3acd2389c16008E', symObjAddr: 0x1CF8, symBinAddr: 0x34214, symSize: 0x6C }
  - { offsetInCU: 0x332A, offset: 0xCB104, size: 0x8, addend: 0x0, symName: '__ZN153_$LT$core..result..Result$LT$T$C$F$GT$$u20$as$u20$core..ops..try_trait..FromResidual$LT$core..result..Result$LT$core..convert..Infallible$C$E$GT$$GT$$GT$13from_residual17h90b40ca0d192a1b9E', symObjAddr: 0x1D64, symBinAddr: 0x34280, symSize: 0x6C }
  - { offsetInCU: 0x33B0, offset: 0xCB18A, size: 0x8, addend: 0x0, symName: '__ZN153_$LT$core..result..Result$LT$T$C$F$GT$$u20$as$u20$core..ops..try_trait..FromResidual$LT$core..result..Result$LT$core..convert..Infallible$C$E$GT$$GT$$GT$13from_residual17h93ed23bc764af797E', symObjAddr: 0x1DD0, symBinAddr: 0x342EC, symSize: 0x6C }
  - { offsetInCU: 0x3436, offset: 0xCB210, size: 0x8, addend: 0x0, symName: '__ZN153_$LT$core..result..Result$LT$T$C$F$GT$$u20$as$u20$core..ops..try_trait..FromResidual$LT$core..result..Result$LT$core..convert..Infallible$C$E$GT$$GT$$GT$13from_residual17h942f306dbe3b3d00E', symObjAddr: 0x1E3C, symBinAddr: 0x34358, symSize: 0x4C }
  - { offsetInCU: 0x349D, offset: 0xCB277, size: 0x8, addend: 0x0, symName: '__ZN153_$LT$core..result..Result$LT$T$C$F$GT$$u20$as$u20$core..ops..try_trait..FromResidual$LT$core..result..Result$LT$core..convert..Infallible$C$E$GT$$GT$$GT$13from_residual17h94ffeb8e58e0d225E', symObjAddr: 0x1E88, symBinAddr: 0x343A4, symSize: 0x6C }
  - { offsetInCU: 0x3523, offset: 0xCB2FD, size: 0x8, addend: 0x0, symName: '__ZN153_$LT$core..result..Result$LT$T$C$F$GT$$u20$as$u20$core..ops..try_trait..FromResidual$LT$core..result..Result$LT$core..convert..Infallible$C$E$GT$$GT$$GT$13from_residual17h95c956968635cf5aE', symObjAddr: 0x1EF4, symBinAddr: 0x34410, symSize: 0x6C }
  - { offsetInCU: 0x35A9, offset: 0xCB383, size: 0x8, addend: 0x0, symName: '__ZN153_$LT$core..result..Result$LT$T$C$F$GT$$u20$as$u20$core..ops..try_trait..FromResidual$LT$core..result..Result$LT$core..convert..Infallible$C$E$GT$$GT$$GT$13from_residual17h96c2e2425805d2ebE', symObjAddr: 0x1F60, symBinAddr: 0x3447C, symSize: 0x64 }
  - { offsetInCU: 0x3611, offset: 0xCB3EB, size: 0x8, addend: 0x0, symName: '__ZN153_$LT$core..result..Result$LT$T$C$F$GT$$u20$as$u20$core..ops..try_trait..FromResidual$LT$core..result..Result$LT$core..convert..Infallible$C$E$GT$$GT$$GT$13from_residual17h96e2a778184e3fafE', symObjAddr: 0x1FC4, symBinAddr: 0x344E0, symSize: 0x6C }
  - { offsetInCU: 0x3697, offset: 0xCB471, size: 0x8, addend: 0x0, symName: '__ZN153_$LT$core..result..Result$LT$T$C$F$GT$$u20$as$u20$core..ops..try_trait..FromResidual$LT$core..result..Result$LT$core..convert..Infallible$C$E$GT$$GT$$GT$13from_residual17h9a6420a6943041d7E', symObjAddr: 0x2030, symBinAddr: 0x3454C, symSize: 0x6C }
  - { offsetInCU: 0x371D, offset: 0xCB4F7, size: 0x8, addend: 0x0, symName: '__ZN153_$LT$core..result..Result$LT$T$C$F$GT$$u20$as$u20$core..ops..try_trait..FromResidual$LT$core..result..Result$LT$core..convert..Infallible$C$E$GT$$GT$$GT$13from_residual17ha7f193ec828e0c6aE', symObjAddr: 0x209C, symBinAddr: 0x345B8, symSize: 0x4C }
  - { offsetInCU: 0x3784, offset: 0xCB55E, size: 0x8, addend: 0x0, symName: '__ZN153_$LT$core..result..Result$LT$T$C$F$GT$$u20$as$u20$core..ops..try_trait..FromResidual$LT$core..result..Result$LT$core..convert..Infallible$C$E$GT$$GT$$GT$13from_residual17ha8da9bea19ac9d80E', symObjAddr: 0x20E8, symBinAddr: 0x34604, symSize: 0x6C }
  - { offsetInCU: 0x380A, offset: 0xCB5E4, size: 0x8, addend: 0x0, symName: '__ZN153_$LT$core..result..Result$LT$T$C$F$GT$$u20$as$u20$core..ops..try_trait..FromResidual$LT$core..result..Result$LT$core..convert..Infallible$C$E$GT$$GT$$GT$13from_residual17haa4156e69fcc54daE', symObjAddr: 0x2154, symBinAddr: 0x34670, symSize: 0x6C }
  - { offsetInCU: 0x3890, offset: 0xCB66A, size: 0x8, addend: 0x0, symName: '__ZN153_$LT$core..result..Result$LT$T$C$F$GT$$u20$as$u20$core..ops..try_trait..FromResidual$LT$core..result..Result$LT$core..convert..Infallible$C$E$GT$$GT$$GT$13from_residual17had6e38f02584320aE', symObjAddr: 0x21C0, symBinAddr: 0x346DC, symSize: 0x4C }
  - { offsetInCU: 0x38F7, offset: 0xCB6D1, size: 0x8, addend: 0x0, symName: '__ZN153_$LT$core..result..Result$LT$T$C$F$GT$$u20$as$u20$core..ops..try_trait..FromResidual$LT$core..result..Result$LT$core..convert..Infallible$C$E$GT$$GT$$GT$13from_residual17hae42c5ba185a9bf4E', symObjAddr: 0x220C, symBinAddr: 0x34728, symSize: 0x64 }
  - { offsetInCU: 0x395F, offset: 0xCB739, size: 0x8, addend: 0x0, symName: '__ZN153_$LT$core..result..Result$LT$T$C$F$GT$$u20$as$u20$core..ops..try_trait..FromResidual$LT$core..result..Result$LT$core..convert..Infallible$C$E$GT$$GT$$GT$13from_residual17hb0750084e9070eb6E', symObjAddr: 0x2270, symBinAddr: 0x3478C, symSize: 0x64 }
  - { offsetInCU: 0x39C7, offset: 0xCB7A1, size: 0x8, addend: 0x0, symName: '__ZN153_$LT$core..result..Result$LT$T$C$F$GT$$u20$as$u20$core..ops..try_trait..FromResidual$LT$core..result..Result$LT$core..convert..Infallible$C$E$GT$$GT$$GT$13from_residual17hb260045887af5f33E', symObjAddr: 0x22D4, symBinAddr: 0x347F0, symSize: 0x6C }
  - { offsetInCU: 0x3A4D, offset: 0xCB827, size: 0x8, addend: 0x0, symName: '__ZN153_$LT$core..result..Result$LT$T$C$F$GT$$u20$as$u20$core..ops..try_trait..FromResidual$LT$core..result..Result$LT$core..convert..Infallible$C$E$GT$$GT$$GT$13from_residual17hb4da2d89f5746b8fE', symObjAddr: 0x2340, symBinAddr: 0x3485C, symSize: 0x64 }
  - { offsetInCU: 0x3AB5, offset: 0xCB88F, size: 0x8, addend: 0x0, symName: '__ZN153_$LT$core..result..Result$LT$T$C$F$GT$$u20$as$u20$core..ops..try_trait..FromResidual$LT$core..result..Result$LT$core..convert..Infallible$C$E$GT$$GT$$GT$13from_residual17hb65907708cb5096aE', symObjAddr: 0x23A4, symBinAddr: 0x348C0, symSize: 0x6C }
  - { offsetInCU: 0x3B3B, offset: 0xCB915, size: 0x8, addend: 0x0, symName: '__ZN153_$LT$core..result..Result$LT$T$C$F$GT$$u20$as$u20$core..ops..try_trait..FromResidual$LT$core..result..Result$LT$core..convert..Infallible$C$E$GT$$GT$$GT$13from_residual17hba60574f8eae0b50E', symObjAddr: 0x2410, symBinAddr: 0x3492C, symSize: 0x6C }
  - { offsetInCU: 0x3BC1, offset: 0xCB99B, size: 0x8, addend: 0x0, symName: '__ZN153_$LT$core..result..Result$LT$T$C$F$GT$$u20$as$u20$core..ops..try_trait..FromResidual$LT$core..result..Result$LT$core..convert..Infallible$C$E$GT$$GT$$GT$13from_residual17hbc7096d91a53d0cbE', symObjAddr: 0x247C, symBinAddr: 0x34998, symSize: 0x4C }
  - { offsetInCU: 0x3C28, offset: 0xCBA02, size: 0x8, addend: 0x0, symName: '__ZN153_$LT$core..result..Result$LT$T$C$F$GT$$u20$as$u20$core..ops..try_trait..FromResidual$LT$core..result..Result$LT$core..convert..Infallible$C$E$GT$$GT$$GT$13from_residual17hbd28d25d388f4cd1E', symObjAddr: 0x24C8, symBinAddr: 0x349E4, symSize: 0x64 }
  - { offsetInCU: 0x3C90, offset: 0xCBA6A, size: 0x8, addend: 0x0, symName: '__ZN153_$LT$core..result..Result$LT$T$C$F$GT$$u20$as$u20$core..ops..try_trait..FromResidual$LT$core..result..Result$LT$core..convert..Infallible$C$E$GT$$GT$$GT$13from_residual17hc1375722e26a4885E', symObjAddr: 0x252C, symBinAddr: 0x34A48, symSize: 0x6C }
  - { offsetInCU: 0x3D16, offset: 0xCBAF0, size: 0x8, addend: 0x0, symName: '__ZN153_$LT$core..result..Result$LT$T$C$F$GT$$u20$as$u20$core..ops..try_trait..FromResidual$LT$core..result..Result$LT$core..convert..Infallible$C$E$GT$$GT$$GT$13from_residual17hc556525def56d40dE', symObjAddr: 0x2598, symBinAddr: 0x34AB4, symSize: 0x64 }
  - { offsetInCU: 0x3D7E, offset: 0xCBB58, size: 0x8, addend: 0x0, symName: '__ZN153_$LT$core..result..Result$LT$T$C$F$GT$$u20$as$u20$core..ops..try_trait..FromResidual$LT$core..result..Result$LT$core..convert..Infallible$C$E$GT$$GT$$GT$13from_residual17hc57ed7d102d8ba91E', symObjAddr: 0x25FC, symBinAddr: 0x34B18, symSize: 0x6C }
  - { offsetInCU: 0x3E04, offset: 0xCBBDE, size: 0x8, addend: 0x0, symName: '__ZN153_$LT$core..result..Result$LT$T$C$F$GT$$u20$as$u20$core..ops..try_trait..FromResidual$LT$core..result..Result$LT$core..convert..Infallible$C$E$GT$$GT$$GT$13from_residual17hc6c2edf78f30b342E', symObjAddr: 0x2668, symBinAddr: 0x34B84, symSize: 0x6C }
  - { offsetInCU: 0x3E8A, offset: 0xCBC64, size: 0x8, addend: 0x0, symName: '__ZN153_$LT$core..result..Result$LT$T$C$F$GT$$u20$as$u20$core..ops..try_trait..FromResidual$LT$core..result..Result$LT$core..convert..Infallible$C$E$GT$$GT$$GT$13from_residual17hc7bc981d0e446ed4E', symObjAddr: 0x26D4, symBinAddr: 0x34BF0, symSize: 0x6C }
  - { offsetInCU: 0x3F10, offset: 0xCBCEA, size: 0x8, addend: 0x0, symName: '__ZN153_$LT$core..result..Result$LT$T$C$F$GT$$u20$as$u20$core..ops..try_trait..FromResidual$LT$core..result..Result$LT$core..convert..Infallible$C$E$GT$$GT$$GT$13from_residual17hc977a58e0b729af1E', symObjAddr: 0x2740, symBinAddr: 0x34C5C, symSize: 0x6C }
  - { offsetInCU: 0x3F96, offset: 0xCBD70, size: 0x8, addend: 0x0, symName: '__ZN153_$LT$core..result..Result$LT$T$C$F$GT$$u20$as$u20$core..ops..try_trait..FromResidual$LT$core..result..Result$LT$core..convert..Infallible$C$E$GT$$GT$$GT$13from_residual17hc9e5cb9b494d324dE', symObjAddr: 0x27AC, symBinAddr: 0x34CC8, symSize: 0x4C }
  - { offsetInCU: 0x3FFD, offset: 0xCBDD7, size: 0x8, addend: 0x0, symName: '__ZN153_$LT$core..result..Result$LT$T$C$F$GT$$u20$as$u20$core..ops..try_trait..FromResidual$LT$core..result..Result$LT$core..convert..Infallible$C$E$GT$$GT$$GT$13from_residual17hcda67d4ddbf3575aE', symObjAddr: 0x27F8, symBinAddr: 0x34D14, symSize: 0x64 }
  - { offsetInCU: 0x4065, offset: 0xCBE3F, size: 0x8, addend: 0x0, symName: '__ZN153_$LT$core..result..Result$LT$T$C$F$GT$$u20$as$u20$core..ops..try_trait..FromResidual$LT$core..result..Result$LT$core..convert..Infallible$C$E$GT$$GT$$GT$13from_residual17hce3820b2cbd0cc09E', symObjAddr: 0x285C, symBinAddr: 0x34D78, symSize: 0x64 }
  - { offsetInCU: 0x40CD, offset: 0xCBEA7, size: 0x8, addend: 0x0, symName: '__ZN153_$LT$core..result..Result$LT$T$C$F$GT$$u20$as$u20$core..ops..try_trait..FromResidual$LT$core..result..Result$LT$core..convert..Infallible$C$E$GT$$GT$$GT$13from_residual17hd01d19f50f05112bE', symObjAddr: 0x28C0, symBinAddr: 0x34DDC, symSize: 0x64 }
  - { offsetInCU: 0x4135, offset: 0xCBF0F, size: 0x8, addend: 0x0, symName: '__ZN153_$LT$core..result..Result$LT$T$C$F$GT$$u20$as$u20$core..ops..try_trait..FromResidual$LT$core..result..Result$LT$core..convert..Infallible$C$E$GT$$GT$$GT$13from_residual17hd69af8014dd2d217E', symObjAddr: 0x292C, symBinAddr: 0x34E40, symSize: 0x64 }
  - { offsetInCU: 0x419D, offset: 0xCBF77, size: 0x8, addend: 0x0, symName: '__ZN153_$LT$core..result..Result$LT$T$C$F$GT$$u20$as$u20$core..ops..try_trait..FromResidual$LT$core..result..Result$LT$core..convert..Infallible$C$E$GT$$GT$$GT$13from_residual17hd784dc7eb13a20ffE', symObjAddr: 0x2990, symBinAddr: 0x34EA4, symSize: 0x64 }
  - { offsetInCU: 0x4205, offset: 0xCBFDF, size: 0x8, addend: 0x0, symName: '__ZN153_$LT$core..result..Result$LT$T$C$F$GT$$u20$as$u20$core..ops..try_trait..FromResidual$LT$core..result..Result$LT$core..convert..Infallible$C$E$GT$$GT$$GT$13from_residual17hd8fb67c7a1626f90E', symObjAddr: 0x29F4, symBinAddr: 0x34F08, symSize: 0x64 }
  - { offsetInCU: 0x426D, offset: 0xCC047, size: 0x8, addend: 0x0, symName: '__ZN153_$LT$core..result..Result$LT$T$C$F$GT$$u20$as$u20$core..ops..try_trait..FromResidual$LT$core..result..Result$LT$core..convert..Infallible$C$E$GT$$GT$$GT$13from_residual17he2174b81bf78a12eE', symObjAddr: 0x2A58, symBinAddr: 0x34F6C, symSize: 0x6C }
  - { offsetInCU: 0x42F3, offset: 0xCC0CD, size: 0x8, addend: 0x0, symName: '__ZN153_$LT$core..result..Result$LT$T$C$F$GT$$u20$as$u20$core..ops..try_trait..FromResidual$LT$core..result..Result$LT$core..convert..Infallible$C$E$GT$$GT$$GT$13from_residual17he3f7536307e07d84E', symObjAddr: 0x2AC4, symBinAddr: 0x34FD8, symSize: 0x6C }
  - { offsetInCU: 0x4379, offset: 0xCC153, size: 0x8, addend: 0x0, symName: '__ZN153_$LT$core..result..Result$LT$T$C$F$GT$$u20$as$u20$core..ops..try_trait..FromResidual$LT$core..result..Result$LT$core..convert..Infallible$C$E$GT$$GT$$GT$13from_residual17he58cfcbf7bc12326E', symObjAddr: 0x2B30, symBinAddr: 0x35044, symSize: 0x6C }
  - { offsetInCU: 0x43FF, offset: 0xCC1D9, size: 0x8, addend: 0x0, symName: '__ZN153_$LT$core..result..Result$LT$T$C$F$GT$$u20$as$u20$core..ops..try_trait..FromResidual$LT$core..result..Result$LT$core..convert..Infallible$C$E$GT$$GT$$GT$13from_residual17he751bdbafa287591E', symObjAddr: 0x2B9C, symBinAddr: 0x350B0, symSize: 0x64 }
  - { offsetInCU: 0x4467, offset: 0xCC241, size: 0x8, addend: 0x0, symName: '__ZN153_$LT$core..result..Result$LT$T$C$F$GT$$u20$as$u20$core..ops..try_trait..FromResidual$LT$core..result..Result$LT$core..convert..Infallible$C$E$GT$$GT$$GT$13from_residual17hea24f6c41e607d3fE', symObjAddr: 0x2C00, symBinAddr: 0x35114, symSize: 0x64 }
  - { offsetInCU: 0x44CF, offset: 0xCC2A9, size: 0x8, addend: 0x0, symName: '__ZN153_$LT$core..result..Result$LT$T$C$F$GT$$u20$as$u20$core..ops..try_trait..FromResidual$LT$core..result..Result$LT$core..convert..Infallible$C$E$GT$$GT$$GT$13from_residual17heab0286009df7484E', symObjAddr: 0x2C64, symBinAddr: 0x35178, symSize: 0x6C }
  - { offsetInCU: 0x4555, offset: 0xCC32F, size: 0x8, addend: 0x0, symName: '__ZN153_$LT$core..result..Result$LT$T$C$F$GT$$u20$as$u20$core..ops..try_trait..FromResidual$LT$core..result..Result$LT$core..convert..Infallible$C$E$GT$$GT$$GT$13from_residual17hecda4b6a5ca1864cE', symObjAddr: 0x2CD0, symBinAddr: 0x351E4, symSize: 0x6C }
  - { offsetInCU: 0x45DB, offset: 0xCC3B5, size: 0x8, addend: 0x0, symName: '__ZN153_$LT$core..result..Result$LT$T$C$F$GT$$u20$as$u20$core..ops..try_trait..FromResidual$LT$core..result..Result$LT$core..convert..Infallible$C$E$GT$$GT$$GT$13from_residual17hee7d896b9fb79729E', symObjAddr: 0x2D3C, symBinAddr: 0x35250, symSize: 0x64 }
  - { offsetInCU: 0x4643, offset: 0xCC41D, size: 0x8, addend: 0x0, symName: '__ZN153_$LT$core..result..Result$LT$T$C$F$GT$$u20$as$u20$core..ops..try_trait..FromResidual$LT$core..result..Result$LT$core..convert..Infallible$C$E$GT$$GT$$GT$13from_residual17heeb7a0c001f01469E', symObjAddr: 0x2DA0, symBinAddr: 0x352B4, symSize: 0x6C }
  - { offsetInCU: 0x46C9, offset: 0xCC4A3, size: 0x8, addend: 0x0, symName: '__ZN153_$LT$core..result..Result$LT$T$C$F$GT$$u20$as$u20$core..ops..try_trait..FromResidual$LT$core..result..Result$LT$core..convert..Infallible$C$E$GT$$GT$$GT$13from_residual17hf1ce3892489923d2E', symObjAddr: 0x2E0C, symBinAddr: 0x35320, symSize: 0x6C }
  - { offsetInCU: 0x474F, offset: 0xCC529, size: 0x8, addend: 0x0, symName: '__ZN153_$LT$core..result..Result$LT$T$C$F$GT$$u20$as$u20$core..ops..try_trait..FromResidual$LT$core..result..Result$LT$core..convert..Infallible$C$E$GT$$GT$$GT$13from_residual17hf384314629ab6d97E', symObjAddr: 0x2E78, symBinAddr: 0x3538C, symSize: 0x6C }
  - { offsetInCU: 0x47D5, offset: 0xCC5AF, size: 0x8, addend: 0x0, symName: '__ZN153_$LT$core..result..Result$LT$T$C$F$GT$$u20$as$u20$core..ops..try_trait..FromResidual$LT$core..result..Result$LT$core..convert..Infallible$C$E$GT$$GT$$GT$13from_residual17hf41aa7cd0c223997E', symObjAddr: 0x2EE4, symBinAddr: 0x353F8, symSize: 0x6C }
  - { offsetInCU: 0x485B, offset: 0xCC635, size: 0x8, addend: 0x0, symName: '__ZN153_$LT$core..result..Result$LT$T$C$F$GT$$u20$as$u20$core..ops..try_trait..FromResidual$LT$core..result..Result$LT$core..convert..Infallible$C$E$GT$$GT$$GT$13from_residual17hf9cd4767e64ea2b6E', symObjAddr: 0x2F50, symBinAddr: 0x35464, symSize: 0x6C }
  - { offsetInCU: 0x48E1, offset: 0xCC6BB, size: 0x8, addend: 0x0, symName: '__ZN153_$LT$core..result..Result$LT$T$C$F$GT$$u20$as$u20$core..ops..try_trait..FromResidual$LT$core..result..Result$LT$core..convert..Infallible$C$E$GT$$GT$$GT$13from_residual17hfe25a66795872e90E', symObjAddr: 0x2FBC, symBinAddr: 0x354D0, symSize: 0x64 }
  - { offsetInCU: 0xABE9, offset: 0xD29C3, size: 0x8, addend: 0x0, symName: '__ZN79_$LT$core..result..Result$LT$T$C$E$GT$$u20$as$u20$core..ops..try_trait..Try$GT$11from_output17h32c33abbe30f4de3E', symObjAddr: 0x7FAC, symBinAddr: 0x3A4C0, symSize: 0x1C }
  - { offsetInCU: 0xAC29, offset: 0xD2A03, size: 0x8, addend: 0x0, symName: '__ZN79_$LT$core..result..Result$LT$T$C$E$GT$$u20$as$u20$core..ops..try_trait..Try$GT$11from_output17hef94fbca8872beeeE', symObjAddr: 0x7FC8, symBinAddr: 0x3A4DC, symSize: 0x18 }
  - { offsetInCU: 0xAC69, offset: 0xD2A43, size: 0x8, addend: 0x0, symName: '__ZN79_$LT$core..result..Result$LT$T$C$E$GT$$u20$as$u20$core..ops..try_trait..Try$GT$6branch17h06d1d0936e349bd3E', symObjAddr: 0x7FE0, symBinAddr: 0x3A4F4, symSize: 0x88 }
  - { offsetInCU: 0xACE7, offset: 0xD2AC1, size: 0x8, addend: 0x0, symName: '__ZN79_$LT$core..result..Result$LT$T$C$E$GT$$u20$as$u20$core..ops..try_trait..Try$GT$6branch17h073f4629528ebaacE', symObjAddr: 0x8068, symBinAddr: 0x3A57C, symSize: 0xA0 }
  - { offsetInCU: 0xAD64, offset: 0xD2B3E, size: 0x8, addend: 0x0, symName: '__ZN79_$LT$core..result..Result$LT$T$C$E$GT$$u20$as$u20$core..ops..try_trait..Try$GT$6branch17h07afb1c9af3b194bE', symObjAddr: 0x8108, symBinAddr: 0x3A61C, symSize: 0x88 }
  - { offsetInCU: 0xADE2, offset: 0xD2BBC, size: 0x8, addend: 0x0, symName: '__ZN79_$LT$core..result..Result$LT$T$C$E$GT$$u20$as$u20$core..ops..try_trait..Try$GT$6branch17h0b57626cb99a4d7fE', symObjAddr: 0x8190, symBinAddr: 0x3A6A4, symSize: 0x90 }
  - { offsetInCU: 0xAE5F, offset: 0xD2C39, size: 0x8, addend: 0x0, symName: '__ZN79_$LT$core..result..Result$LT$T$C$E$GT$$u20$as$u20$core..ops..try_trait..Try$GT$6branch17h0d60d6d89dc2190aE', symObjAddr: 0x8220, symBinAddr: 0x3A734, symSize: 0xAC }
  - { offsetInCU: 0xAEDC, offset: 0xD2CB6, size: 0x8, addend: 0x0, symName: '__ZN79_$LT$core..result..Result$LT$T$C$E$GT$$u20$as$u20$core..ops..try_trait..Try$GT$6branch17h10d9d1f2fb06405fE', symObjAddr: 0x82CC, symBinAddr: 0x3A7E0, symSize: 0xB4 }
  - { offsetInCU: 0xAF5A, offset: 0xD2D34, size: 0x8, addend: 0x0, symName: '__ZN79_$LT$core..result..Result$LT$T$C$E$GT$$u20$as$u20$core..ops..try_trait..Try$GT$6branch17h14346160e95eab8eE', symObjAddr: 0x8380, symBinAddr: 0x3A894, symSize: 0x88 }
  - { offsetInCU: 0xAFD8, offset: 0xD2DB2, size: 0x8, addend: 0x0, symName: '__ZN79_$LT$core..result..Result$LT$T$C$E$GT$$u20$as$u20$core..ops..try_trait..Try$GT$6branch17h17f76718d8230e7dE', symObjAddr: 0x8408, symBinAddr: 0x3A91C, symSize: 0xC8 }
  - { offsetInCU: 0xB056, offset: 0xD2E30, size: 0x8, addend: 0x0, symName: '__ZN79_$LT$core..result..Result$LT$T$C$E$GT$$u20$as$u20$core..ops..try_trait..Try$GT$6branch17h208d88f42cb6ca70E', symObjAddr: 0x84D0, symBinAddr: 0x3A9E4, symSize: 0xA0 }
  - { offsetInCU: 0xB0D3, offset: 0xD2EAD, size: 0x8, addend: 0x0, symName: '__ZN79_$LT$core..result..Result$LT$T$C$E$GT$$u20$as$u20$core..ops..try_trait..Try$GT$6branch17h240a4a95547bd014E', symObjAddr: 0x8570, symBinAddr: 0x3AA84, symSize: 0xA0 }
  - { offsetInCU: 0xB150, offset: 0xD2F2A, size: 0x8, addend: 0x0, symName: '__ZN79_$LT$core..result..Result$LT$T$C$E$GT$$u20$as$u20$core..ops..try_trait..Try$GT$6branch17h28afff9be3a5430bE', symObjAddr: 0x8610, symBinAddr: 0x3AB24, symSize: 0xCC }
  - { offsetInCU: 0xB1CE, offset: 0xD2FA8, size: 0x8, addend: 0x0, symName: '__ZN79_$LT$core..result..Result$LT$T$C$E$GT$$u20$as$u20$core..ops..try_trait..Try$GT$6branch17h2960afce1cf02f49E', symObjAddr: 0x86DC, symBinAddr: 0x3ABF0, symSize: 0xA0 }
  - { offsetInCU: 0xB24B, offset: 0xD3025, size: 0x8, addend: 0x0, symName: '__ZN79_$LT$core..result..Result$LT$T$C$E$GT$$u20$as$u20$core..ops..try_trait..Try$GT$6branch17h2980f5f70104139aE', symObjAddr: 0x877C, symBinAddr: 0x3AC90, symSize: 0xA0 }
  - { offsetInCU: 0xB2C8, offset: 0xD30A2, size: 0x8, addend: 0x0, symName: '__ZN79_$LT$core..result..Result$LT$T$C$E$GT$$u20$as$u20$core..ops..try_trait..Try$GT$6branch17h2b1a99a6661473d0E', symObjAddr: 0x881C, symBinAddr: 0x3AD30, symSize: 0x88 }
  - { offsetInCU: 0xB346, offset: 0xD3120, size: 0x8, addend: 0x0, symName: '__ZN79_$LT$core..result..Result$LT$T$C$E$GT$$u20$as$u20$core..ops..try_trait..Try$GT$6branch17h2d0335afb10a0e14E', symObjAddr: 0x88A4, symBinAddr: 0x3ADB8, symSize: 0x44 }
  - { offsetInCU: 0xB3C2, offset: 0xD319C, size: 0x8, addend: 0x0, symName: '__ZN79_$LT$core..result..Result$LT$T$C$E$GT$$u20$as$u20$core..ops..try_trait..Try$GT$6branch17h2dcaf9c8384cdcfeE', symObjAddr: 0x88E8, symBinAddr: 0x3ADFC, symSize: 0xA0 }
  - { offsetInCU: 0xB43F, offset: 0xD3219, size: 0x8, addend: 0x0, symName: '__ZN79_$LT$core..result..Result$LT$T$C$E$GT$$u20$as$u20$core..ops..try_trait..Try$GT$6branch17h2e14c765f20b9c58E', symObjAddr: 0x8988, symBinAddr: 0x3AE9C, symSize: 0xA0 }
  - { offsetInCU: 0xB4BC, offset: 0xD3296, size: 0x8, addend: 0x0, symName: '__ZN79_$LT$core..result..Result$LT$T$C$E$GT$$u20$as$u20$core..ops..try_trait..Try$GT$6branch17h314e6556df816217E', symObjAddr: 0x8A28, symBinAddr: 0x3AF3C, symSize: 0x88 }
  - { offsetInCU: 0xB53A, offset: 0xD3314, size: 0x8, addend: 0x0, symName: '__ZN79_$LT$core..result..Result$LT$T$C$E$GT$$u20$as$u20$core..ops..try_trait..Try$GT$6branch17h34e2aeebca7e5ac7E', symObjAddr: 0x8AB0, symBinAddr: 0x3AFC4, symSize: 0xA0 }
  - { offsetInCU: 0xB5B7, offset: 0xD3391, size: 0x8, addend: 0x0, symName: '__ZN79_$LT$core..result..Result$LT$T$C$E$GT$$u20$as$u20$core..ops..try_trait..Try$GT$6branch17h35efd5318e694dcfE', symObjAddr: 0x8B50, symBinAddr: 0x3B064, symSize: 0xCC }
  - { offsetInCU: 0xB635, offset: 0xD340F, size: 0x8, addend: 0x0, symName: '__ZN79_$LT$core..result..Result$LT$T$C$E$GT$$u20$as$u20$core..ops..try_trait..Try$GT$6branch17h3813c61899560f09E', symObjAddr: 0x8C1C, symBinAddr: 0x3B130, symSize: 0xCC }
  - { offsetInCU: 0xB6B3, offset: 0xD348D, size: 0x8, addend: 0x0, symName: '__ZN79_$LT$core..result..Result$LT$T$C$E$GT$$u20$as$u20$core..ops..try_trait..Try$GT$6branch17h399369f429036767E', symObjAddr: 0x8CE8, symBinAddr: 0x3B1FC, symSize: 0xA0 }
  - { offsetInCU: 0xB730, offset: 0xD350A, size: 0x8, addend: 0x0, symName: '__ZN79_$LT$core..result..Result$LT$T$C$E$GT$$u20$as$u20$core..ops..try_trait..Try$GT$6branch17h3aab68f5d2185788E', symObjAddr: 0x8D88, symBinAddr: 0x3B29C, symSize: 0xA0 }
  - { offsetInCU: 0xB7AD, offset: 0xD3587, size: 0x8, addend: 0x0, symName: '__ZN79_$LT$core..result..Result$LT$T$C$E$GT$$u20$as$u20$core..ops..try_trait..Try$GT$6branch17h3b731f62c7fd45dfE', symObjAddr: 0x8E28, symBinAddr: 0x3B33C, symSize: 0xC8 }
  - { offsetInCU: 0xB82B, offset: 0xD3605, size: 0x8, addend: 0x0, symName: '__ZN79_$LT$core..result..Result$LT$T$C$E$GT$$u20$as$u20$core..ops..try_trait..Try$GT$6branch17h3cd6c223121b5d44E', symObjAddr: 0x8EF0, symBinAddr: 0x3B404, symSize: 0x44 }
  - { offsetInCU: 0xB8A7, offset: 0xD3681, size: 0x8, addend: 0x0, symName: '__ZN79_$LT$core..result..Result$LT$T$C$E$GT$$u20$as$u20$core..ops..try_trait..Try$GT$6branch17h3e94d16f43b23a36E', symObjAddr: 0x8F34, symBinAddr: 0x3B448, symSize: 0xA0 }
  - { offsetInCU: 0xB924, offset: 0xD36FE, size: 0x8, addend: 0x0, symName: '__ZN79_$LT$core..result..Result$LT$T$C$E$GT$$u20$as$u20$core..ops..try_trait..Try$GT$6branch17h3e9d42e8ca25706dE', symObjAddr: 0x8FD4, symBinAddr: 0x3B4E8, symSize: 0xB8 }
  - { offsetInCU: 0xB9A2, offset: 0xD377C, size: 0x8, addend: 0x0, symName: '__ZN79_$LT$core..result..Result$LT$T$C$E$GT$$u20$as$u20$core..ops..try_trait..Try$GT$6branch17h41c36a6ee734057dE', symObjAddr: 0x908C, symBinAddr: 0x3B5A0, symSize: 0xA0 }
  - { offsetInCU: 0xBA1F, offset: 0xD37F9, size: 0x8, addend: 0x0, symName: '__ZN79_$LT$core..result..Result$LT$T$C$E$GT$$u20$as$u20$core..ops..try_trait..Try$GT$6branch17h43a0d97cd3bd1b94E', symObjAddr: 0x912C, symBinAddr: 0x3B640, symSize: 0x88 }
  - { offsetInCU: 0xBA9D, offset: 0xD3877, size: 0x8, addend: 0x0, symName: '__ZN79_$LT$core..result..Result$LT$T$C$E$GT$$u20$as$u20$core..ops..try_trait..Try$GT$6branch17h47cb9ba277b043a3E', symObjAddr: 0x91B4, symBinAddr: 0x3B6C8, symSize: 0xA0 }
